 pandamat

 Timestamp is 57e40cf4 (Fri Sep 23 00:55:16 2016)

 Preferred load address is 10000000

 Start         Length     Name                   Class
 0001:00000000 00000f60H .text$di                CODE
 0001:00000f60 00036a20H .text$mn                CODE
 0001:00037980 00001ef0H .text$x                 CODE
 0001:00039870 00000091H .text$yd                CODE
 0002:00000000 00000150H .idata$5                DATA
 0002:00000150 00000004H .00cfg                  DATA
 0002:00000154 00000004H .CRT$XCA                DATA
 0002:00000158 0000001cH .CRT$XCC                DATA
 0002:00000174 00000008H .CRT$XCL                DATA
 0002:0000017c 000003a4H .CRT$XCU                DATA
 0002:00000520 00000004H .CRT$XCZ                DATA
 0002:00000524 00000004H .CRT$XIA                DATA
 0002:00000528 00000018H .CRT$XIC                DATA
 0002:00000540 00000004H .CRT$XIZ                DATA
 0002:00000544 00000004H .CRT$XLA                DATA
 0002:00000548 00000004H .CRT$XLZ                DATA
 0002:0000054c 00000004H .CRT$XPA                DATA
 0002:00000550 00000008H .CRT$XPX                DATA
 0002:00000558 00000004H .CRT$XPXA               DATA
 0002:0000055c 00000004H .CRT$XPZ                DATA
 0002:00000560 00000004H .CRT$XTA                DATA
 0002:00000564 0000000cH .CRT$XTZ                DATA
 0002:00000570 0000d734H .rdata                  DATA
 0002:0000dca4 00000018H .rdata$T                DATA
 0002:0000dcbc 000009f4H .rdata$r                DATA
 0002:0000e6b0 000001ecH .rdata$sxdata           DATA
 0002:0000e89c 00000480H .rdata$zzzdbg           DATA
 0002:0000ed1c 00000004H .rtc$IAA                DATA
 0002:0000ed20 00000004H .rtc$IZZ                DATA
 0002:0000ed24 00000004H .rtc$TAA                DATA
 0002:0000ed28 00000008H .rtc$TZZ                DATA
 0002:0000ed30 00002604H .xdata$x                DATA
 0002:00011334 00000020H .didat$2                DATA
 0002:00011354 00000020H .didat$3                DATA
 0002:00011374 000000b0H .didat$4                DATA
 0002:00011424 00000a08H .didat$6                DATA
 0002:00011e2c 000000b4H .didat$7                DATA
 0002:00011ee0 00000054H .edata                  DATA
 0002:00011f34 00000014H .idata$2                DATA
 0002:00011f48 00000014H .idata$3                DATA
 0002:00011f5c 00000150H .idata$4                DATA
 0002:000120ac 000005feH .idata$6                DATA
 0003:00000000 000009e0H .data                   DATA
 0003:000009e0 00000518H .data$r                 DATA
 0003:00000ef8 000000b0H .didat$5                DATA
 0003:00000fa8 00001188H .bss                    DATA
 0004:00000000 000000c4H .gfids$x                DATA
 0004:000000c4 00000274H .gfids$y                DATA
 0005:00000000 00000004H .tls                    DATA
 0005:00000004 00000004H .tls$                   DATA
 0005:00000008 00000001H .tls$ZZZ                DATA
 0006:00000000 00000060H .rsrc$01                DATA
 0006:00000060 00000180H .rsrc$02                DATA

  Address         Publics by Value              Rva+Base       Lib:Object

 0000:00000000       ___guard_fids_count        00000000     <absolute>
 0000:00000000       ___guard_longjmp_table     00000000     <absolute>
 0000:00000000       ___guard_longjmp_count     00000000     <absolute>
 0000:00000000       ___guard_iat_table         00000000     <absolute>
 0000:00000000       ___guard_iat_count         00000000     <absolute>
 0000:00000000       __except_list              00000000     <absolute>
 0000:00000000       ___guard_fids_table        00000000     <absolute>
 0000:00000000       ___dynamic_value_reloc_table 00000000     <absolute>
 0000:0000002c       __tls_array                0000002c     <absolute>
 0000:0000007b       ___safe_se_handler_count   0000007b     <absolute>
 0000:00000100       ___guard_flags             00000100     <absolute>
 0000:00000000       ___ImageBase               10000000     <linker-defined>
 0001:00000f70       ?NODE_SET_METHOD@node@@YAXV?$Local@VObject@v8@@@v8@@PBDP6AXABV?$FunctionCallbackInfo@VValue@v8@@@3@@Z@Z 10001f70 f i addon.obj
 0001:00001030       ?PandaMat@@YAXABV?$FunctionCallbackInfo@VValue@v8@@@v8@@@Z 10002030 f   addon.obj
 0001:00001040       ?InitAll@@YAXV?$Local@VObject@v8@@@v8@@0@Z 10002040 f   addon.obj
 0001:00001070       ___local_stdio_printf_options 10002070 f i pandamat.obj
 0001:00001080       __vsprintf_s_l             10002080 f i pandamat.obj
 0001:000010c0       _sprintf_s                 100020c0 f i pandamat.obj
 0001:000010e0       ?what@exception@stdext@@UBEPBDXZ 100020e0 f i pandamat.obj
 0001:000010f0       ?_Raise@exception@stdext@@QBEXXZ 100020f0 f i pandamat.obj
 0001:00001120       @_guard_check_icall_nop@4  10002120 f i LIBCMT:guard_support.obj
 0001:00001120       ___except_validate_jump_buffer 10002120 f i libvcruntime:jbcxrval.obj
 0001:00001120       ??3@YAXPAX0@Z              10002120 f i pandapool.obj
 0001:00001120       ___except_validate_context_record 10002120 f i libvcruntime:jbcxrval.obj
 0001:00001120       ?_Doraise@exception@stdext@@MBEXXZ 10002120 f i pandamat.obj
 0001:00001120       ?_Lock@?$basic_streambuf@DU?$char_traits@D@std@@@std@@UAEXXZ 10002120 f i pandamat.obj
 0001:00001120       ?_Unlock@?$basic_streambuf@DU?$char_traits@D@std@@@std@@UAEXXZ 10002120 f i pandamat.obj
 0001:00001130       ??_Eexception@stdext@@UAEPAXI@Z 10002130 f i * CIL library *:* CIL module *
 0001:00001130       ??_Eruntime_error@std@@UAEPAXI@Z 10002130 f i * CIL library *:* CIL module *
 0001:00001130       ??_Glogic_error@std@@UAEPAXI@Z 10002130 f i pandapool.obj
 0001:00001130       ??_Ebad_alloc@stdext@@UAEPAXI@Z 10002130 f i * CIL library *:* CIL module *
 0001:00001130       ??_Gruntime_error@std@@UAEPAXI@Z 10002130 f i pandamat.obj
 0001:00001130       ??_Elogic_error@std@@UAEPAXI@Z 10002130 f i * CIL library *:* CIL module *
 0001:00001130       ??_Gexception@stdext@@UAEPAXI@Z 10002130 f i pandamat.obj
 0001:00001130       ??_Gbad_alloc@stdext@@UAEPAXI@Z 10002130 f i pandapool.obj
 0001:00001160       ??1failure@ios_base@std@@UAE@XZ 10002160 f i pandamat.obj
 0001:00001160       ??1runtime_error@std@@UAE@XZ 10002160 f i pandamat.obj
 0001:00001160       ??1bad_alloc@stdext@@UAE@XZ 10002160 f i pandapool.obj
 0001:00001160       ??1logic_error@std@@UAE@XZ 10002160 f i pandapool.obj
 0001:00001170       ??0_Locinfo@std@@QAE@PBD@Z 10002170 f i pandamat.obj
 0001:00001230       ??1_Locinfo@std@@QAE@XZ    10002230 f i pandamat.obj
 0001:000012d0       ??_E_Facet_base@std@@UAEPAXI@Z 100022d0 f i * CIL library *:* CIL module *
 0001:000012d0       ??_G_Facet_base@std@@UAEPAXI@Z 100022d0 f i pandamat.obj
 0001:00001300       ??Bid@locale@std@@QAEIXZ   10002300 f i pandamat.obj
 0001:00001340       ?_Incref@facet@locale@std@@UAEXXZ 10002340 f i pandamat.obj
 0001:00001350       ?_Decref@facet@locale@std@@UAEPAV_Facet_base@3@XZ 10002350 f i pandamat.obj
 0001:00001370       ??1facet@locale@std@@MAE@XZ 10002370 f i pandamat.obj
 0001:00001380       ??1locale@std@@QAE@XZ      10002380 f i pandamat.obj
 0001:000013a0       ?c_str@locale@std@@QBEPBDXZ 100023a0 f i pandamat.obj
 0001:000013c0       ?_Getfacet@locale@std@@QBEPBVfacet@12@I@Z 100023c0 f i pandamat.obj
 0001:00001400       ?_Getcat@?$ctype@D@std@@SAIPAPBVfacet@locale@2@PBV42@@Z 10002400 f i pandamat.obj
 0001:000014c0       ?do_tolower@?$ctype@D@std@@MBEDD@Z 100024c0 f i pandamat.obj
 0001:000014e0       ?do_tolower@?$ctype@D@std@@MBEPBDPADPBD@Z 100024e0 f i pandamat.obj
 0001:00001520       ?do_toupper@?$ctype@D@std@@MBEDD@Z 10002520 f i pandamat.obj
 0001:00001540       ?do_toupper@?$ctype@D@std@@MBEPBDPADPBD@Z 10002540 f i pandamat.obj
 0001:00001580       ?do_widen@?$ctype@D@std@@MBEDD@Z 10002580 f i pandamat.obj
 0001:00001590       ?do_widen@?$ctype@D@std@@MBEPBDPBD0PAD@Z 10002590 f i pandamat.obj
 0001:000015b0       ?do_narrow@?$ctype@D@std@@MBEDDD@Z 100025b0 f i pandamat.obj
 0001:000015c0       ?do_narrow@?$ctype@D@std@@MBEPBDPBD0DPAD@Z 100025c0 f i pandamat.obj
 0001:000015e0       ??_E?$ctype@D@std@@MAEPAXI@Z 100025e0 f i * CIL library *:* CIL module *
 0001:000015e0       ??_G?$ctype@D@std@@MAEPAXI@Z 100025e0 f i pandamat.obj
 0001:00001630       ??_G_Iostream_error_category@std@@UAEPAXI@Z 10002630 f i pandamat.obj
 0001:00001630       ??_E_Iostream_error_category@std@@UAEPAXI@Z 10002630 f i * CIL library *:* CIL module *
 0001:00001630       ??_Gerror_category@std@@UAEPAXI@Z 10002630 f i pandamat.obj
 0001:00001630       ??_Eerror_category@std@@UAEPAXI@Z 10002630 f i * CIL library *:* CIL module *
 0001:00001660       ?message@error_code@std@@QBE?AV?$basic_string@DU?$char_traits@D@std@@V?$allocator@D@2@@2@XZ 10002660 f i pandamat.obj
 0001:00001690       ?default_error_condition@error_category@std@@UBE?AVerror_condition@2@H@Z 10002690 f i pandamat.obj
 0001:000016a0       ?equivalent@error_category@std@@UBE_NHABVerror_condition@2@@Z 100026a0 f i pandamat.obj
 0001:00001700       ?equivalent@error_category@std@@UBE_NABVerror_code@2@H@Z 10002700 f i pandamat.obj
 0001:00001730       ?_Makestr@_System_error@std@@CA?AV?$basic_string@DU?$char_traits@D@std@@V?$allocator@D@2@@2@Verror_code@2@V32@@Z 10002730 f i pandamat.obj
 0001:000017f0       ??0_System_error@std@@IAE@Verror_code@1@ABV?$basic_string@DU?$char_traits@D@std@@V?$allocator@D@2@@1@@Z 100027f0 f i pandamat.obj
 0001:00001890       ??_Efailure@ios_base@std@@UAEPAXI@Z 10002890 f i * CIL library *:* CIL module *
 0001:00001890       ??_Gfailure@ios_base@std@@UAEPAXI@Z 10002890 f i pandamat.obj
 0001:00001890       ??_G_System_error@std@@UAEPAXI@Z 10002890 f i pandamat.obj
 0001:00001890       ??_Gsystem_error@std@@UAEPAXI@Z 10002890 f i pandamat.obj
 0001:00001890       ??_Esystem_error@std@@UAEPAXI@Z 10002890 f i * CIL library *:* CIL module *
 0001:00001890       ??_E_System_error@std@@UAEPAXI@Z 10002890 f i * CIL library *:* CIL module *
 0001:000018c0       ??0system_error@std@@QAE@Verror_code@1@PBD@Z 100028c0 f i pandamat.obj
 0001:00001980       ?message@_Generic_error_category@std@@UBE?AV?$basic_string@DU?$char_traits@D@std@@V?$allocator@D@2@@2@H@Z 10002980 f i pandamat.obj
 0001:000019f0       ?name@_Iostream_error_category@std@@UBEPBDXZ 100029f0 f i pandamat.obj
 0001:00001a00       ?message@_Iostream_error_category@std@@UBE?AV?$basic_string@DU?$char_traits@D@std@@V?$allocator@D@2@@2@H@Z 10002a00 f i pandamat.obj
 0001:00001a50       ??0failure@ios_base@std@@QAE@PBDABVerror_code@2@@Z 10002a50 f i pandamat.obj
 0001:00001a80       ?clear@ios_base@std@@QAEXH_N@Z 10002a80 f i pandamat.obj
 0001:00001b70       ?getloc@ios_base@std@@QBE?AVlocale@2@XZ 10002b70 f i pandamat.obj
 0001:00001ba0       ?_Init@ios_base@std@@IAEXXZ 10002ba0 f i pandamat.obj
 0001:00001c50       ??_Eios_base@std@@UAEPAXI@Z 10002c50 f i * CIL library *:* CIL module *
 0001:00001c50       ??_Gios_base@std@@UAEPAXI@Z 10002c50 f i pandamat.obj
 0001:00001c80       ?NODE_SET_PROTOTYPE_METHOD@node@@YAXV?$Local@VFunctionTemplate@v8@@@v8@@PBDP6AXABV?$FunctionCallbackInfo@VValue@v8@@@3@@Z@Z 10002c80 f i pandamat.obj
 0001:00001d60       ??1ObjectWrap@node@@UAE@XZ 10002d60 f i pandamat.obj
 0001:00001e10       ?Wrap@ObjectWrap@node@@IAEXV?$Local@VObject@v8@@@v8@@@Z 10002e10 f i pandamat.obj
 0001:00001ec0       ?Ref@ObjectWrap@node@@MAEXXZ 10002ec0 f i pandamat.obj
 0001:00001ef0       ?Unref@ObjectWrap@node@@MAEXXZ 10002ef0 f i pandamat.obj
 0001:00001f80       ?WeakCallback@ObjectWrap@node@@CAXABV?$WeakCallbackInfo@VObjectWrap@node@@@v8@@@Z 10002f80 f i pandamat.obj
 0001:00001fd0       ??_GObjectWrap@node@@UAEPAXI@Z 10002fd0 f i pandamat.obj
 0001:00001fd0       ??_EObjectWrap@node@@UAEPAXI@Z 10002fd0 f i * CIL library *:* CIL module *
 0001:00001ff0       ??1OperationData@@QAE@XZ   10002ff0 f i pandamat.obj
 0001:00002180       ??1?$map@V?$basic_string@DU?$char_traits@D@std@@V?$allocator@D@2@@std@@V?$Mat@N@arma@@U?$less@V?$basic_string@DU?$char_traits@D@std@@V?$allocator@D@2@@std@@@2@V?$allocator@U?$pair@$$CBV?$basic_string@DU?$char_traits@D@std@@V?$allocator@D@2@@std@@V?$Mat@N@arma@@@std@@@2@@std@@QAE@XZ 10003180 f i pandamat.obj
 0001:000021a0       ??1?$map@V?$basic_string@DU?$char_traits@D@std@@V?$allocator@D@2@@std@@NU?$less@V?$basic_string@DU?$char_traits@D@std@@V?$allocator@D@2@@std@@@2@V?$allocator@U?$pair@$$CBV?$basic_string@DU?$char_traits@D@std@@V?$allocator@D@2@@std@@N@std@@@2@@std@@QAE@XZ 100031a0 f i pandamat.obj
 0001:000021a0       ??1?$map@V?$basic_string@DU?$char_traits@D@std@@V?$allocator@D@2@@std@@_NU?$less@V?$basic_string@DU?$char_traits@D@std@@V?$allocator@D@2@@std@@@2@V?$allocator@U?$pair@$$CBV?$basic_string@DU?$char_traits@D@std@@V?$allocator@D@2@@std@@_N@std@@@2@@std@@QAE@XZ 100031a0 f i pandamat.obj
 0001:000021a0       ??1?$map@V?$basic_string@DU?$char_traits@D@std@@V?$allocator@D@2@@std@@W4parameterType@@U?$less@V?$basic_string@DU?$char_traits@D@std@@V?$allocator@D@2@@std@@@2@V?$allocator@U?$pair@$$CBV?$basic_string@DU?$char_traits@D@std@@V?$allocator@D@2@@std@@W4parameterType@@@std@@@2@@std@@QAE@XZ 100031a0 f i pandamat.obj
 0001:000021c0       ??1?$map@V?$basic_string@DU?$char_traits@D@std@@V?$allocator@D@2@@std@@V12@U?$less@V?$basic_string@DU?$char_traits@D@std@@V?$allocator@D@2@@std@@@2@V?$allocator@U?$pair@$$CBV?$basic_string@DU?$char_traits@D@std@@V?$allocator@D@2@@std@@V12@@std@@@2@@std@@QAE@XZ 100031c0 f i pandamat.obj
 0001:000021e0       ??_EPandaMat@@UAEPAXI@Z    100031e0 f i * CIL library *:* CIL module *
 0001:000021e0       ??_GPandaMat@@UAEPAXI@Z    100031e0 f i pandamat.obj
 0001:00002220       ??1OperationCollection@@QAE@XZ 10003220 f i pandamat.obj
 0001:000022e0       ??1PandaPool@@QAE@XZ       100032e0 f i pandamat.obj
 0001:00002430       ??1?$map@IV?$basic_string@DU?$char_traits@D@std@@V?$allocator@D@2@@std@@U?$less@I@2@V?$allocator@U?$pair@$$CBIV?$basic_string@DU?$char_traits@D@std@@V?$allocator@D@2@@std@@@std@@@2@@std@@QAE@XZ 10003430 f i pandamat.obj
 0001:00002450       ??1?$map@IVNormalize@@U?$less@I@std@@V?$allocator@U?$pair@$$CBIVNormalize@@@std@@@3@@std@@QAE@XZ 10003450 f i pandamat.obj
 0001:00002450       ??1?$map@IVTranspose@@U?$less@I@std@@V?$allocator@U?$pair@$$CBIVTranspose@@@std@@@3@@std@@QAE@XZ 10003450 f i pandamat.obj
 0001:00002450       ??1?$map@IVAdd@@U?$less@I@std@@V?$allocator@U?$pair@$$CBIVAdd@@@std@@@3@@std@@QAE@XZ 10003450 f i pandamat.obj
 0001:00002450       ??1?$map@IVDot@@U?$less@I@std@@V?$allocator@U?$pair@$$CBIVDot@@@std@@@3@@std@@QAE@XZ 10003450 f i pandamat.obj
 0001:00002470       ??1?$map@I_NU?$less@I@std@@V?$allocator@U?$pair@$$CBI_N@std@@@2@@std@@QAE@XZ 10003470 f i pandamat.obj
 0001:00002470       ??1?$map@IW4exceptions@@U?$less@I@std@@V?$allocator@U?$pair@$$CBIW4exceptions@@@std@@@3@@std@@QAE@XZ 10003470 f i pandamat.obj
 0001:00002470       ??1?$map@IPAVIsolate@v8@@U?$less@I@std@@V?$allocator@U?$pair@$$CBIPAVIsolate@v8@@@std@@@4@@std@@QAE@XZ 10003470 f i pandamat.obj
 0001:00002470       ??1?$map@INU?$less@I@std@@V?$allocator@U?$pair@$$CBIN@std@@@2@@std@@QAE@XZ 10003470 f i pandamat.obj
 0001:00002490       ??1?$map@IV?$Mat@N@arma@@U?$less@I@std@@V?$allocator@U?$pair@$$CBIV?$Mat@N@arma@@@std@@@4@@std@@QAE@XZ 10003490 f i pandamat.obj
 0001:000024b0       ?setState@PandaMat@@IAEXIW4exceptions@@V?$basic_string@DU?$char_traits@D@std@@V?$allocator@D@2@@std@@@Z 100034b0 f   pandamat.obj
 0001:00002540       ?send@PandaMat@@IAEXIPAVOperation@@PBDI@Z 10003540 f   pandamat.obj
 0001:00002600       ?getResult@PandaMat@@IAEXIPAVOperation@@@Z 10003600 f   pandamat.obj
 0001:00002650       ?getOperation@PandaMat@@IAEPAVOperation@@IPBD@Z 10003650 f   pandamat.obj
 0001:00002760       ??1OperationResult@@QAE@XZ 10003760 f i pandamat.obj
 0001:00002760       ??1?$pair@IV?$basic_string@DU?$char_traits@D@std@@V?$allocator@D@2@@std@@@std@@QAE@XZ 10003760 f i pandapool.obj
 0001:000027a0       ?packResult@PandaMat@@IAE?AV?$Local@VObject@v8@@@v8@@I@Z 100037a0 f   pandamat.obj
 0001:00002a40       ?Operate@PandaMat@@CAXABV?$FunctionCallbackInfo@VValue@v8@@@v8@@@Z 10003a40 f   pandamat.obj
 0001:00002f90       ?saveData@PandaMat@@CAXABV?$FunctionCallbackInfo@VValue@v8@@@v8@@@Z 10003f90 f   pandamat.obj
 0001:00003240       ?removeData@PandaMat@@CAXABV?$FunctionCallbackInfo@VValue@v8@@@v8@@@Z 10004240 f   pandamat.obj
 0001:000033f0       ?getData@PandaMat@@CAXABV?$FunctionCallbackInfo@VValue@v8@@@v8@@@Z 100043f0 f   pandamat.obj
 0001:00003660       ?New@PandaMat@@CAXABV?$FunctionCallbackInfo@VValue@v8@@@v8@@@Z 10004660 f   pandamat.obj
 0001:000037c0       ?Init@PandaMat@@SAXPAVIsolate@v8@@@Z 100047c0 f   pandamat.obj
 0001:000038c0       ?NewInstance@PandaMat@@SAXABV?$FunctionCallbackInfo@VValue@v8@@@v8@@@Z 100048c0 f   pandamat.obj
 0001:00003950       ??1?$_Yarn@_W@std@@QAE@XZ  10004950 f i pandamat.obj
 0001:00003950       ??1?$_Yarn@D@std@@QAE@XZ   10004950 f i pandamat.obj
 0001:00003970       ?compare@?$basic_string@DU?$char_traits@D@std@@V?$allocator@D@2@@std@@QBEHPBD@Z 10004970 f i pandamat.obj
 0001:000039c0       ??1?$pair@V?$basic_string@DU?$char_traits@D@std@@V?$allocator@D@2@@std@@N@std@@QAE@XZ 100049c0 f i pandapool.obj
 0001:000039c0       ??1?$basic_string@DU?$char_traits@D@std@@V?$allocator@D@2@@std@@QAE@XZ 100049c0 f i pandamat.obj
 0001:000039c0       ??1?$pair@V?$basic_string@DU?$char_traits@D@std@@V?$allocator@D@2@@std@@W4parameterType@@@std@@QAE@XZ 100049c0 f i pandapool.obj
 0001:000039c0       ??1?$pair@V?$basic_string@DU?$char_traits@D@std@@V?$allocator@D@2@@std@@_N@std@@QAE@XZ 100049c0 f i pandapool.obj
 0001:00003a00       ??4?$basic_string@DU?$char_traits@D@std@@V?$allocator@D@2@@std@@QAEAAV01@$$QAV01@@Z 10004a00 f i pandamat.obj
 0001:00003a00       ?assign@?$basic_string@DU?$char_traits@D@std@@V?$allocator@D@2@@std@@QAEAAV12@$$QAV12@@Z 10004a00 f i pandamat.obj
 0001:00003a60       ??0?$basic_string@DU?$char_traits@D@std@@V?$allocator@D@2@@std@@QAE@$$QAV01@@Z 10004a60 f i pandamat.obj
 0001:00003ae0       ??0?$basic_string@DU?$char_traits@D@std@@V?$allocator@D@2@@std@@QAE@PBD@Z 10004ae0 f i pandamat.obj
 0001:00003b30       ??0?$basic_string@DU?$char_traits@D@std@@V?$allocator@D@2@@std@@QAE@ABV01@@Z 10004b30 f i pandamat.obj
 0001:00003b60       ?seekpos@?$basic_stringbuf@DU?$char_traits@D@std@@V?$allocator@D@2@@std@@MAE?AV?$fpos@U_Mbstatet@@@2@V32@H@Z 10004b60 f i pandamat.obj
 0001:00003c90       ?seekoff@?$basic_stringbuf@DU?$char_traits@D@std@@V?$allocator@D@2@@std@@MAE?AV?$fpos@U_Mbstatet@@@2@_JHH@Z 10004c90 f i pandamat.obj
 0001:00003e70       ?underflow@?$basic_stringbuf@DU?$char_traits@D@std@@V?$allocator@D@2@@std@@MAEHXZ 10004e70 f i pandamat.obj
 0001:00003ed0       ?pbackfail@?$basic_stringbuf@DU?$char_traits@D@std@@V?$allocator@D@2@@std@@MAEHH@Z 10004ed0 f i pandamat.obj
 0001:00003f30       ?overflow@?$basic_stringbuf@DU?$char_traits@D@std@@V?$allocator@D@2@@std@@MAEHH@Z 10004f30 f i pandamat.obj
 0001:000040f0       ?flush@?$basic_ostream@DU?$char_traits@D@std@@@std@@QAEAAV12@XZ 100050f0 f i pandamat.obj
 0001:00004190       ?put@?$basic_ostream@DU?$char_traits@D@std@@@std@@QAEAAV12@D@Z 10005190 f i pandamat.obj
 0001:000042a0       ??6?$basic_ostream@DU?$char_traits@D@std@@@std@@QAEAAV01@I@Z 100052a0 f i pandamat.obj
 0001:000043e0       ??1?$basic_ostream@DU?$char_traits@D@std@@@std@@UAE@XZ 100053e0 f i pandamat.obj
 0001:00004400       ?imbue@?$basic_streambuf@DU?$char_traits@D@std@@@std@@MAEXABVlocale@2@@Z 10005400 f i pandamat.obj
 0001:00004410       ?sync@?$basic_streambuf@DU?$char_traits@D@std@@@std@@MAEHXZ 10005410 f i pandamat.obj
 0001:00004420       ?setbuf@?$basic_streambuf@DU?$char_traits@D@std@@@std@@MAEPAV12@PAD_J@Z 10005420 f i pandamat.obj
 0001:00004430       ?seekpos@?$basic_streambuf@DU?$char_traits@D@std@@@std@@MAE?AV?$fpos@U_Mbstatet@@@2@V32@H@Z 10005430 f i pandamat.obj
 0001:00004460       ?seekoff@?$basic_streambuf@DU?$char_traits@D@std@@@std@@MAE?AV?$fpos@U_Mbstatet@@@2@_JHH@Z 10005460 f i pandamat.obj
 0001:00004490       ?xsputn@?$basic_streambuf@DU?$char_traits@D@std@@@std@@MAE_JPBD_J@Z 10005490 f i pandamat.obj
 0001:000045a0       ?xsgetn@?$basic_streambuf@DU?$char_traits@D@std@@@std@@MAE_JPAD_J@Z 100055a0 f i pandamat.obj
 0001:000046d0       ?uflow@?$basic_streambuf@DU?$char_traits@D@std@@@std@@MAEHXZ 100056d0 f i pandamat.obj
 0001:00004700       ?underflow@?$basic_streambuf@DU?$char_traits@D@std@@@std@@MAEHXZ 10005700 f i pandamat.obj
 0001:00004710       ?showmanyc@?$basic_streambuf@DU?$char_traits@D@std@@@std@@MAE_JXZ 10005710 f i pandamat.obj
 0001:00004720       ?pbackfail@?$basic_streambuf@DU?$char_traits@D@std@@@std@@MAEHH@Z 10005720 f i pandamat.obj
 0001:00004720       ?overflow@?$basic_streambuf@DU?$char_traits@D@std@@@std@@MAEHH@Z 10005720 f i pandamat.obj
 0001:00004730       ??1?$basic_streambuf@DU?$char_traits@D@std@@@std@@UAE@XZ 10005730 f i pandamat.obj
 0001:00004770       ??1?$basic_ios@DU?$char_traits@D@std@@@std@@UAE@XZ 10005770 f i pandamat.obj
 0001:00004780       ??_E?$basic_stringbuf@DU?$char_traits@D@std@@V?$allocator@D@2@@std@@UAEPAXI@Z 10005780 f i * CIL library *:* CIL module *
 0001:00004780       ??_G?$basic_stringbuf@DU?$char_traits@D@std@@V?$allocator@D@2@@std@@UAEPAXI@Z 10005780 f i pandamat.obj
 0001:000047e0       ??_G?$basic_ostream@DU?$char_traits@D@std@@@std@@UAEPAXI@Z 100057e0 f i pandamat.obj
 0001:000047e0       ??_E?$basic_ostream@DU?$char_traits@D@std@@@std@@UAEPAXI@Z 100057e0 f i * CIL library *:* CIL module *
 0001:00004830       ??_G?$basic_streambuf@DU?$char_traits@D@std@@@std@@UAEPAXI@Z 10005830 f i pandamat.obj
 0001:00004830       ??_E?$basic_streambuf@DU?$char_traits@D@std@@@std@@UAEPAXI@Z 10005830 f i * CIL library *:* CIL module *
 0001:00004880       ??_E?$basic_ios@DU?$char_traits@D@std@@@std@@UAEPAXI@Z 10005880 f i * CIL library *:* CIL module *
 0001:00004880       ??_G?$basic_ios@DU?$char_traits@D@std@@@std@@UAEPAXI@Z 10005880 f i pandamat.obj
 0001:000048b0       ??_D?$basic_ostream@DU?$char_traits@D@std@@@std@@QAEXXZ 100058b0 f i pandamat.obj
 0001:000048e0       ??1sentry@?$basic_ostream@DU?$char_traits@D@std@@@std@@QAE@XZ 100058e0 f i pandamat.obj
 0001:00004960       ??0sentry@?$basic_ostream@DU?$char_traits@D@std@@@std@@QAE@AAV12@@Z 10005960 f i pandamat.obj
 0001:00004a00       ?do_put@?$num_put@DV?$ostreambuf_iterator@DU?$char_traits@D@std@@@std@@@std@@MBE?AV?$ostreambuf_iterator@DU?$char_traits@D@std@@@2@V32@AAVios_base@2@DPBX@Z 10005a00 f i pandamat.obj
 0001:00004a70       ?do_put@?$num_put@DV?$ostreambuf_iterator@DU?$char_traits@D@std@@@std@@@std@@MBE?AV?$ostreambuf_iterator@DU?$char_traits@D@std@@@2@V32@AAVios_base@2@DO@Z 10005a70 f i pandamat.obj
 0001:00004c10       ?do_put@?$num_put@DV?$ostreambuf_iterator@DU?$char_traits@D@std@@@std@@@std@@MBE?AV?$ostreambuf_iterator@DU?$char_traits@D@std@@@2@V32@AAVios_base@2@DN@Z 10005c10 f i pandamat.obj
 0001:00004db0       ?do_put@?$num_put@DV?$ostreambuf_iterator@DU?$char_traits@D@std@@@std@@@std@@MBE?AV?$ostreambuf_iterator@DU?$char_traits@D@std@@@2@V32@AAVios_base@2@D_K@Z 10005db0 f i pandamat.obj
 0001:00004e30       ?do_put@?$num_put@DV?$ostreambuf_iterator@DU?$char_traits@D@std@@@std@@@std@@MBE?AV?$ostreambuf_iterator@DU?$char_traits@D@std@@@2@V32@AAVios_base@2@D_J@Z 10005e30 f i pandamat.obj
 0001:00004eb0       ?do_put@?$num_put@DV?$ostreambuf_iterator@DU?$char_traits@D@std@@@std@@@std@@MBE?AV?$ostreambuf_iterator@DU?$char_traits@D@std@@@2@V32@AAVios_base@2@DK@Z 10005eb0 f i pandamat.obj
 0001:00004f30       ?do_put@?$num_put@DV?$ostreambuf_iterator@DU?$char_traits@D@std@@@std@@@std@@MBE?AV?$ostreambuf_iterator@DU?$char_traits@D@std@@@2@V32@AAVios_base@2@DJ@Z 10005f30 f i pandamat.obj
 0001:00004fb0       ?do_put@?$num_put@DV?$ostreambuf_iterator@DU?$char_traits@D@std@@@std@@@std@@MBE?AV?$ostreambuf_iterator@DU?$char_traits@D@std@@@2@V32@AAVios_base@2@D_N@Z 10005fb0 f i pandamat.obj
 0001:00005180       ?put@?$num_put@DV?$ostreambuf_iterator@DU?$char_traits@D@std@@@std@@@std@@QBE?AV?$ostreambuf_iterator@DU?$char_traits@D@std@@@2@V32@AAVios_base@2@DK@Z 10006180 f i pandamat.obj
 0001:000051b0       ?_Tidy@?$basic_string@DU?$char_traits@D@std@@V?$allocator@D@2@@std@@QAEX_NI@Z 100061b0 f i pandamat.obj
 0001:00005210       ?_Traits_compare@?$basic_string@DU?$char_traits@D@std@@V?$allocator@D@2@@std@@SAHQBDI0I@Z 10006210 f i pandamat.obj
 0001:000052a0       ?erase@?$basic_string@DU?$char_traits@D@std@@V?$allocator@D@2@@std@@QAEAAV12@II@Z 100062a0 f i pandamat.obj
 0001:00005340       ?assign@?$basic_string@DU?$char_traits@D@std@@V?$allocator@D@2@@std@@QAEAAV12@ID@Z 10006340 f i pandamat.obj
 0001:00005410       ?assign@?$basic_string@DU?$char_traits@D@std@@V?$allocator@D@2@@std@@QAEAAV12@PBDI@Z 10006410 f i pandamat.obj
 0001:00005510       ?assign@?$basic_string@DU?$char_traits@D@std@@V?$allocator@D@2@@std@@QAEAAV12@ABV12@II@Z 10006510 f i pandamat.obj
 0001:00005620       ?append@?$basic_string@DU?$char_traits@D@std@@V?$allocator@D@2@@std@@QAEAAV12@ID@Z 10006620 f i pandamat.obj
 0001:000056c0       ?append@?$basic_string@DU?$char_traits@D@std@@V?$allocator@D@2@@std@@QAEAAV12@PBDI@Z 100066c0 f i pandamat.obj
 0001:000057f0       ?append@?$basic_string@DU?$char_traits@D@std@@V?$allocator@D@2@@std@@QAEAAV12@ABV12@II@Z 100067f0 f i pandamat.obj
 0001:000058f0       ?_Assign_rv@?$basic_string@DU?$char_traits@D@std@@V?$allocator@D@2@@std@@QAEX$$QAV12@@Z 100068f0 f i pandamat.obj
 0001:00005960       ?_Tidy@?$basic_stringbuf@DU?$char_traits@D@std@@V?$allocator@D@2@@std@@IAEXXZ 10006960 f i pandamat.obj
 0001:00005a10       ?str@?$basic_stringbuf@DU?$char_traits@D@std@@V?$allocator@D@2@@std@@QBE?AV?$basic_string@DU?$char_traits@D@std@@V?$allocator@D@2@@2@XZ 10006a10 f i pandamat.obj
 0001:00005b20       ?allocate@?$allocator@D@std@@QAEPADI@Z 10006b20 f i pandamat.obj
 0001:00005b70       ?deallocate@?$allocator@D@std@@QAEXPADI@Z 10006b70 f i pandamat.obj
 0001:00005b70       ?deallocate@?$_Wrap_alloc@V?$allocator@D@std@@@std@@QAEXPADI@Z 10006b70 f i pandamat.obj
 0001:00005bc0       ??0?$basic_ostream@DU?$char_traits@D@std@@@std@@QAE@PAV?$basic_streambuf@DU?$char_traits@D@std@@@1@_N@Z 10006bc0 f i pandamat.obj
 0001:00005c90       ?_Pnavail@?$basic_streambuf@DU?$char_traits@D@std@@@std@@IBE_JXZ 10006c90 f i pandamat.obj
 0001:00005cb0       ?_Gnavail@?$basic_streambuf@DU?$char_traits@D@std@@@std@@IBE_JXZ 10006cb0 f i pandamat.obj
 0001:00005cd0       ??_E?$num_put@DV?$ostreambuf_iterator@DU?$char_traits@D@std@@@std@@@std@@MAEPAXI@Z 10006cd0 f i * CIL library *:* CIL module *
 0001:00005cd0       ??_G?$num_put@DV?$ostreambuf_iterator@DU?$char_traits@D@std@@@std@@@std@@MAEPAXI@Z 10006cd0 f i pandamat.obj
 0001:00005d00       ?do_truename@?$numpunct@D@std@@MBE?AV?$basic_string@DU?$char_traits@D@std@@V?$allocator@D@2@@2@XZ 10006d00 f i pandamat.obj
 0001:00005d60       ?do_falsename@?$numpunct@D@std@@MBE?AV?$basic_string@DU?$char_traits@D@std@@V?$allocator@D@2@@2@XZ 10006d60 f i pandamat.obj
 0001:00005dc0       ?do_grouping@?$numpunct@D@std@@MBE?AV?$basic_string@DU?$char_traits@D@std@@V?$allocator@D@2@@2@XZ 10006dc0 f i pandamat.obj
 0001:00005e20       ?do_thousands_sep@?$numpunct@D@std@@MBEDXZ 10006e20 f i pandamat.obj
 0001:00005e30       ?do_decimal_point@?$numpunct@D@std@@MBEDXZ 10006e30 f i pandamat.obj
 0001:00005e40       ?truename@?$numpunct@D@std@@QBE?AV?$basic_string@DU?$char_traits@D@std@@V?$allocator@D@2@@2@XZ 10006e40 f i pandamat.obj
 0001:00005e60       ?falsename@?$numpunct@D@std@@QBE?AV?$basic_string@DU?$char_traits@D@std@@V?$allocator@D@2@@2@XZ 10006e60 f i pandamat.obj
 0001:00005e80       ?erase@?$_Tree@V?$_Tmap_traits@IPAVIsolate@v8@@U?$less@I@std@@V?$allocator@U?$pair@$$CBIPAVIsolate@v8@@@std@@@4@$0A@@std@@@std@@QAE?AV?$_Tree_iterator@V?$_Tree_val@U?$_Tree_simple_types@U?$pair@$$CBIPAVIsolate@v8@@@std@@@std@@@std@@@2@V?$_Tree_const_iterator@V?$_Tree_val@U?$_Tree_simple_types@U?$pair@$$CBIPAVIsolate@v8@@@std@@@std@@@std@@@2@0@Z 10006e80 f i pandamat.obj
 0001:00005e80       ?erase@?$_Tree@V?$_Tmap_traits@IW4parameterType@@U?$less@I@std@@V?$allocator@U?$pair@$$CBIW4parameterType@@@std@@@3@$0A@@std@@@std@@QAE?AV?$_Tree_iterator@V?$_Tree_val@U?$_Tree_simple_types@U?$pair@$$CBIW4parameterType@@@std@@@std@@@std@@@2@V?$_Tree_const_iterator@V?$_Tree_val@U?$_Tree_simple_types@U?$pair@$$CBIW4parameterType@@@std@@@std@@@std@@@2@0@Z 10006e80 f i pandamat.obj
 0001:00005e80       ?erase@?$_Tree@V?$_Tmap_traits@INU?$less@I@std@@V?$allocator@U?$pair@$$CBIN@std@@@2@$0A@@std@@@std@@QAE?AV?$_Tree_iterator@V?$_Tree_val@U?$_Tree_simple_types@U?$pair@$$CBIN@std@@@std@@@std@@@2@V?$_Tree_const_iterator@V?$_Tree_val@U?$_Tree_simple_types@U?$pair@$$CBIN@std@@@std@@@std@@@2@0@Z 10006e80 f i pandamat.obj
 0001:00005e80       ?erase@?$_Tree@V?$_Tmap_traits@IW4exceptions@@U?$less@I@std@@V?$allocator@U?$pair@$$CBIW4exceptions@@@std@@@3@$0A@@std@@@std@@QAE?AV?$_Tree_iterator@V?$_Tree_val@U?$_Tree_simple_types@U?$pair@$$CBIW4exceptions@@@std@@@std@@@std@@@2@V?$_Tree_const_iterator@V?$_Tree_val@U?$_Tree_simple_types@U?$pair@$$CBIW4exceptions@@@std@@@std@@@std@@@2@0@Z 10006e80 f i pandamat.obj
 0001:00005e80       ?erase@?$_Tree@V?$_Tmap_traits@I_NU?$less@I@std@@V?$allocator@U?$pair@$$CBI_N@std@@@2@$0A@@std@@@std@@QAE?AV?$_Tree_iterator@V?$_Tree_val@U?$_Tree_simple_types@U?$pair@$$CBI_N@std@@@std@@@std@@@2@V?$_Tree_const_iterator@V?$_Tree_val@U?$_Tree_simple_types@U?$pair@$$CBI_N@std@@@std@@@std@@@2@0@Z 10006e80 f i pandamat.obj
 0001:00005f30       ?erase@?$_Tree@V?$_Tmap_traits@IV?$Mat@N@arma@@U?$less@I@std@@V?$allocator@U?$pair@$$CBIV?$Mat@N@arma@@@std@@@4@$0A@@std@@@std@@QAE?AV?$_Tree_iterator@V?$_Tree_val@U?$_Tree_simple_types@U?$pair@$$CBIV?$Mat@N@arma@@@std@@@std@@@std@@@2@V?$_Tree_const_iterator@V?$_Tree_val@U?$_Tree_simple_types@U?$pair@$$CBIV?$Mat@N@arma@@@std@@@std@@@std@@@2@0@Z 10006f30 f i pandamat.obj
 0001:00005ff0       ?erase@?$_Tree@V?$_Tmap_traits@IVNormalize@@U?$less@I@std@@V?$allocator@U?$pair@$$CBIVNormalize@@@std@@@3@$0A@@std@@@std@@QAE?AV?$_Tree_iterator@V?$_Tree_val@U?$_Tree_simple_types@U?$pair@$$CBIVNormalize@@@std@@@std@@@std@@@2@V?$_Tree_const_iterator@V?$_Tree_val@U?$_Tree_simple_types@U?$pair@$$CBIVNormalize@@@std@@@std@@@std@@@2@0@Z 10006ff0 f i pandamat.obj
 0001:00005ff0       ?erase@?$_Tree@V?$_Tmap_traits@IVSqrtDist@@U?$less@I@std@@V?$allocator@U?$pair@$$CBIVSqrtDist@@@std@@@3@$0A@@std@@@std@@QAE?AV?$_Tree_iterator@V?$_Tree_val@U?$_Tree_simple_types@U?$pair@$$CBIVSqrtDist@@@std@@@std@@@std@@@2@V?$_Tree_const_iterator@V?$_Tree_val@U?$_Tree_simple_types@U?$pair@$$CBIVSqrtDist@@@std@@@std@@@std@@@2@0@Z 10006ff0 f i pandamat.obj
 0001:00005ff0       ?erase@?$_Tree@V?$_Tmap_traits@IVTranspose@@U?$less@I@std@@V?$allocator@U?$pair@$$CBIVTranspose@@@std@@@3@$0A@@std@@@std@@QAE?AV?$_Tree_iterator@V?$_Tree_val@U?$_Tree_simple_types@U?$pair@$$CBIVTranspose@@@std@@@std@@@std@@@2@V?$_Tree_const_iterator@V?$_Tree_val@U?$_Tree_simple_types@U?$pair@$$CBIVTranspose@@@std@@@std@@@std@@@2@0@Z 10006ff0 f i pandamat.obj
 0001:00005ff0       ?erase@?$_Tree@V?$_Tmap_traits@IVDot@@U?$less@I@std@@V?$allocator@U?$pair@$$CBIVDot@@@std@@@3@$0A@@std@@@std@@QAE?AV?$_Tree_iterator@V?$_Tree_val@U?$_Tree_simple_types@U?$pair@$$CBIVDot@@@std@@@std@@@std@@@2@V?$_Tree_const_iterator@V?$_Tree_val@U?$_Tree_simple_types@U?$pair@$$CBIVDot@@@std@@@std@@@std@@@2@0@Z 10006ff0 f i pandamat.obj
 0001:00005ff0       ?erase@?$_Tree@V?$_Tmap_traits@IVAdd@@U?$less@I@std@@V?$allocator@U?$pair@$$CBIVAdd@@@std@@@3@$0A@@std@@@std@@QAE?AV?$_Tree_iterator@V?$_Tree_val@U?$_Tree_simple_types@U?$pair@$$CBIVAdd@@@std@@@std@@@std@@@2@V?$_Tree_const_iterator@V?$_Tree_val@U?$_Tree_simple_types@U?$pair@$$CBIVAdd@@@std@@@std@@@std@@@2@0@Z 10006ff0 f i pandamat.obj
 0001:000060a0       ?erase@?$_Tree@V?$_Tmap_traits@IV?$basic_string@DU?$char_traits@D@std@@V?$allocator@D@2@@std@@U?$less@I@2@V?$allocator@U?$pair@$$CBIV?$basic_string@DU?$char_traits@D@std@@V?$allocator@D@2@@std@@@std@@@2@$0A@@std@@@std@@QAE?AV?$_Tree_iterator@V?$_Tree_val@U?$_Tree_simple_types@U?$pair@$$CBIV?$basic_string@DU?$char_traits@D@std@@V?$allocator@D@2@@std@@@std@@@std@@@std@@@2@V?$_Tree_const_iterator@V?$_Tree_val@U?$_Tree_simple_types@U?$pair@$$CBIV?$basic_string@DU?$char_traits@D@std@@V?$allocator@D@2@@std@@@std@@@std@@@std@@@2@0@Z 100070a0 f i pandamat.obj
 0001:00006160       ?erase@?$_Tree@V?$_Tmap_traits@V?$basic_string@DU?$char_traits@D@std@@V?$allocator@D@2@@std@@W4parameterType@@U?$less@V?$basic_string@DU?$char_traits@D@std@@V?$allocator@D@2@@std@@@2@V?$allocator@U?$pair@$$CBV?$basic_string@DU?$char_traits@D@std@@V?$allocator@D@2@@std@@W4parameterType@@@std@@@2@$0A@@std@@@std@@QAE?AV?$_Tree_iterator@V?$_Tree_val@U?$_Tree_simple_types@U?$pair@$$CBV?$basic_string@DU?$char_traits@D@std@@V?$allocator@D@2@@std@@W4parameterType@@@std@@@std@@@std@@@2@V?$_Tree_const_iterator@V?$_Tree_val@U?$_Tree_simple_types@U?$pair@$$CBV?$basic_string@DU?$char_traits@D@std@@V?$allocator@D@2@@std@@W4parameterType@@@std@@@std@@@std@@@2@0@Z 10007160 f i pandamat.obj
 0001:00006160       ?erase@?$_Tree@V?$_Tmap_traits@V?$basic_string@DU?$char_traits@D@std@@V?$allocator@D@2@@std@@NU?$less@V?$basic_string@DU?$char_traits@D@std@@V?$allocator@D@2@@std@@@2@V?$allocator@U?$pair@$$CBV?$basic_string@DU?$char_traits@D@std@@V?$allocator@D@2@@std@@N@std@@@2@$0A@@std@@@std@@QAE?AV?$_Tree_iterator@V?$_Tree_val@U?$_Tree_simple_types@U?$pair@$$CBV?$basic_string@DU?$char_traits@D@std@@V?$allocator@D@2@@std@@N@std@@@std@@@std@@@2@V?$_Tree_const_iterator@V?$_Tree_val@U?$_Tree_simple_types@U?$pair@$$CBV?$basic_string@DU?$char_traits@D@std@@V?$allocator@D@2@@std@@N@std@@@std@@@std@@@2@0@Z 10007160 f i pandamat.obj
 0001:00006160       ?erase@?$_Tree@V?$_Tmap_traits@V?$basic_string@DU?$char_traits@D@std@@V?$allocator@D@2@@std@@_NU?$less@V?$basic_string@DU?$char_traits@D@std@@V?$allocator@D@2@@std@@@2@V?$allocator@U?$pair@$$CBV?$basic_string@DU?$char_traits@D@std@@V?$allocator@D@2@@std@@_N@std@@@2@$0A@@std@@@std@@QAE?AV?$_Tree_iterator@V?$_Tree_val@U?$_Tree_simple_types@U?$pair@$$CBV?$basic_string@DU?$char_traits@D@std@@V?$allocator@D@2@@std@@_N@std@@@std@@@std@@@2@V?$_Tree_const_iterator@V?$_Tree_val@U?$_Tree_simple_types@U?$pair@$$CBV?$basic_string@DU?$char_traits@D@std@@V?$allocator@D@2@@std@@_N@std@@@std@@@std@@@2@0@Z 10007160 f i pandamat.obj
 0001:00006220       ?erase@?$_Tree@V?$_Tmap_traits@V?$basic_string@DU?$char_traits@D@std@@V?$allocator@D@2@@std@@V12@U?$less@V?$basic_string@DU?$char_traits@D@std@@V?$allocator@D@2@@std@@@2@V?$allocator@U?$pair@$$CBV?$basic_string@DU?$char_traits@D@std@@V?$allocator@D@2@@std@@V12@@std@@@2@$0A@@std@@@std@@QAE?AV?$_Tree_iterator@V?$_Tree_val@U?$_Tree_simple_types@U?$pair@$$CBV?$basic_string@DU?$char_traits@D@std@@V?$allocator@D@2@@std@@V12@@std@@@std@@@std@@@2@V?$_Tree_const_iterator@V?$_Tree_val@U?$_Tree_simple_types@U?$pair@$$CBV?$basic_string@DU?$char_traits@D@std@@V?$allocator@D@2@@std@@V12@@std@@@std@@@std@@@2@0@Z 10007220 f i pandamat.obj
 0001:000062e0       ?erase@?$_Tree@V?$_Tmap_traits@V?$basic_string@DU?$char_traits@D@std@@V?$allocator@D@2@@std@@V?$Mat@N@arma@@U?$less@V?$basic_string@DU?$char_traits@D@std@@V?$allocator@D@2@@std@@@2@V?$allocator@U?$pair@$$CBV?$basic_string@DU?$char_traits@D@std@@V?$allocator@D@2@@std@@V?$Mat@N@arma@@@std@@@2@$0A@@std@@@std@@QAE?AV?$_Tree_iterator@V?$_Tree_val@U?$_Tree_simple_types@U?$pair@$$CBV?$basic_string@DU?$char_traits@D@std@@V?$allocator@D@2@@std@@V?$Mat@N@arma@@@std@@@std@@@std@@@2@V?$_Tree_const_iterator@V?$_Tree_val@U?$_Tree_simple_types@U?$pair@$$CBV?$basic_string@DU?$char_traits@D@std@@V?$allocator@D@2@@std@@V?$Mat@N@arma@@@std@@@std@@@std@@@2@0@Z 100072e0 f i pandamat.obj
 0001:000063a0       ??1_Sentry_base@?$basic_ostream@DU?$char_traits@D@std@@@std@@QAE@XZ 100073a0 f i pandamat.obj
 0001:000063c0       ?_Rep@?$num_put@DV?$ostreambuf_iterator@DU?$char_traits@D@std@@@std@@@std@@ABA?AV?$ostreambuf_iterator@DU?$char_traits@D@std@@@2@V32@DI@Z 100073c0 f i pandamat.obj
 0001:00006430       ?_Put@?$num_put@DV?$ostreambuf_iterator@DU?$char_traits@D@std@@@std@@@std@@ABA?AV?$ostreambuf_iterator@DU?$char_traits@D@std@@@2@V32@PBDI@Z 10007430 f i pandamat.obj
 0001:000064b0       ?_Iput@?$num_put@DV?$ostreambuf_iterator@DU?$char_traits@D@std@@@std@@@std@@ABA?AV?$ostreambuf_iterator@DU?$char_traits@D@std@@@2@V32@AAVios_base@2@DPADI@Z 100074b0 f i pandamat.obj
 0001:00006830       ?_Ifmt@?$num_put@DV?$ostreambuf_iterator@DU?$char_traits@D@std@@@std@@@std@@ABAPADPADPBDH@Z 10007830 f i pandamat.obj
 0001:000068c0       ?_Fput@?$num_put@DV?$ostreambuf_iterator@DU?$char_traits@D@std@@@std@@@std@@ABA?AV?$ostreambuf_iterator@DU?$char_traits@D@std@@@2@V32@AAVios_base@2@DPBDI@Z 100078c0 f i pandamat.obj
 0001:00006ca0       ?_Ffmt@?$num_put@DV?$ostreambuf_iterator@DU?$char_traits@D@std@@@std@@@std@@ABAPADPADDH@Z 10007ca0 f i pandamat.obj
 0001:00006d60       ?_Chassign@?$basic_string@DU?$char_traits@D@std@@V?$allocator@D@2@@std@@QAEXIID@Z 10007d60 f i pandamat.obj
 0001:00006db0       ?_Init@?$basic_streambuf@DU?$char_traits@D@std@@@std@@IAEXXZ 10007db0 f i pandamat.obj
 0001:00006e10       ??0?$basic_streambuf@DU?$char_traits@D@std@@@std@@IAE@XZ 10007e10 f i pandamat.obj
 0001:00006ed0       ??_G?$numpunct@D@std@@MAEPAXI@Z 10007ed0 f i pandamat.obj
 0001:00006ed0       ??_E?$numpunct@D@std@@MAEPAXI@Z 10007ed0 f i * CIL library *:* CIL module *
 0001:00006f20       ?grouping@?$numpunct@D@std@@QBE?AV?$basic_string@DU?$char_traits@D@std@@V?$allocator@D@2@@2@XZ 10007f20 f i pandamat.obj
 0001:00006f40       ?clear@?$_Tree@V?$_Tmap_traits@IPAVIsolate@v8@@U?$less@I@std@@V?$allocator@U?$pair@$$CBIPAVIsolate@v8@@@std@@@4@$0A@@std@@@std@@QAEXXZ 10007f40 f i pandamat.obj
 0001:00006f40       ?clear@?$_Tree@V?$_Tmap_traits@IW4parameterType@@U?$less@I@std@@V?$allocator@U?$pair@$$CBIW4parameterType@@@std@@@3@$0A@@std@@@std@@QAEXXZ 10007f40 f i pandamat.obj
 0001:00006f40       ?clear@?$_Tree@V?$_Tmap_traits@IW4exceptions@@U?$less@I@std@@V?$allocator@U?$pair@$$CBIW4exceptions@@@std@@@3@$0A@@std@@@std@@QAEXXZ 10007f40 f i pandamat.obj
 0001:00006f40       ?clear@?$_Tree@V?$_Tmap_traits@INU?$less@I@std@@V?$allocator@U?$pair@$$CBIN@std@@@2@$0A@@std@@@std@@QAEXXZ 10007f40 f i pandamat.obj
 0001:00006f40       ?clear@?$_Tree@V?$_Tmap_traits@I_NU?$less@I@std@@V?$allocator@U?$pair@$$CBI_N@std@@@2@$0A@@std@@@std@@QAEXXZ 10007f40 f i pandamat.obj
 0001:00006f90       ?erase@?$_Tree@V?$_Tmap_traits@IW4exceptions@@U?$less@I@std@@V?$allocator@U?$pair@$$CBIW4exceptions@@@std@@@3@$0A@@std@@@std@@QAE?AV?$_Tree_iterator@V?$_Tree_val@U?$_Tree_simple_types@U?$pair@$$CBIW4exceptions@@@std@@@std@@@std@@@2@V?$_Tree_const_iterator@V?$_Tree_val@U?$_Tree_simple_types@U?$pair@$$CBIW4exceptions@@@std@@@std@@@std@@@2@@Z 10007f90 f i pandamat.obj
 0001:00006f90       ?erase@?$_Tree@V?$_Tmap_traits@IPAVIsolate@v8@@U?$less@I@std@@V?$allocator@U?$pair@$$CBIPAVIsolate@v8@@@std@@@4@$0A@@std@@@std@@QAE?AV?$_Tree_iterator@V?$_Tree_val@U?$_Tree_simple_types@U?$pair@$$CBIPAVIsolate@v8@@@std@@@std@@@std@@@2@V?$_Tree_const_iterator@V?$_Tree_val@U?$_Tree_simple_types@U?$pair@$$CBIPAVIsolate@v8@@@std@@@std@@@std@@@2@@Z 10007f90 f i pandamat.obj
 0001:00006f90       ?erase@?$_Tree@V?$_Tmap_traits@IW4parameterType@@U?$less@I@std@@V?$allocator@U?$pair@$$CBIW4parameterType@@@std@@@3@$0A@@std@@@std@@QAE?AV?$_Tree_iterator@V?$_Tree_val@U?$_Tree_simple_types@U?$pair@$$CBIW4parameterType@@@std@@@std@@@std@@@2@V?$_Tree_const_iterator@V?$_Tree_val@U?$_Tree_simple_types@U?$pair@$$CBIW4parameterType@@@std@@@std@@@std@@@2@@Z 10007f90 f i pandamat.obj
 0001:00006f90       ?erase@?$_Tree@V?$_Tmap_traits@INU?$less@I@std@@V?$allocator@U?$pair@$$CBIN@std@@@2@$0A@@std@@@std@@QAE?AV?$_Tree_iterator@V?$_Tree_val@U?$_Tree_simple_types@U?$pair@$$CBIN@std@@@std@@@std@@@2@V?$_Tree_const_iterator@V?$_Tree_val@U?$_Tree_simple_types@U?$pair@$$CBIN@std@@@std@@@std@@@2@@Z 10007f90 f i pandamat.obj
 0001:00006f90       ?erase@?$_Tree@V?$_Tmap_traits@I_NU?$less@I@std@@V?$allocator@U?$pair@$$CBI_N@std@@@2@$0A@@std@@@std@@QAE?AV?$_Tree_iterator@V?$_Tree_val@U?$_Tree_simple_types@U?$pair@$$CBI_N@std@@@std@@@std@@@2@V?$_Tree_const_iterator@V?$_Tree_val@U?$_Tree_simple_types@U?$pair@$$CBI_N@std@@@std@@@std@@@2@@Z 10007f90 f i pandamat.obj
 0001:00007240       ?erase@?$_Tree@V?$_Tmap_traits@IV?$Mat@N@arma@@U?$less@I@std@@V?$allocator@U?$pair@$$CBIV?$Mat@N@arma@@@std@@@4@$0A@@std@@@std@@QAE?AV?$_Tree_iterator@V?$_Tree_val@U?$_Tree_simple_types@U?$pair@$$CBIV?$Mat@N@arma@@@std@@@std@@@std@@@2@V?$_Tree_const_iterator@V?$_Tree_val@U?$_Tree_simple_types@U?$pair@$$CBIV?$Mat@N@arma@@@std@@@std@@@std@@@2@@Z 10008240 f i pandamat.obj
 0001:00007540       ?clear@?$_Tree@V?$_Tmap_traits@IVAdd@@U?$less@I@std@@V?$allocator@U?$pair@$$CBIVAdd@@@std@@@3@$0A@@std@@@std@@QAEXXZ 10008540 f i pandamat.obj
 0001:00007540       ?clear@?$_Tree@V?$_Tmap_traits@IVDot@@U?$less@I@std@@V?$allocator@U?$pair@$$CBIVDot@@@std@@@3@$0A@@std@@@std@@QAEXXZ 10008540 f i pandamat.obj
 0001:00007540       ?clear@?$_Tree@V?$_Tmap_traits@IVTranspose@@U?$less@I@std@@V?$allocator@U?$pair@$$CBIVTranspose@@@std@@@3@$0A@@std@@@std@@QAEXXZ 10008540 f i pandamat.obj
 0001:00007540       ?clear@?$_Tree@V?$_Tmap_traits@IVNormalize@@U?$less@I@std@@V?$allocator@U?$pair@$$CBIVNormalize@@@std@@@3@$0A@@std@@@std@@QAEXXZ 10008540 f i pandamat.obj
 0001:00007540       ?clear@?$_Tree@V?$_Tmap_traits@IVSqrtDist@@U?$less@I@std@@V?$allocator@U?$pair@$$CBIVSqrtDist@@@std@@@3@$0A@@std@@@std@@QAEXXZ 10008540 f i pandamat.obj
 0001:00007590       ?erase@?$_Tree@V?$_Tmap_traits@IVAdd@@U?$less@I@std@@V?$allocator@U?$pair@$$CBIVAdd@@@std@@@3@$0A@@std@@@std@@QAE?AV?$_Tree_iterator@V?$_Tree_val@U?$_Tree_simple_types@U?$pair@$$CBIVAdd@@@std@@@std@@@std@@@2@V?$_Tree_const_iterator@V?$_Tree_val@U?$_Tree_simple_types@U?$pair@$$CBIVAdd@@@std@@@std@@@std@@@2@@Z 10008590 f i pandamat.obj
 0001:00007590       ?erase@?$_Tree@V?$_Tmap_traits@IVNormalize@@U?$less@I@std@@V?$allocator@U?$pair@$$CBIVNormalize@@@std@@@3@$0A@@std@@@std@@QAE?AV?$_Tree_iterator@V?$_Tree_val@U?$_Tree_simple_types@U?$pair@$$CBIVNormalize@@@std@@@std@@@std@@@2@V?$_Tree_const_iterator@V?$_Tree_val@U?$_Tree_simple_types@U?$pair@$$CBIVNormalize@@@std@@@std@@@std@@@2@@Z 10008590 f i pandamat.obj
 0001:00007590       ?erase@?$_Tree@V?$_Tmap_traits@IVTranspose@@U?$less@I@std@@V?$allocator@U?$pair@$$CBIVTranspose@@@std@@@3@$0A@@std@@@std@@QAE?AV?$_Tree_iterator@V?$_Tree_val@U?$_Tree_simple_types@U?$pair@$$CBIVTranspose@@@std@@@std@@@std@@@2@V?$_Tree_const_iterator@V?$_Tree_val@U?$_Tree_simple_types@U?$pair@$$CBIVTranspose@@@std@@@std@@@std@@@2@@Z 10008590 f i pandamat.obj
 0001:00007590       ?erase@?$_Tree@V?$_Tmap_traits@IVSqrtDist@@U?$less@I@std@@V?$allocator@U?$pair@$$CBIVSqrtDist@@@std@@@3@$0A@@std@@@std@@QAE?AV?$_Tree_iterator@V?$_Tree_val@U?$_Tree_simple_types@U?$pair@$$CBIVSqrtDist@@@std@@@std@@@std@@@2@V?$_Tree_const_iterator@V?$_Tree_val@U?$_Tree_simple_types@U?$pair@$$CBIVSqrtDist@@@std@@@std@@@std@@@2@@Z 10008590 f i pandamat.obj
 0001:00007590       ?erase@?$_Tree@V?$_Tmap_traits@IVDot@@U?$less@I@std@@V?$allocator@U?$pair@$$CBIVDot@@@std@@@3@$0A@@std@@@std@@QAE?AV?$_Tree_iterator@V?$_Tree_val@U?$_Tree_simple_types@U?$pair@$$CBIVDot@@@std@@@std@@@std@@@2@V?$_Tree_const_iterator@V?$_Tree_val@U?$_Tree_simple_types@U?$pair@$$CBIVDot@@@std@@@std@@@std@@@2@@Z 10008590 f i pandamat.obj
 0001:00007840       ?erase@?$_Tree@V?$_Tmap_traits@IV?$basic_string@DU?$char_traits@D@std@@V?$allocator@D@2@@std@@U?$less@I@2@V?$allocator@U?$pair@$$CBIV?$basic_string@DU?$char_traits@D@std@@V?$allocator@D@2@@std@@@std@@@2@$0A@@std@@@std@@QAE?AV?$_Tree_iterator@V?$_Tree_val@U?$_Tree_simple_types@U?$pair@$$CBIV?$basic_string@DU?$char_traits@D@std@@V?$allocator@D@2@@std@@@std@@@std@@@std@@@2@V?$_Tree_const_iterator@V?$_Tree_val@U?$_Tree_simple_types@U?$pair@$$CBIV?$basic_string@DU?$char_traits@D@std@@V?$allocator@D@2@@std@@@std@@@std@@@std@@@2@@Z 10008840 f i pandamat.obj
 0001:00007b50       ?erase@?$_Tree@V?$_Tmap_traits@V?$basic_string@DU?$char_traits@D@std@@V?$allocator@D@2@@std@@W4parameterType@@U?$less@V?$basic_string@DU?$char_traits@D@std@@V?$allocator@D@2@@std@@@2@V?$allocator@U?$pair@$$CBV?$basic_string@DU?$char_traits@D@std@@V?$allocator@D@2@@std@@W4parameterType@@@std@@@2@$0A@@std@@@std@@QAE?AV?$_Tree_iterator@V?$_Tree_val@U?$_Tree_simple_types@U?$pair@$$CBV?$basic_string@DU?$char_traits@D@std@@V?$allocator@D@2@@std@@W4parameterType@@@std@@@std@@@std@@@2@V?$_Tree_const_iterator@V?$_Tree_val@U?$_Tree_simple_types@U?$pair@$$CBV?$basic_string@DU?$char_traits@D@std@@V?$allocator@D@2@@std@@W4parameterType@@@std@@@std@@@std@@@2@@Z 10008b50 f i pandamat.obj
 0001:00007b50       ?erase@?$_Tree@V?$_Tmap_traits@V?$basic_string@DU?$char_traits@D@std@@V?$allocator@D@2@@std@@NU?$less@V?$basic_string@DU?$char_traits@D@std@@V?$allocator@D@2@@std@@@2@V?$allocator@U?$pair@$$CBV?$basic_string@DU?$char_traits@D@std@@V?$allocator@D@2@@std@@N@std@@@2@$0A@@std@@@std@@QAE?AV?$_Tree_iterator@V?$_Tree_val@U?$_Tree_simple_types@U?$pair@$$CBV?$basic_string@DU?$char_traits@D@std@@V?$allocator@D@2@@std@@N@std@@@std@@@std@@@2@V?$_Tree_const_iterator@V?$_Tree_val@U?$_Tree_simple_types@U?$pair@$$CBV?$basic_string@DU?$char_traits@D@std@@V?$allocator@D@2@@std@@N@std@@@std@@@std@@@2@@Z 10008b50 f i pandamat.obj
 0001:00007b50       ?erase@?$_Tree@V?$_Tmap_traits@V?$basic_string@DU?$char_traits@D@std@@V?$allocator@D@2@@std@@_NU?$less@V?$basic_string@DU?$char_traits@D@std@@V?$allocator@D@2@@std@@@2@V?$allocator@U?$pair@$$CBV?$basic_string@DU?$char_traits@D@std@@V?$allocator@D@2@@std@@_N@std@@@2@$0A@@std@@@std@@QAE?AV?$_Tree_iterator@V?$_Tree_val@U?$_Tree_simple_types@U?$pair@$$CBV?$basic_string@DU?$char_traits@D@std@@V?$allocator@D@2@@std@@_N@std@@@std@@@std@@@2@V?$_Tree_const_iterator@V?$_Tree_val@U?$_Tree_simple_types@U?$pair@$$CBV?$basic_string@DU?$char_traits@D@std@@V?$allocator@D@2@@std@@_N@std@@@std@@@std@@@2@@Z 10008b50 f i pandamat.obj
 0001:00007e60       ?erase@?$_Tree@V?$_Tmap_traits@V?$basic_string@DU?$char_traits@D@std@@V?$allocator@D@2@@std@@V12@U?$less@V?$basic_string@DU?$char_traits@D@std@@V?$allocator@D@2@@std@@@2@V?$allocator@U?$pair@$$CBV?$basic_string@DU?$char_traits@D@std@@V?$allocator@D@2@@std@@V12@@std@@@2@$0A@@std@@@std@@QAE?AV?$_Tree_iterator@V?$_Tree_val@U?$_Tree_simple_types@U?$pair@$$CBV?$basic_string@DU?$char_traits@D@std@@V?$allocator@D@2@@std@@V12@@std@@@std@@@std@@@2@V?$_Tree_const_iterator@V?$_Tree_val@U?$_Tree_simple_types@U?$pair@$$CBV?$basic_string@DU?$char_traits@D@std@@V?$allocator@D@2@@std@@V12@@std@@@std@@@std@@@2@@Z 10008e60 f i pandamat.obj
 0001:000081e0       ?erase@?$_Tree@V?$_Tmap_traits@V?$basic_string@DU?$char_traits@D@std@@V?$allocator@D@2@@std@@V?$Mat@N@arma@@U?$less@V?$basic_string@DU?$char_traits@D@std@@V?$allocator@D@2@@std@@@2@V?$allocator@U?$pair@$$CBV?$basic_string@DU?$char_traits@D@std@@V?$allocator@D@2@@std@@V?$Mat@N@arma@@@std@@@2@$0A@@std@@@std@@QAE?AV?$_Tree_iterator@V?$_Tree_val@U?$_Tree_simple_types@U?$pair@$$CBV?$basic_string@DU?$char_traits@D@std@@V?$allocator@D@2@@std@@V?$Mat@N@arma@@@std@@@std@@@std@@@2@V?$_Tree_const_iterator@V?$_Tree_val@U?$_Tree_simple_types@U?$pair@$$CBV?$basic_string@DU?$char_traits@D@std@@V?$allocator@D@2@@std@@V?$Mat@N@arma@@@std@@@std@@@std@@@2@@Z 100091e0 f i pandamat.obj
 0001:00008540       ?_Copy@?$basic_string@DU?$char_traits@D@std@@V?$allocator@D@2@@std@@QAEXII@Z 10009540 f i pandamat.obj
 0001:00008630       ?insert@?$basic_string@DU?$char_traits@D@std@@V?$allocator@D@2@@std@@QAEAAV12@IID@Z 10009630 f i pandamat.obj
 0001:00008730       ?widen@?$basic_ios@DU?$char_traits@D@std@@@std@@QBEDD@Z 10009730 f i pandamat.obj
 0001:000087d0       ?_Rrotate@?$_Tree@V?$_Tmap_traits@V?$basic_string@DU?$char_traits@D@std@@V?$allocator@D@2@@std@@_NU?$less@V?$basic_string@DU?$char_traits@D@std@@V?$allocator@D@2@@std@@@2@V?$allocator@U?$pair@$$CBV?$basic_string@DU?$char_traits@D@std@@V?$allocator@D@2@@std@@_N@std@@@2@$0A@@std@@@std@@IAEXPAU?$_Tree_node@U?$pair@$$CBV?$basic_string@DU?$char_traits@D@std@@V?$allocator@D@2@@std@@_N@std@@PAX@2@@Z 100097d0 f i pandamat.obj
 0001:000087d0       ?_Rrotate@?$_Tree@V?$_Tmap_traits@INU?$less@I@std@@V?$allocator@U?$pair@$$CBIN@std@@@2@$0A@@std@@@std@@IAEXPAU?$_Tree_node@U?$pair@$$CBIN@std@@PAX@2@@Z 100097d0 f i pandamat.obj
 0001:000087d0       ?_Rrotate@?$_Tree@V?$_Tmap_traits@V?$basic_string@DU?$char_traits@D@std@@V?$allocator@D@2@@std@@NU?$less@V?$basic_string@DU?$char_traits@D@std@@V?$allocator@D@2@@std@@@2@V?$allocator@U?$pair@$$CBV?$basic_string@DU?$char_traits@D@std@@V?$allocator@D@2@@std@@N@std@@@2@$0A@@std@@@std@@IAEXPAU?$_Tree_node@U?$pair@$$CBV?$basic_string@DU?$char_traits@D@std@@V?$allocator@D@2@@std@@N@std@@PAX@2@@Z 100097d0 f i pandamat.obj
 0001:000087d0       ?_Rrotate@?$_Tree@V?$_Tmap_traits@IVNormalize@@U?$less@I@std@@V?$allocator@U?$pair@$$CBIVNormalize@@@std@@@3@$0A@@std@@@std@@IAEXPAU?$_Tree_node@U?$pair@$$CBIVNormalize@@@std@@PAX@2@@Z 100097d0 f i pandamat.obj
 0001:000087d0       ?_Rrotate@?$_Tree@V?$_Tmap_traits@IV?$basic_string@DU?$char_traits@D@std@@V?$allocator@D@2@@std@@U?$less@I@2@V?$allocator@U?$pair@$$CBIV?$basic_string@DU?$char_traits@D@std@@V?$allocator@D@2@@std@@@std@@@2@$0A@@std@@@std@@IAEXPAU?$_Tree_node@U?$pair@$$CBIV?$basic_string@DU?$char_traits@D@std@@V?$allocator@D@2@@std@@@std@@PAX@2@@Z 100097d0 f i pandamat.obj
 0001:000087d0       ?_Rrotate@?$_Tree@V?$_Tmap_traits@IVTranspose@@U?$less@I@std@@V?$allocator@U?$pair@$$CBIVTranspose@@@std@@@3@$0A@@std@@@std@@IAEXPAU?$_Tree_node@U?$pair@$$CBIVTranspose@@@std@@PAX@2@@Z 100097d0 f i pandamat.obj
 0001:000087d0       ?_Rrotate@?$_Tree@V?$_Tmap_traits@IPAVIsolate@v8@@U?$less@I@std@@V?$allocator@U?$pair@$$CBIPAVIsolate@v8@@@std@@@4@$0A@@std@@@std@@IAEXPAU?$_Tree_node@U?$pair@$$CBIPAVIsolate@v8@@@std@@PAX@2@@Z 100097d0 f i pandamat.obj
 0001:000087d0       ?_Rrotate@?$_Tree@V?$_Tmap_traits@V?$basic_string@DU?$char_traits@D@std@@V?$allocator@D@2@@std@@V?$Mat@N@arma@@U?$less@V?$basic_string@DU?$char_traits@D@std@@V?$allocator@D@2@@std@@@2@V?$allocator@U?$pair@$$CBV?$basic_string@DU?$char_traits@D@std@@V?$allocator@D@2@@std@@V?$Mat@N@arma@@@std@@@2@$0A@@std@@@std@@IAEXPAU?$_Tree_node@U?$pair@$$CBV?$basic_string@DU?$char_traits@D@std@@V?$allocator@D@2@@std@@V?$Mat@N@arma@@@std@@PAX@2@@Z 100097d0 f i pandamat.obj
 0001:000087d0       ?_Rrotate@?$_Tree@V?$_Tmap_traits@V?$basic_string@DU?$char_traits@D@std@@V?$allocator@D@2@@std@@W4parameterType@@U?$less@V?$basic_string@DU?$char_traits@D@std@@V?$allocator@D@2@@std@@@2@V?$allocator@U?$pair@$$CBV?$basic_string@DU?$char_traits@D@std@@V?$allocator@D@2@@std@@W4parameterType@@@std@@@2@$0A@@std@@@std@@IAEXPAU?$_Tree_node@U?$pair@$$CBV?$basic_string@DU?$char_traits@D@std@@V?$allocator@D@2@@std@@W4parameterType@@@std@@PAX@2@@Z 100097d0 f i pandamat.obj
 0001:000087d0       ?_Rrotate@?$_Tree@V?$_Tmap_traits@IW4parameterType@@U?$less@I@std@@V?$allocator@U?$pair@$$CBIW4parameterType@@@std@@@3@$0A@@std@@@std@@IAEXPAU?$_Tree_node@U?$pair@$$CBIW4parameterType@@@std@@PAX@2@@Z 100097d0 f i pandamat.obj
 0001:000087d0       ?_Rrotate@?$_Tree@V?$_Tmap_traits@V?$basic_string@DU?$char_traits@D@std@@V?$allocator@D@2@@std@@V12@U?$less@V?$basic_string@DU?$char_traits@D@std@@V?$allocator@D@2@@std@@@2@V?$allocator@U?$pair@$$CBV?$basic_string@DU?$char_traits@D@std@@V?$allocator@D@2@@std@@V12@@std@@@2@$0A@@std@@@std@@IAEXPAU?$_Tree_node@U?$pair@$$CBV?$basic_string@DU?$char_traits@D@std@@V?$allocator@D@2@@std@@V12@@std@@PAX@2@@Z 100097d0 f i pandamat.obj
 0001:000087d0       ?_Rrotate@?$_Tree@V?$_Tmap_traits@I_NU?$less@I@std@@V?$allocator@U?$pair@$$CBI_N@std@@@2@$0A@@std@@@std@@IAEXPAU?$_Tree_node@U?$pair@$$CBI_N@std@@PAX@2@@Z 100097d0 f i pandamat.obj
 0001:000087d0       ?_Rrotate@?$_Tree@V?$_Tmap_traits@IVSqrtDist@@U?$less@I@std@@V?$allocator@U?$pair@$$CBIVSqrtDist@@@std@@@3@$0A@@std@@@std@@IAEXPAU?$_Tree_node@U?$pair@$$CBIVSqrtDist@@@std@@PAX@2@@Z 100097d0 f i pandamat.obj
 0001:000087d0       ?_Rrotate@?$_Tree@V?$_Tmap_traits@IVDot@@U?$less@I@std@@V?$allocator@U?$pair@$$CBIVDot@@@std@@@3@$0A@@std@@@std@@IAEXPAU?$_Tree_node@U?$pair@$$CBIVDot@@@std@@PAX@2@@Z 100097d0 f i pandamat.obj
 0001:000087d0       ?_Rrotate@?$_Tree@V?$_Tmap_traits@IW4exceptions@@U?$less@I@std@@V?$allocator@U?$pair@$$CBIW4exceptions@@@std@@@3@$0A@@std@@@std@@IAEXPAU?$_Tree_node@U?$pair@$$CBIW4exceptions@@@std@@PAX@2@@Z 100097d0 f i pandamat.obj
 0001:000087d0       ?_Rrotate@?$_Tree@V?$_Tmap_traits@IVAdd@@U?$less@I@std@@V?$allocator@U?$pair@$$CBIVAdd@@@std@@@3@$0A@@std@@@std@@IAEXPAU?$_Tree_node@U?$pair@$$CBIVAdd@@@std@@PAX@2@@Z 100097d0 f i pandamat.obj
 0001:000087d0       ?_Rrotate@?$_Tree@V?$_Tmap_traits@IV?$Mat@N@arma@@U?$less@I@std@@V?$allocator@U?$pair@$$CBIV?$Mat@N@arma@@@std@@@4@$0A@@std@@@std@@IAEXPAU?$_Tree_node@U?$pair@$$CBIV?$Mat@N@arma@@@std@@PAX@2@@Z 100097d0 f i pandamat.obj
 0001:00008830       ?_Lrotate@?$_Tree@V?$_Tmap_traits@IW4exceptions@@U?$less@I@std@@V?$allocator@U?$pair@$$CBIW4exceptions@@@std@@@3@$0A@@std@@@std@@IAEXPAU?$_Tree_node@U?$pair@$$CBIW4exceptions@@@std@@PAX@2@@Z 10009830 f i pandamat.obj
 0001:00008830       ?_Lrotate@?$_Tree@V?$_Tmap_traits@IV?$Mat@N@arma@@U?$less@I@std@@V?$allocator@U?$pair@$$CBIV?$Mat@N@arma@@@std@@@4@$0A@@std@@@std@@IAEXPAU?$_Tree_node@U?$pair@$$CBIV?$Mat@N@arma@@@std@@PAX@2@@Z 10009830 f i pandamat.obj
 0001:00008830       ?_Lrotate@?$_Tree@V?$_Tmap_traits@INU?$less@I@std@@V?$allocator@U?$pair@$$CBIN@std@@@2@$0A@@std@@@std@@IAEXPAU?$_Tree_node@U?$pair@$$CBIN@std@@PAX@2@@Z 10009830 f i pandamat.obj
 0001:00008830       ?_Lrotate@?$_Tree@V?$_Tmap_traits@IVAdd@@U?$less@I@std@@V?$allocator@U?$pair@$$CBIVAdd@@@std@@@3@$0A@@std@@@std@@IAEXPAU?$_Tree_node@U?$pair@$$CBIVAdd@@@std@@PAX@2@@Z 10009830 f i pandamat.obj
 0001:00008830       ?_Lrotate@?$_Tree@V?$_Tmap_traits@V?$basic_string@DU?$char_traits@D@std@@V?$allocator@D@2@@std@@V?$Mat@N@arma@@U?$less@V?$basic_string@DU?$char_traits@D@std@@V?$allocator@D@2@@std@@@2@V?$allocator@U?$pair@$$CBV?$basic_string@DU?$char_traits@D@std@@V?$allocator@D@2@@std@@V?$Mat@N@arma@@@std@@@2@$0A@@std@@@std@@IAEXPAU?$_Tree_node@U?$pair@$$CBV?$basic_string@DU?$char_traits@D@std@@V?$allocator@D@2@@std@@V?$Mat@N@arma@@@std@@PAX@2@@Z 10009830 f i pandamat.obj
 0001:00008830       ?_Lrotate@?$_Tree@V?$_Tmap_traits@IVTranspose@@U?$less@I@std@@V?$allocator@U?$pair@$$CBIVTranspose@@@std@@@3@$0A@@std@@@std@@IAEXPAU?$_Tree_node@U?$pair@$$CBIVTranspose@@@std@@PAX@2@@Z 10009830 f i pandamat.obj
 0001:00008830       ?_Lrotate@?$_Tree@V?$_Tmap_traits@V?$basic_string@DU?$char_traits@D@std@@V?$allocator@D@2@@std@@_NU?$less@V?$basic_string@DU?$char_traits@D@std@@V?$allocator@D@2@@std@@@2@V?$allocator@U?$pair@$$CBV?$basic_string@DU?$char_traits@D@std@@V?$allocator@D@2@@std@@_N@std@@@2@$0A@@std@@@std@@IAEXPAU?$_Tree_node@U?$pair@$$CBV?$basic_string@DU?$char_traits@D@std@@V?$allocator@D@2@@std@@_N@std@@PAX@2@@Z 10009830 f i pandamat.obj
 0001:00008830       ?_Lrotate@?$_Tree@V?$_Tmap_traits@IVNormalize@@U?$less@I@std@@V?$allocator@U?$pair@$$CBIVNormalize@@@std@@@3@$0A@@std@@@std@@IAEXPAU?$_Tree_node@U?$pair@$$CBIVNormalize@@@std@@PAX@2@@Z 10009830 f i pandamat.obj
 0001:00008830       ?_Lrotate@?$_Tree@V?$_Tmap_traits@V?$basic_string@DU?$char_traits@D@std@@V?$allocator@D@2@@std@@W4parameterType@@U?$less@V?$basic_string@DU?$char_traits@D@std@@V?$allocator@D@2@@std@@@2@V?$allocator@U?$pair@$$CBV?$basic_string@DU?$char_traits@D@std@@V?$allocator@D@2@@std@@W4parameterType@@@std@@@2@$0A@@std@@@std@@IAEXPAU?$_Tree_node@U?$pair@$$CBV?$basic_string@DU?$char_traits@D@std@@V?$allocator@D@2@@std@@W4parameterType@@@std@@PAX@2@@Z 10009830 f i pandamat.obj
 0001:00008830       ?_Lrotate@?$_Tree@V?$_Tmap_traits@IVDot@@U?$less@I@std@@V?$allocator@U?$pair@$$CBIVDot@@@std@@@3@$0A@@std@@@std@@IAEXPAU?$_Tree_node@U?$pair@$$CBIVDot@@@std@@PAX@2@@Z 10009830 f i pandamat.obj
 0001:00008830       ?_Lrotate@?$_Tree@V?$_Tmap_traits@IPAVIsolate@v8@@U?$less@I@std@@V?$allocator@U?$pair@$$CBIPAVIsolate@v8@@@std@@@4@$0A@@std@@@std@@IAEXPAU?$_Tree_node@U?$pair@$$CBIPAVIsolate@v8@@@std@@PAX@2@@Z 10009830 f i pandamat.obj
 0001:00008830       ?_Lrotate@?$_Tree@V?$_Tmap_traits@V?$basic_string@DU?$char_traits@D@std@@V?$allocator@D@2@@std@@V12@U?$less@V?$basic_string@DU?$char_traits@D@std@@V?$allocator@D@2@@std@@@2@V?$allocator@U?$pair@$$CBV?$basic_string@DU?$char_traits@D@std@@V?$allocator@D@2@@std@@V12@@std@@@2@$0A@@std@@@std@@IAEXPAU?$_Tree_node@U?$pair@$$CBV?$basic_string@DU?$char_traits@D@std@@V?$allocator@D@2@@std@@V12@@std@@PAX@2@@Z 10009830 f i pandamat.obj
 0001:00008830       ?_Lrotate@?$_Tree@V?$_Tmap_traits@I_NU?$less@I@std@@V?$allocator@U?$pair@$$CBI_N@std@@@2@$0A@@std@@@std@@IAEXPAU?$_Tree_node@U?$pair@$$CBI_N@std@@PAX@2@@Z 10009830 f i pandamat.obj
 0001:00008830       ?_Lrotate@?$_Tree@V?$_Tmap_traits@V?$basic_string@DU?$char_traits@D@std@@V?$allocator@D@2@@std@@NU?$less@V?$basic_string@DU?$char_traits@D@std@@V?$allocator@D@2@@std@@@2@V?$allocator@U?$pair@$$CBV?$basic_string@DU?$char_traits@D@std@@V?$allocator@D@2@@std@@N@std@@@2@$0A@@std@@@std@@IAEXPAU?$_Tree_node@U?$pair@$$CBV?$basic_string@DU?$char_traits@D@std@@V?$allocator@D@2@@std@@N@std@@PAX@2@@Z 10009830 f i pandamat.obj
 0001:00008830       ?_Lrotate@?$_Tree@V?$_Tmap_traits@IW4parameterType@@U?$less@I@std@@V?$allocator@U?$pair@$$CBIW4parameterType@@@std@@@3@$0A@@std@@@std@@IAEXPAU?$_Tree_node@U?$pair@$$CBIW4parameterType@@@std@@PAX@2@@Z 10009830 f i pandamat.obj
 0001:00008830       ?_Lrotate@?$_Tree@V?$_Tmap_traits@IV?$basic_string@DU?$char_traits@D@std@@V?$allocator@D@2@@std@@U?$less@I@2@V?$allocator@U?$pair@$$CBIV?$basic_string@DU?$char_traits@D@std@@V?$allocator@D@2@@std@@@std@@@2@$0A@@std@@@std@@IAEXPAU?$_Tree_node@U?$pair@$$CBIV?$basic_string@DU?$char_traits@D@std@@V?$allocator@D@2@@std@@@std@@PAX@2@@Z 10009830 f i pandamat.obj
 0001:00008830       ?_Lrotate@?$_Tree@V?$_Tmap_traits@IVSqrtDist@@U?$less@I@std@@V?$allocator@U?$pair@$$CBIVSqrtDist@@@std@@@3@$0A@@std@@@std@@IAEXPAU?$_Tree_node@U?$pair@$$CBIVSqrtDist@@@std@@PAX@2@@Z 10009830 f i pandamat.obj
 0001:00008880       ?_Erase@?$_Tree@V?$_Tmap_traits@INU?$less@I@std@@V?$allocator@U?$pair@$$CBIN@std@@@2@$0A@@std@@@std@@IAEXPAU?$_Tree_node@U?$pair@$$CBIN@std@@PAX@2@@Z 10009880 f i pandamat.obj
 0001:00008880       ?_Erase@?$_Tree@V?$_Tmap_traits@IPAVIsolate@v8@@U?$less@I@std@@V?$allocator@U?$pair@$$CBIPAVIsolate@v8@@@std@@@4@$0A@@std@@@std@@IAEXPAU?$_Tree_node@U?$pair@$$CBIPAVIsolate@v8@@@std@@PAX@2@@Z 10009880 f i pandamat.obj
 0001:00008880       ?_Erase@?$_Tree@V?$_Tmap_traits@IW4exceptions@@U?$less@I@std@@V?$allocator@U?$pair@$$CBIW4exceptions@@@std@@@3@$0A@@std@@@std@@IAEXPAU?$_Tree_node@U?$pair@$$CBIW4exceptions@@@std@@PAX@2@@Z 10009880 f i pandamat.obj
 0001:00008880       ?_Erase@?$_Tree@V?$_Tmap_traits@I_NU?$less@I@std@@V?$allocator@U?$pair@$$CBI_N@std@@@2@$0A@@std@@@std@@IAEXPAU?$_Tree_node@U?$pair@$$CBI_N@std@@PAX@2@@Z 10009880 f i pandamat.obj
 0001:00008880       ?_Erase@?$_Tree@V?$_Tmap_traits@IW4parameterType@@U?$less@I@std@@V?$allocator@U?$pair@$$CBIW4parameterType@@@std@@@3@$0A@@std@@@std@@IAEXPAU?$_Tree_node@U?$pair@$$CBIW4parameterType@@@std@@PAX@2@@Z 10009880 f i pandamat.obj
 0001:000088c0       ?_Erase@?$_Tree@V?$_Tmap_traits@IV?$Mat@N@arma@@U?$less@I@std@@V?$allocator@U?$pair@$$CBIV?$Mat@N@arma@@@std@@@4@$0A@@std@@@std@@IAEXPAU?$_Tree_node@U?$pair@$$CBIV?$Mat@N@arma@@@std@@PAX@2@@Z 100098c0 f i pandamat.obj
 0001:00008950       ?_Erase@?$_Tree@V?$_Tmap_traits@IVNormalize@@U?$less@I@std@@V?$allocator@U?$pair@$$CBIVNormalize@@@std@@@3@$0A@@std@@@std@@IAEXPAU?$_Tree_node@U?$pair@$$CBIVNormalize@@@std@@PAX@2@@Z 10009950 f i pandamat.obj
 0001:00008950       ?_Erase@?$_Tree@V?$_Tmap_traits@IVSqrtDist@@U?$less@I@std@@V?$allocator@U?$pair@$$CBIVSqrtDist@@@std@@@3@$0A@@std@@@std@@IAEXPAU?$_Tree_node@U?$pair@$$CBIVSqrtDist@@@std@@PAX@2@@Z 10009950 f i pandamat.obj
 0001:00008950       ?_Erase@?$_Tree@V?$_Tmap_traits@IVDot@@U?$less@I@std@@V?$allocator@U?$pair@$$CBIVDot@@@std@@@3@$0A@@std@@@std@@IAEXPAU?$_Tree_node@U?$pair@$$CBIVDot@@@std@@PAX@2@@Z 10009950 f i pandamat.obj
 0001:00008950       ?_Erase@?$_Tree@V?$_Tmap_traits@IVTranspose@@U?$less@I@std@@V?$allocator@U?$pair@$$CBIVTranspose@@@std@@@3@$0A@@std@@@std@@IAEXPAU?$_Tree_node@U?$pair@$$CBIVTranspose@@@std@@PAX@2@@Z 10009950 f i pandamat.obj
 0001:00008950       ?_Erase@?$_Tree@V?$_Tmap_traits@IVAdd@@U?$less@I@std@@V?$allocator@U?$pair@$$CBIVAdd@@@std@@@3@$0A@@std@@@std@@IAEXPAU?$_Tree_node@U?$pair@$$CBIVAdd@@@std@@PAX@2@@Z 10009950 f i pandamat.obj
 0001:00008990       ?_Erase@?$_Tree@V?$_Tmap_traits@IV?$basic_string@DU?$char_traits@D@std@@V?$allocator@D@2@@std@@U?$less@I@2@V?$allocator@U?$pair@$$CBIV?$basic_string@DU?$char_traits@D@std@@V?$allocator@D@2@@std@@@std@@@2@$0A@@std@@@std@@IAEXPAU?$_Tree_node@U?$pair@$$CBIV?$basic_string@DU?$char_traits@D@std@@V?$allocator@D@2@@std@@@std@@PAX@2@@Z 10009990 f i pandamat.obj
 0001:00008a20       ?_Erase@?$_Tree@V?$_Tmap_traits@V?$basic_string@DU?$char_traits@D@std@@V?$allocator@D@2@@std@@NU?$less@V?$basic_string@DU?$char_traits@D@std@@V?$allocator@D@2@@std@@@2@V?$allocator@U?$pair@$$CBV?$basic_string@DU?$char_traits@D@std@@V?$allocator@D@2@@std@@N@std@@@2@$0A@@std@@@std@@IAEXPAU?$_Tree_node@U?$pair@$$CBV?$basic_string@DU?$char_traits@D@std@@V?$allocator@D@2@@std@@N@std@@PAX@2@@Z 10009a20 f i pandamat.obj
 0001:00008a20       ?_Erase@?$_Tree@V?$_Tmap_traits@V?$basic_string@DU?$char_traits@D@std@@V?$allocator@D@2@@std@@_NU?$less@V?$basic_string@DU?$char_traits@D@std@@V?$allocator@D@2@@std@@@2@V?$allocator@U?$pair@$$CBV?$basic_string@DU?$char_traits@D@std@@V?$allocator@D@2@@std@@_N@std@@@2@$0A@@std@@@std@@IAEXPAU?$_Tree_node@U?$pair@$$CBV?$basic_string@DU?$char_traits@D@std@@V?$allocator@D@2@@std@@_N@std@@PAX@2@@Z 10009a20 f i pandamat.obj
 0001:00008a20       ?_Erase@?$_Tree@V?$_Tmap_traits@V?$basic_string@DU?$char_traits@D@std@@V?$allocator@D@2@@std@@W4parameterType@@U?$less@V?$basic_string@DU?$char_traits@D@std@@V?$allocator@D@2@@std@@@2@V?$allocator@U?$pair@$$CBV?$basic_string@DU?$char_traits@D@std@@V?$allocator@D@2@@std@@W4parameterType@@@std@@@2@$0A@@std@@@std@@IAEXPAU?$_Tree_node@U?$pair@$$CBV?$basic_string@DU?$char_traits@D@std@@V?$allocator@D@2@@std@@W4parameterType@@@std@@PAX@2@@Z 10009a20 f i pandamat.obj
 0001:00008ab0       ?_Erase@?$_Tree@V?$_Tmap_traits@V?$basic_string@DU?$char_traits@D@std@@V?$allocator@D@2@@std@@V12@U?$less@V?$basic_string@DU?$char_traits@D@std@@V?$allocator@D@2@@std@@@2@V?$allocator@U?$pair@$$CBV?$basic_string@DU?$char_traits@D@std@@V?$allocator@D@2@@std@@V12@@std@@@2@$0A@@std@@@std@@IAEXPAU?$_Tree_node@U?$pair@$$CBV?$basic_string@DU?$char_traits@D@std@@V?$allocator@D@2@@std@@V12@@std@@PAX@2@@Z 10009ab0 f i pandamat.obj
 0001:00008bc0       ?_Erase@?$_Tree@V?$_Tmap_traits@V?$basic_string@DU?$char_traits@D@std@@V?$allocator@D@2@@std@@V?$Mat@N@arma@@U?$less@V?$basic_string@DU?$char_traits@D@std@@V?$allocator@D@2@@std@@@2@V?$allocator@U?$pair@$$CBV?$basic_string@DU?$char_traits@D@std@@V?$allocator@D@2@@std@@V?$Mat@N@arma@@@std@@@2@$0A@@std@@@std@@IAEXPAU?$_Tree_node@U?$pair@$$CBV?$basic_string@DU?$char_traits@D@std@@V?$allocator@D@2@@std@@V?$Mat@N@arma@@@std@@PAX@2@@Z 10009bc0 f i pandamat.obj
 0001:00008cc0       ??E?$_Tree_unchecked_const_iterator@V?$_Tree_val@U?$_Tree_simple_types@U?$pair@$$CBIN@std@@@std@@@std@@U_Iterator_base0@2@@std@@QAEAAV01@XZ 10009cc0 f i pandamat.obj
 0001:00008cc0       ??E?$_Tree_unchecked_const_iterator@V?$_Tree_val@U?$_Tree_simple_types@U?$pair@$$CBIVSqrtDist@@@std@@@std@@@std@@U_Iterator_base0@2@@std@@QAEAAV01@XZ 10009cc0 f i pandamat.obj
 0001:00008cc0       ??E?$_Tree_unchecked_const_iterator@V?$_Tree_val@U?$_Tree_simple_types@U?$pair@$$CBIV?$basic_string@DU?$char_traits@D@std@@V?$allocator@D@2@@std@@@std@@@std@@@std@@U_Iterator_base0@2@@std@@QAEAAV01@XZ 10009cc0 f i pandamat.obj
 0001:00008cc0       ??E?$_Tree_unchecked_const_iterator@V?$_Tree_val@U?$_Tree_simple_types@U?$pair@$$CBIVTranspose@@@std@@@std@@@std@@U_Iterator_base0@2@@std@@QAEAAV01@XZ 10009cc0 f i pandamat.obj
 0001:00008cc0       ??E?$_Tree_unchecked_const_iterator@V?$_Tree_val@U?$_Tree_simple_types@U?$pair@$$CBIVNormalize@@@std@@@std@@@std@@U_Iterator_base0@2@@std@@QAEAAV01@XZ 10009cc0 f i pandamat.obj
 0001:00008cc0       ??E?$_Tree_unchecked_const_iterator@V?$_Tree_val@U?$_Tree_simple_types@U?$pair@$$CBV?$basic_string@DU?$char_traits@D@std@@V?$allocator@D@2@@std@@_N@std@@@std@@@std@@U_Iterator_base0@2@@std@@QAEAAV01@XZ 10009cc0 f i pandamat.obj
 0001:00008cc0       ??E?$_Tree_unchecked_const_iterator@V?$_Tree_val@U?$_Tree_simple_types@U?$pair@$$CBV?$basic_string@DU?$char_traits@D@std@@V?$allocator@D@2@@std@@N@std@@@std@@@std@@U_Iterator_base0@2@@std@@QAEAAV01@XZ 10009cc0 f i pandamat.obj
 0001:00008cc0       ??E?$_Tree_unchecked_const_iterator@V?$_Tree_val@U?$_Tree_simple_types@U?$pair@$$CBV?$basic_string@DU?$char_traits@D@std@@V?$allocator@D@2@@std@@V12@@std@@@std@@@std@@U_Iterator_base0@2@@std@@QAEAAV01@XZ 10009cc0 f i pandamat.obj
 0001:00008cc0       ??E?$_Tree_unchecked_const_iterator@V?$_Tree_val@U?$_Tree_simple_types@U?$pair@$$CBIPAVIsolate@v8@@@std@@@std@@@std@@U_Iterator_base0@2@@std@@QAEAAV01@XZ 10009cc0 f i pandamat.obj
 0001:00008cc0       ??E?$_Tree_unchecked_const_iterator@V?$_Tree_val@U?$_Tree_simple_types@U?$pair@$$CBIW4exceptions@@@std@@@std@@@std@@U_Iterator_base0@2@@std@@QAEAAV01@XZ 10009cc0 f i pandamat.obj
 0001:00008cc0       ??E?$_Tree_unchecked_const_iterator@V?$_Tree_val@U?$_Tree_simple_types@U?$pair@$$CBIV?$Mat@N@arma@@@std@@@std@@@std@@U_Iterator_base0@2@@std@@QAEAAV01@XZ 10009cc0 f i pandamat.obj
 0001:00008cc0       ??E?$_Tree_unchecked_const_iterator@V?$_Tree_val@U?$_Tree_simple_types@U?$pair@$$CBIW4parameterType@@@std@@@std@@@std@@U_Iterator_base0@2@@std@@QAEAAV01@XZ 10009cc0 f i pandamat.obj
 0001:00008cc0       ??E?$_Tree_unchecked_const_iterator@V?$_Tree_val@U?$_Tree_simple_types@U?$pair@$$CBI_N@std@@@std@@@std@@U_Iterator_base0@2@@std@@QAEAAV01@XZ 10009cc0 f i pandamat.obj
 0001:00008cc0       ??E?$_Tree_unchecked_const_iterator@V?$_Tree_val@U?$_Tree_simple_types@U?$pair@$$CBV?$basic_string@DU?$char_traits@D@std@@V?$allocator@D@2@@std@@V?$Mat@N@arma@@@std@@@std@@@std@@U_Iterator_base0@2@@std@@QAEAAV01@XZ 10009cc0 f i pandamat.obj
 0001:00008cc0       ??E?$_Tree_unchecked_const_iterator@V?$_Tree_val@U?$_Tree_simple_types@U?$pair@$$CBIVDot@@@std@@@std@@@std@@U_Iterator_base0@2@@std@@QAEAAV01@XZ 10009cc0 f i pandamat.obj
 0001:00008cc0       ??E?$_Tree_unchecked_const_iterator@V?$_Tree_val@U?$_Tree_simple_types@U?$pair@$$CBV?$basic_string@DU?$char_traits@D@std@@V?$allocator@D@2@@std@@W4parameterType@@@std@@@std@@@std@@U_Iterator_base0@2@@std@@QAEAAV01@XZ 10009cc0 f i pandamat.obj
 0001:00008cc0       ??E?$_Tree_unchecked_const_iterator@V?$_Tree_val@U?$_Tree_simple_types@U?$pair@$$CBIVAdd@@@std@@@std@@@std@@U_Iterator_base0@2@@std@@QAEAAV01@XZ 10009cc0 f i pandamat.obj
 0001:00008d10       ??$use_facet@V?$ctype@D@std@@@std@@YAABV?$ctype@D@0@ABVlocale@0@@Z 10009d10 f i pandamat.obj
 0001:00008e30       ??$_Immortalize@V_Iostream_error_category@std@@@std@@YAAAV_Iostream_error_category@0@XZ 10009e30 f i pandamat.obj
 0001:00008ea0       ??1?$Mat@N@arma@@QAE@XZ    10009ea0 f i pandamat.obj
 0001:00008f00       ??$?6U?$char_traits@D@std@@@std@@YAAAV?$basic_ostream@DU?$char_traits@D@std@@@0@AAV10@PBD@Z 10009f00 f i pandamat.obj
 0001:000091a0       ??$?6U?$char_traits@D@std@@@std@@YAAAV?$basic_ostream@DU?$char_traits@D@std@@@0@AAV10@D@Z 1000a1a0 f i pandamat.obj
 0001:00009450       ??$endl@DU?$char_traits@D@std@@@std@@YAAAV?$basic_ostream@DU?$char_traits@D@std@@@0@AAV10@@Z 1000a450 f i pandamat.obj
 0001:00009490       ??$num2str@I@@YA?AV?$basic_string@DU?$char_traits@D@std@@V?$allocator@D@2@@std@@I@Z 1000a490 f i pandamat.obj
 0001:00009530       ??$Set@VObject@v8@@@?$ReturnValue@VValue@v8@@@v8@@QAEXV?$Local@VObject@v8@@@1@@Z 1000a530 f i pandamat.obj
 0001:00009550       ??$use_facet@V?$num_put@DV?$ostreambuf_iterator@DU?$char_traits@D@std@@@std@@@std@@@std@@YAABV?$num_put@DV?$ostreambuf_iterator@DU?$char_traits@D@std@@@std@@@0@ABVlocale@0@@Z 1000a550 f i pandamat.obj
 0001:00009670       ??$use_facet@V?$numpunct@D@std@@@std@@YAABV?$numpunct@D@0@ABVlocale@0@@Z 1000a670 f i pandamat.obj
 0001:00009790       ??_D?$basic_ostringstream@DU?$char_traits@D@std@@V?$allocator@D@2@@std@@QAEXXZ 1000a790 f i pandamat.obj
 0001:000097b0       ?_Getcat@?$numpunct@D@std@@SAIPAPBVfacet@locale@2@PBV42@@Z 1000a7b0 f i pandamat.obj
 0001:00009870       ?_Getcat@?$num_put@DV?$ostreambuf_iterator@DU?$char_traits@D@std@@@std@@@std@@SAIPAPBVfacet@locale@2@PBV42@@Z 1000a870 f i pandamat.obj
 0001:00009920       ?str@?$basic_ostringstream@DU?$char_traits@D@std@@V?$allocator@D@2@@std@@QBE?AV?$basic_string@DU?$char_traits@D@std@@V?$allocator@D@2@@2@XZ 1000a920 f i pandamat.obj
 0001:00009940       ??1?$basic_ostringstream@DU?$char_traits@D@std@@V?$allocator@D@2@@std@@UAE@XZ 1000a940 f i pandamat.obj
 0001:000099c0       ??0?$basic_ostringstream@DU?$char_traits@D@std@@V?$allocator@D@2@@std@@QAE@H@Z 1000a9c0 f i pandamat.obj
 0001:00009ac0       ?sputn@?$basic_streambuf@DU?$char_traits@D@std@@@std@@QAE_JPBD_J@Z 1000aac0 f i pandamat.obj
 0001:00009ae0       ??_G?$basic_ostringstream@DU?$char_traits@D@std@@V?$allocator@D@2@@std@@UAEPAXI@Z 1000aae0 f i pandamat.obj
 0001:00009ae0       ??_E?$basic_ostringstream@DU?$char_traits@D@std@@V?$allocator@D@2@@std@@UAEPAXI@Z 1000aae0 f i * CIL library *:* CIL module *
 0001:00009b20       ?_Init@?$numpunct@D@std@@IAEXABV_Locinfo@2@_N@Z 1000ab20 f i pandamat.obj
 0001:00009c60       ??1?$pair@V?$basic_string@DU?$char_traits@D@std@@V?$allocator@D@2@@std@@V12@@std@@QAE@XZ 1000ac60 f i pandapool.obj
 0001:00009c60       ??1?$pair@$$CBV?$basic_string@DU?$char_traits@D@std@@V?$allocator@D@2@@std@@V12@@std@@QAE@XZ 1000ac60 f i pandamat.obj
 0001:00009cd0       ??1?$pair@V?$basic_string@DU?$char_traits@D@std@@V?$allocator@D@2@@std@@V?$Mat@N@arma@@@std@@QAE@XZ 1000acd0 f i pandapool.obj
 0001:00009cd0       ??1?$pair@$$CBV?$basic_string@DU?$char_traits@D@std@@V?$allocator@D@2@@std@@V?$Mat@N@arma@@@std@@QAE@XZ 1000acd0 f i pandamat.obj
 0001:00009d70       ??1Transpose@@QAE@XZ       1000ad70 f i pandamat.obj
 0001:00009d70       ??1Add@@QAE@XZ             1000ad70 f i pandamat.obj
 0001:00009d70       ??1Normalize@@QAE@XZ       1000ad70 f i pandamat.obj
 0001:00009d70       ??1SqrtDist@@QAE@XZ        1000ad70 f i pandamat.obj
 0001:00009d70       ??1Dot@@QAE@XZ             1000ad70 f i pandamat.obj
 0001:00009d78       ??_E?$basic_ostream@DU?$char_traits@D@std@@@std@@$4PPPPPPPM@A@AEPAXI@Z 1000ad78 f i pandamat.obj
 0001:00009d80       ??_E?$basic_ostringstream@DU?$char_traits@D@std@@V?$allocator@D@2@@std@@$4PPPPPPPM@A@AEPAXI@Z 1000ad80 f i pandamat.obj
 0001:00009d90       ??0exception@stdext@@QAE@ABV01@@Z 1000ad90 f i pandapool.obj
 0001:00009db0       ?_Doraise@bad_alloc@stdext@@MBEXXZ 1000adb0 f i pandapool.obj
 0001:00009dc0       ??0PandaPool@@QAE@XZ       1000adc0 f   pandapool.obj
 0001:0000a000       ?enter@PandaPool@@QAEIPAVIsolate@v8@@@Z 1000b000 f   pandapool.obj
 0001:0000a250       ?exit@PandaPool@@QAEXI@Z   1000b250 f   pandapool.obj
 0001:0000a3d0       ?setState@PandaPool@@QAEXIW4exceptions@@V?$basic_string@DU?$char_traits@D@std@@V?$allocator@D@2@@std@@@Z 1000b3d0 f   pandapool.obj
 0001:0000a470       ?packMessage@PandaPool@@QAE?AV?$basic_string@DU?$char_traits@D@std@@V?$allocator@D@2@@std@@I@Z 1000b470 f   pandapool.obj
 0001:0000a600       ?save@PandaPool@@QAE?AW4exceptions@@IV?$Local@VValue@v8@@@v8@@PBD@Z 1000b600 f   pandapool.obj
 0001:0000aaa0       ?saveResult@PandaPool@@QAE?AW4exceptions@@IPBD0@Z 1000baa0 f   pandapool.obj
 0001:0000af80       ?saveResult@PandaPool@@QAE?AW4exceptions@@IPBD@Z 1000bf80 f   pandapool.obj
 0001:0000b360       ?check@PandaPool@@QAE?AW4exceptions@@IPBD@Z 1000c360 f   pandapool.obj
 0001:0000b580       ?get@PandaPool@@QAE?AW4exceptions@@IPBD@Z 1000c580 f   pandapool.obj
 0001:0000b9b0       ??1?$pair@IV?$Mat@N@arma@@@std@@QAE@XZ 1000c9b0 f i pandapool.obj
 0001:0000b9b0       ??1?$eGlue@V?$Mat@N@arma@@V?$Op@V?$Mat@N@arma@@Vop_repmat@2@@2@Veglue_minus@2@@arma@@QAE@XZ 1000c9b0 f i normalize.obj
 0001:0000b9b0       ??1?$quasi_unwrap@V?$subview_col@N@arma@@@arma@@QAE@XZ 1000c9b0 f i normalize.obj
 0001:0000ba10       ?remove@PandaPool@@QAE?AW4exceptions@@IPBD@Z 1000ca10 f   pandapool.obj
 0001:0000bc80       ?send@PandaPool@@QAE?AW4exceptions@@IAAVOperationData@@W4parameterType@@PBD2@Z 1000cc80 f   pandapool.obj
 0001:0000bfb0       ?getType@PandaPool@@QAE?AW4parameterType@@V?$Local@VValue@v8@@@v8@@@Z 1000cfb0 f   pandapool.obj
 0001:0000c030       ?getResultMat@PandaPool@@QAE?AV?$Local@VArray@v8@@@v8@@I@Z 1000d030 f   pandapool.obj
 0001:0000c0d0       ?getResultValue@PandaPool@@QAE?AV?$Local@VNumber@v8@@@v8@@I@Z 1000d0d0 f   pandapool.obj
 0001:0000c170       ?getResultString@PandaPool@@QAE?AV?$Local@VString@v8@@@v8@@I@Z 1000d170 f   pandapool.obj
 0001:0000c250       ?getResultBool@PandaPool@@QAE?AV?$Local@VBoolean@v8@@@v8@@I@Z 1000d250 f   pandapool.obj
 0001:0000c2e0       ?getMat@PandaPool@@AAE?AV?$Mat@N@arma@@I@Z 1000d2e0 f   pandapool.obj
 0001:0000c340       ?getValue@PandaPool@@AAENI@Z 1000d340 f   pandapool.obj
 0001:0000c390       ?getString@PandaPool@@AAE?AV?$basic_string@DU?$char_traits@D@std@@V?$allocator@D@2@@std@@I@Z 1000d390 f   pandapool.obj
 0001:0000c410       ?getBool@PandaPool@@AAE_NI@Z 1000d410 f   pandapool.obj
 0001:0000c460       ?getResult@PandaPool@@QAE?AW4exceptions@@IAAVOperationData@@@Z 1000d460 f   pandapool.obj
 0001:0000c6e0       ?unpackArray@PandaPool@@AAEXIV?$Local@VValue@v8@@@v8@@AAV?$Mat@N@arma@@@Z 1000d6e0 f   pandapool.obj
 0001:0000cbe0       ?packArray@PandaPool@@AAEXIAAV?$Mat@N@arma@@AAV?$Local@VArray@v8@@@v8@@@Z 1000dbe0 f   pandapool.obj
 0001:0000cd30       ??0?$map@IW4parameterType@@U?$less@I@std@@V?$allocator@U?$pair@$$CBIW4parameterType@@@std@@@3@@std@@QAE@XZ 1000dd30 f i pandapool.obj
 0001:0000cd80       ?erase@?$_Tree@V?$_Tmap_traits@V?$basic_string@DU?$char_traits@D@std@@V?$allocator@D@2@@std@@W4parameterType@@U?$less@V?$basic_string@DU?$char_traits@D@std@@V?$allocator@D@2@@std@@@2@V?$allocator@U?$pair@$$CBV?$basic_string@DU?$char_traits@D@std@@V?$allocator@D@2@@std@@W4parameterType@@@std@@@2@$0A@@std@@@std@@QAEIABV?$basic_string@DU?$char_traits@D@std@@V?$allocator@D@2@@2@@Z 1000dd80 f i pandapool.obj
 0001:0000cdd0       ?at@?$map@V?$basic_string@DU?$char_traits@D@std@@V?$allocator@D@2@@std@@NU?$less@V?$basic_string@DU?$char_traits@D@std@@V?$allocator@D@2@@std@@@2@V?$allocator@U?$pair@$$CBV?$basic_string@DU?$char_traits@D@std@@V?$allocator@D@2@@std@@N@std@@@2@@std@@QAEAANABV?$basic_string@DU?$char_traits@D@std@@V?$allocator@D@2@@2@@Z 1000ddd0 f i pandapool.obj
 0001:0000cdd0       ?at@?$map@V?$basic_string@DU?$char_traits@D@std@@V?$allocator@D@2@@std@@V12@U?$less@V?$basic_string@DU?$char_traits@D@std@@V?$allocator@D@2@@std@@@2@V?$allocator@U?$pair@$$CBV?$basic_string@DU?$char_traits@D@std@@V?$allocator@D@2@@std@@V12@@std@@@2@@std@@QAEAAV?$basic_string@DU?$char_traits@D@std@@V?$allocator@D@2@@2@ABV32@@Z 1000ddd0 f i pandapool.obj
 0001:0000cdd0       ?at@?$map@V?$basic_string@DU?$char_traits@D@std@@V?$allocator@D@2@@std@@V?$Mat@N@arma@@U?$less@V?$basic_string@DU?$char_traits@D@std@@V?$allocator@D@2@@std@@@2@V?$allocator@U?$pair@$$CBV?$basic_string@DU?$char_traits@D@std@@V?$allocator@D@2@@std@@V?$Mat@N@arma@@@std@@@2@@std@@QAEAAV?$Mat@N@arma@@ABV?$basic_string@DU?$char_traits@D@std@@V?$allocator@D@2@@2@@Z 1000ddd0 f i pandapool.obj
 0001:0000cdd0       ?at@?$map@V?$basic_string@DU?$char_traits@D@std@@V?$allocator@D@2@@std@@_NU?$less@V?$basic_string@DU?$char_traits@D@std@@V?$allocator@D@2@@std@@@2@V?$allocator@U?$pair@$$CBV?$basic_string@DU?$char_traits@D@std@@V?$allocator@D@2@@std@@_N@std@@@2@@std@@QAEAA_NABV?$basic_string@DU?$char_traits@D@std@@V?$allocator@D@2@@2@@Z 1000ddd0 f i pandapool.obj
 0001:0000ce30       ?insert@?$basic_string@DU?$char_traits@D@std@@V?$allocator@D@2@@std@@QAEAAV12@IPBD@Z 1000de30 f i pandapool.obj
 0001:0000ce70       ??4?$basic_string@DU?$char_traits@D@std@@V?$allocator@D@2@@std@@QAEAAV01@PBD@Z 1000de70 f i pandapool.obj
 0001:0000ceb0       ?insert@?$basic_string@DU?$char_traits@D@std@@V?$allocator@D@2@@std@@QAEAAV12@IPBDI@Z 1000deb0 f i pandapool.obj
 0001:0000d000       ?insert@?$basic_string@DU?$char_traits@D@std@@V?$allocator@D@2@@std@@QAEAAV12@IABV12@II@Z 1000e000 f i pandapool.obj
 0001:0000d160       ??0?$Mat@N@arma@@QAE@ABV01@@Z 1000e160 f i pandapool.obj
 0001:0000d200       ??4?$Mat@N@arma@@QAEABV01@ABV01@@Z 1000e200 f i pandapool.obj
 0001:0000d290       ??$?6DU?$char_traits@D@std@@V?$allocator@D@1@@std@@YAAAV?$basic_ostream@DU?$char_traits@D@std@@@0@AAV10@ABV?$basic_string@DU?$char_traits@D@std@@V?$allocator@D@2@@0@@Z 1000e290 f i pandapool.obj
 0001:0000d4f0       ??$insert@U?$pair@IV?$basic_string@DU?$char_traits@D@std@@V?$allocator@D@2@@std@@@std@@X@?$map@IV?$basic_string@DU?$char_traits@D@std@@V?$allocator@D@2@@std@@U?$less@I@2@V?$allocator@U?$pair@$$CBIV?$basic_string@DU?$char_traits@D@std@@V?$allocator@D@2@@std@@@std@@@2@@std@@QAE?AU?$pair@V?$_Tree_iterator@V?$_Tree_val@U?$_Tree_simple_types@U?$pair@$$CBIV?$basic_string@DU?$char_traits@D@std@@V?$allocator@D@2@@std@@@std@@@std@@@std@@@std@@_N@1@$$QAU?$pair@IV?$basic_string@DU?$char_traits@D@std@@V?$allocator@D@2@@std@@@1@@Z 1000e4f0 f i pandapool.obj
 0001:0000d560       ??$?0AAPBDV?$Mat@N@arma@@X$0A@@?$pair@V?$basic_string@DU?$char_traits@D@std@@V?$allocator@D@2@@std@@V?$Mat@N@arma@@@std@@QAE@AAPBD$$QAV?$Mat@N@arma@@@Z 1000e560 f i pandapool.obj
 0001:0000d560       ??$?0AAPBDAAV?$Mat@N@arma@@X$0A@@?$pair@V?$basic_string@DU?$char_traits@D@std@@V?$allocator@D@2@@std@@V?$Mat@N@arma@@@std@@QAE@AAPBDAAV?$Mat@N@arma@@@Z 1000e560 f i pandapool.obj
 0001:0000d5f0       ??$insert@U?$pair@V?$basic_string@DU?$char_traits@D@std@@V?$allocator@D@2@@std@@V?$Mat@N@arma@@@std@@X@?$map@V?$basic_string@DU?$char_traits@D@std@@V?$allocator@D@2@@std@@V?$Mat@N@arma@@U?$less@V?$basic_string@DU?$char_traits@D@std@@V?$allocator@D@2@@std@@@2@V?$allocator@U?$pair@$$CBV?$basic_string@DU?$char_traits@D@std@@V?$allocator@D@2@@std@@V?$Mat@N@arma@@@std@@@2@@std@@QAE?AU?$pair@V?$_Tree_iterator@V?$_Tree_val@U?$_Tree_simple_types@U?$pair@$$CBV?$basic_string@DU?$char_traits@D@std@@V?$allocator@D@2@@std@@V?$Mat@N@arma@@@std@@@std@@@std@@@std@@_N@1@$$QAU?$pair@V?$basic_string@DU?$char_traits@D@std@@V?$allocator@D@2@@std@@V?$Mat@N@arma@@@1@@Z 1000e5f0 f i pandapool.obj
 0001:0000d620       ??$?0AAPBDW4parameterType@@X$0A@@?$pair@V?$basic_string@DU?$char_traits@D@std@@V?$allocator@D@2@@std@@W4parameterType@@@std@@QAE@AAPBD$$QAW4parameterType@@@Z 1000e620 f i pandapool.obj
 0001:0000d680       ??$insert@U?$pair@V?$basic_string@DU?$char_traits@D@std@@V?$allocator@D@2@@std@@W4parameterType@@@std@@X@?$map@V?$basic_string@DU?$char_traits@D@std@@V?$allocator@D@2@@std@@W4parameterType@@U?$less@V?$basic_string@DU?$char_traits@D@std@@V?$allocator@D@2@@std@@@2@V?$allocator@U?$pair@$$CBV?$basic_string@DU?$char_traits@D@std@@V?$allocator@D@2@@std@@W4parameterType@@@std@@@2@@std@@QAE?AU?$pair@V?$_Tree_iterator@V?$_Tree_val@U?$_Tree_simple_types@U?$pair@$$CBV?$basic_string@DU?$char_traits@D@std@@V?$allocator@D@2@@std@@W4parameterType@@@std@@@std@@@std@@@std@@_N@1@$$QAU?$pair@V?$basic_string@DU?$char_traits@D@std@@V?$allocator@D@2@@std@@W4parameterType@@@1@@Z 1000e680 f i pandapool.obj
 0001:0000d6f0       ??$?0AAPBDNX$0A@@?$pair@V?$basic_string@DU?$char_traits@D@std@@V?$allocator@D@2@@std@@N@std@@QAE@AAPBD$$QAN@Z 1000e6f0 f i pandapool.obj
 0001:0000d6f0       ??$?0AAPBDAANX$0A@@?$pair@V?$basic_string@DU?$char_traits@D@std@@V?$allocator@D@2@@std@@N@std@@QAE@AAPBDAAN@Z 1000e6f0 f i pandapool.obj
 0001:0000d750       ??$insert@U?$pair@V?$basic_string@DU?$char_traits@D@std@@V?$allocator@D@2@@std@@N@std@@X@?$map@V?$basic_string@DU?$char_traits@D@std@@V?$allocator@D@2@@std@@NU?$less@V?$basic_string@DU?$char_traits@D@std@@V?$allocator@D@2@@std@@@2@V?$allocator@U?$pair@$$CBV?$basic_string@DU?$char_traits@D@std@@V?$allocator@D@2@@std@@N@std@@@2@@std@@QAE?AU?$pair@V?$_Tree_iterator@V?$_Tree_val@U?$_Tree_simple_types@U?$pair@$$CBV?$basic_string@DU?$char_traits@D@std@@V?$allocator@D@2@@std@@N@std@@@std@@@std@@@std@@_N@1@$$QAU?$pair@V?$basic_string@DU?$char_traits@D@std@@V?$allocator@D@2@@std@@N@1@@Z 1000e750 f i pandapool.obj
 0001:0000d7c0       ??$?0AAPBDAAV?$basic_string@DU?$char_traits@D@std@@V?$allocator@D@2@@std@@X$0A@@?$pair@V?$basic_string@DU?$char_traits@D@std@@V?$allocator@D@2@@std@@V12@@std@@QAE@AAPBDAAV?$basic_string@DU?$char_traits@D@std@@V?$allocator@D@2@@1@@Z 1000e7c0 f i pandapool.obj
 0001:0000d860       ??$?0AAPBD_NX$0A@@?$pair@V?$basic_string@DU?$char_traits@D@std@@V?$allocator@D@2@@std@@_N@std@@QAE@AAPBD$$QA_N@Z 1000e860 f i pandapool.obj
 0001:0000d860       ??$?0AAPBDAA_NX$0A@@?$pair@V?$basic_string@DU?$char_traits@D@std@@V?$allocator@D@2@@std@@_N@std@@QAE@AAPBDAA_N@Z 1000e860 f i pandapool.obj
 0001:0000d8c0       ??$insert@U?$pair@V?$basic_string@DU?$char_traits@D@std@@V?$allocator@D@2@@std@@_N@std@@X@?$map@V?$basic_string@DU?$char_traits@D@std@@V?$allocator@D@2@@std@@_NU?$less@V?$basic_string@DU?$char_traits@D@std@@V?$allocator@D@2@@std@@@2@V?$allocator@U?$pair@$$CBV?$basic_string@DU?$char_traits@D@std@@V?$allocator@D@2@@std@@_N@std@@@2@@std@@QAE?AU?$pair@V?$_Tree_iterator@V?$_Tree_val@U?$_Tree_simple_types@U?$pair@$$CBV?$basic_string@DU?$char_traits@D@std@@V?$allocator@D@2@@std@@_N@std@@@std@@@std@@@std@@_N@1@$$QAU?$pair@V?$basic_string@DU?$char_traits@D@std@@V?$allocator@D@2@@std@@_N@1@@Z 1000e8c0 f i pandapool.obj
 0001:0000d930       ??$?HDU?$char_traits@D@std@@V?$allocator@D@1@@std@@YA?AV?$basic_string@DU?$char_traits@D@std@@V?$allocator@D@2@@0@PBD$$QAV10@@Z 1000e930 f i pandapool.obj
 0001:0000d980       ??$?HDU?$char_traits@D@std@@V?$allocator@D@1@@std@@YA?AV?$basic_string@DU?$char_traits@D@std@@V?$allocator@D@2@@0@$$QAV10@PBD@Z 1000e980 f i pandapool.obj
 0001:0000d9d0       ??$?0AAPBDV?$basic_string@DU?$char_traits@D@std@@V?$allocator@D@2@@std@@X$0A@@?$pair@V?$basic_string@DU?$char_traits@D@std@@V?$allocator@D@2@@std@@V12@@std@@QAE@AAPBD$$QAV?$basic_string@DU?$char_traits@D@std@@V?$allocator@D@2@@1@@Z 1000e9d0 f i pandapool.obj
 0001:0000da30       ??$insert@U?$pair@IN@std@@X@?$map@INU?$less@I@std@@V?$allocator@U?$pair@$$CBIN@std@@@2@@std@@QAE?AU?$pair@V?$_Tree_iterator@V?$_Tree_val@U?$_Tree_simple_types@U?$pair@$$CBIN@std@@@std@@@std@@@std@@_N@1@$$QAU?$pair@IN@1@@Z 1000ea30 f i pandapool.obj
 0001:0000daa0       ??$insert@U?$pair@I_N@std@@X@?$map@I_NU?$less@I@std@@V?$allocator@U?$pair@$$CBI_N@std@@@2@@std@@QAE?AU?$pair@V?$_Tree_iterator@V?$_Tree_val@U?$_Tree_simple_types@U?$pair@$$CBI_N@std@@@std@@@std@@@std@@_N@1@$$QAU?$pair@I_N@1@@Z 1000eaa0 f i pandapool.obj
 0001:0000db00       ??$num2str@H@@YA?AV?$basic_string@DU?$char_traits@D@std@@V?$allocator@D@2@@std@@H@Z 1000eb00 f i pandapool.obj
 0001:0000dba0       ??$?HDU?$char_traits@D@std@@V?$allocator@D@1@@std@@YA?AV?$basic_string@DU?$char_traits@D@std@@V?$allocator@D@2@@0@$$QAV10@0@Z 1000eba0 f i pandapool.obj
 0001:0000dc10       ??$_Lbound@V?$basic_string@DU?$char_traits@D@std@@V?$allocator@D@2@@std@@@?$_Tree@V?$_Tmap_traits@V?$basic_string@DU?$char_traits@D@std@@V?$allocator@D@2@@std@@V?$Mat@N@arma@@U?$less@V?$basic_string@DU?$char_traits@D@std@@V?$allocator@D@2@@std@@@2@V?$allocator@U?$pair@$$CBV?$basic_string@DU?$char_traits@D@std@@V?$allocator@D@2@@std@@V?$Mat@N@arma@@@std@@@2@$0A@@std@@@std@@IBEPAU?$_Tree_node@U?$pair@$$CBV?$basic_string@DU?$char_traits@D@std@@V?$allocator@D@2@@std@@V?$Mat@N@arma@@@std@@PAX@1@ABV?$basic_string@DU?$char_traits@D@std@@V?$allocator@D@2@@1@@Z 1000ec10 f i pandapool.obj
 0001:0000dc10       ??$_Lbound@V?$basic_string@DU?$char_traits@D@std@@V?$allocator@D@2@@std@@@?$_Tree@V?$_Tmap_traits@V?$basic_string@DU?$char_traits@D@std@@V?$allocator@D@2@@std@@V12@U?$less@V?$basic_string@DU?$char_traits@D@std@@V?$allocator@D@2@@std@@@2@V?$allocator@U?$pair@$$CBV?$basic_string@DU?$char_traits@D@std@@V?$allocator@D@2@@std@@V12@@std@@@2@$0A@@std@@@std@@IBEPAU?$_Tree_node@U?$pair@$$CBV?$basic_string@DU?$char_traits@D@std@@V?$allocator@D@2@@std@@V12@@std@@PAX@1@ABV?$basic_string@DU?$char_traits@D@std@@V?$allocator@D@2@@1@@Z 1000ec10 f i pandapool.obj
 0001:0000dc10       ??$_Lbound@V?$basic_string@DU?$char_traits@D@std@@V?$allocator@D@2@@std@@@?$_Tree@V?$_Tmap_traits@V?$basic_string@DU?$char_traits@D@std@@V?$allocator@D@2@@std@@_NU?$less@V?$basic_string@DU?$char_traits@D@std@@V?$allocator@D@2@@std@@@2@V?$allocator@U?$pair@$$CBV?$basic_string@DU?$char_traits@D@std@@V?$allocator@D@2@@std@@_N@std@@@2@$0A@@std@@@std@@IBEPAU?$_Tree_node@U?$pair@$$CBV?$basic_string@DU?$char_traits@D@std@@V?$allocator@D@2@@std@@_N@std@@PAX@1@ABV?$basic_string@DU?$char_traits@D@std@@V?$allocator@D@2@@1@@Z 1000ec10 f i pandapool.obj
 0001:0000dc10       ??$_Lbound@V?$basic_string@DU?$char_traits@D@std@@V?$allocator@D@2@@std@@@?$_Tree@V?$_Tmap_traits@V?$basic_string@DU?$char_traits@D@std@@V?$allocator@D@2@@std@@NU?$less@V?$basic_string@DU?$char_traits@D@std@@V?$allocator@D@2@@std@@@2@V?$allocator@U?$pair@$$CBV?$basic_string@DU?$char_traits@D@std@@V?$allocator@D@2@@std@@N@std@@@2@$0A@@std@@@std@@IBEPAU?$_Tree_node@U?$pair@$$CBV?$basic_string@DU?$char_traits@D@std@@V?$allocator@D@2@@std@@N@std@@PAX@1@ABV?$basic_string@DU?$char_traits@D@std@@V?$allocator@D@2@@1@@Z 1000ec10 f i pandapool.obj
 0001:0000dc10       ??$_Lbound@V?$basic_string@DU?$char_traits@D@std@@V?$allocator@D@2@@std@@@?$_Tree@V?$_Tmap_traits@V?$basic_string@DU?$char_traits@D@std@@V?$allocator@D@2@@std@@W4parameterType@@U?$less@V?$basic_string@DU?$char_traits@D@std@@V?$allocator@D@2@@std@@@2@V?$allocator@U?$pair@$$CBV?$basic_string@DU?$char_traits@D@std@@V?$allocator@D@2@@std@@W4parameterType@@@std@@@2@$0A@@std@@@std@@IBEPAU?$_Tree_node@U?$pair@$$CBV?$basic_string@DU?$char_traits@D@std@@V?$allocator@D@2@@std@@W4parameterType@@@std@@PAX@1@ABV?$basic_string@DU?$char_traits@D@std@@V?$allocator@D@2@@1@@Z 1000ec10 f i operationdata.obj
 0001:0000dce0       ??0logic_error@std@@QAE@ABV01@@Z 1000ece0 f i pandapool.obj
 0001:0000dd00       ??6?$basic_ostream@DU?$char_traits@D@std@@@std@@QAEAAV01@H@Z 1000ed00 f i pandapool.obj
 0001:0000de30       ?init_cold@?$Mat@N@arma@@IAEXXZ 1000ee30 f i pandapool.obj
 0001:0000df40       ?init_warm@?$Mat@N@arma@@IAEXII@Z 1000ef40 f i pandapool.obj
 0001:0000e130       ??$_Eqrange@I@?$_Tree@V?$_Tmap_traits@IVDot@@U?$less@I@std@@V?$allocator@U?$pair@$$CBIVDot@@@std@@@3@$0A@@std@@@std@@IBE?AU?$pair@V?$_Tree_const_iterator@V?$_Tree_val@U?$_Tree_simple_types@U?$pair@$$CBIVDot@@@std@@@std@@@std@@@std@@V12@@1@ABI@Z 1000f130 f i opercollection.obj
 0001:0000e130       ??$_Eqrange@I@?$_Tree@V?$_Tmap_traits@IPAVIsolate@v8@@U?$less@I@std@@V?$allocator@U?$pair@$$CBIPAVIsolate@v8@@@std@@@4@$0A@@std@@@std@@IBE?AU?$pair@V?$_Tree_const_iterator@V?$_Tree_val@U?$_Tree_simple_types@U?$pair@$$CBIPAVIsolate@v8@@@std@@@std@@@std@@@std@@V12@@1@ABI@Z 1000f130 f i pandapool.obj
 0001:0000e130       ??$_Eqrange@I@?$_Tree@V?$_Tmap_traits@IW4exceptions@@U?$less@I@std@@V?$allocator@U?$pair@$$CBIW4exceptions@@@std@@@3@$0A@@std@@@std@@IBE?AU?$pair@V?$_Tree_const_iterator@V?$_Tree_val@U?$_Tree_simple_types@U?$pair@$$CBIW4exceptions@@@std@@@std@@@std@@@std@@V12@@1@ABI@Z 1000f130 f i pandapool.obj
 0001:0000e130       ??$_Eqrange@I@?$_Tree@V?$_Tmap_traits@IVSqrtDist@@U?$less@I@std@@V?$allocator@U?$pair@$$CBIVSqrtDist@@@std@@@3@$0A@@std@@@std@@IBE?AU?$pair@V?$_Tree_const_iterator@V?$_Tree_val@U?$_Tree_simple_types@U?$pair@$$CBIVSqrtDist@@@std@@@std@@@std@@@std@@V12@@1@ABI@Z 1000f130 f i opercollection.obj
 0001:0000e130       ??$_Eqrange@I@?$_Tree@V?$_Tmap_traits@IVAdd@@U?$less@I@std@@V?$allocator@U?$pair@$$CBIVAdd@@@std@@@3@$0A@@std@@@std@@IBE?AU?$pair@V?$_Tree_const_iterator@V?$_Tree_val@U?$_Tree_simple_types@U?$pair@$$CBIVAdd@@@std@@@std@@@std@@@std@@V12@@1@ABI@Z 1000f130 f i opercollection.obj
 0001:0000e130       ??$_Eqrange@I@?$_Tree@V?$_Tmap_traits@I_NU?$less@I@std@@V?$allocator@U?$pair@$$CBI_N@std@@@2@$0A@@std@@@std@@IBE?AU?$pair@V?$_Tree_const_iterator@V?$_Tree_val@U?$_Tree_simple_types@U?$pair@$$CBI_N@std@@@std@@@std@@@std@@V12@@1@ABI@Z 1000f130 f i pandapool.obj
 0001:0000e130       ??$_Eqrange@I@?$_Tree@V?$_Tmap_traits@IVNormalize@@U?$less@I@std@@V?$allocator@U?$pair@$$CBIVNormalize@@@std@@@3@$0A@@std@@@std@@IBE?AU?$pair@V?$_Tree_const_iterator@V?$_Tree_val@U?$_Tree_simple_types@U?$pair@$$CBIVNormalize@@@std@@@std@@@std@@@std@@V12@@1@ABI@Z 1000f130 f i opercollection.obj
 0001:0000e130       ??$_Eqrange@I@?$_Tree@V?$_Tmap_traits@IV?$Mat@N@arma@@U?$less@I@std@@V?$allocator@U?$pair@$$CBIV?$Mat@N@arma@@@std@@@4@$0A@@std@@@std@@IBE?AU?$pair@V?$_Tree_const_iterator@V?$_Tree_val@U?$_Tree_simple_types@U?$pair@$$CBIV?$Mat@N@arma@@@std@@@std@@@std@@@std@@V12@@1@ABI@Z 1000f130 f i pandapool.obj
 0001:0000e130       ??$_Eqrange@I@?$_Tree@V?$_Tmap_traits@IV?$basic_string@DU?$char_traits@D@std@@V?$allocator@D@2@@std@@U?$less@I@2@V?$allocator@U?$pair@$$CBIV?$basic_string@DU?$char_traits@D@std@@V?$allocator@D@2@@std@@@std@@@2@$0A@@std@@@std@@IBE?AU?$pair@V?$_Tree_const_iterator@V?$_Tree_val@U?$_Tree_simple_types@U?$pair@$$CBIV?$basic_string@DU?$char_traits@D@std@@V?$allocator@D@2@@std@@@std@@@std@@@std@@@std@@V12@@1@ABI@Z 1000f130 f i pandapool.obj
 0001:0000e130       ??$_Eqrange@I@?$_Tree@V?$_Tmap_traits@IW4parameterType@@U?$less@I@std@@V?$allocator@U?$pair@$$CBIW4parameterType@@@std@@@3@$0A@@std@@@std@@IBE?AU?$pair@V?$_Tree_const_iterator@V?$_Tree_val@U?$_Tree_simple_types@U?$pair@$$CBIW4parameterType@@@std@@@std@@@std@@@std@@V12@@1@ABI@Z 1000f130 f i pandapool.obj
 0001:0000e130       ??$_Eqrange@I@?$_Tree@V?$_Tmap_traits@INU?$less@I@std@@V?$allocator@U?$pair@$$CBIN@std@@@2@$0A@@std@@@std@@IBE?AU?$pair@V?$_Tree_const_iterator@V?$_Tree_val@U?$_Tree_simple_types@U?$pair@$$CBIN@std@@@std@@@std@@@std@@V12@@1@ABI@Z 1000f130 f i pandapool.obj
 0001:0000e130       ??$_Eqrange@I@?$_Tree@V?$_Tmap_traits@IVTranspose@@U?$less@I@std@@V?$allocator@U?$pair@$$CBIVTranspose@@@std@@@3@$0A@@std@@@std@@IBE?AU?$pair@V?$_Tree_const_iterator@V?$_Tree_val@U?$_Tree_simple_types@U?$pair@$$CBIVTranspose@@@std@@@std@@@std@@@std@@V12@@1@ABI@Z 1000f130 f i opercollection.obj
 0001:0000e1b0       ??$_Eqrange@V?$basic_string@DU?$char_traits@D@std@@V?$allocator@D@2@@std@@@?$_Tree@V?$_Tmap_traits@V?$basic_string@DU?$char_traits@D@std@@V?$allocator@D@2@@std@@_NU?$less@V?$basic_string@DU?$char_traits@D@std@@V?$allocator@D@2@@std@@@2@V?$allocator@U?$pair@$$CBV?$basic_string@DU?$char_traits@D@std@@V?$allocator@D@2@@std@@_N@std@@@2@$0A@@std@@@std@@IBE?AU?$pair@V?$_Tree_const_iterator@V?$_Tree_val@U?$_Tree_simple_types@U?$pair@$$CBV?$basic_string@DU?$char_traits@D@std@@V?$allocator@D@2@@std@@_N@std@@@std@@@std@@@std@@V12@@1@ABV?$basic_string@DU?$char_traits@D@std@@V?$allocator@D@2@@1@@Z 1000f1b0 f i pandapool.obj
 0001:0000e1b0       ??$_Eqrange@V?$basic_string@DU?$char_traits@D@std@@V?$allocator@D@2@@std@@@?$_Tree@V?$_Tmap_traits@V?$basic_string@DU?$char_traits@D@std@@V?$allocator@D@2@@std@@W4parameterType@@U?$less@V?$basic_string@DU?$char_traits@D@std@@V?$allocator@D@2@@std@@@2@V?$allocator@U?$pair@$$CBV?$basic_string@DU?$char_traits@D@std@@V?$allocator@D@2@@std@@W4parameterType@@@std@@@2@$0A@@std@@@std@@IBE?AU?$pair@V?$_Tree_const_iterator@V?$_Tree_val@U?$_Tree_simple_types@U?$pair@$$CBV?$basic_string@DU?$char_traits@D@std@@V?$allocator@D@2@@std@@W4parameterType@@@std@@@std@@@std@@@std@@V12@@1@ABV?$basic_string@DU?$char_traits@D@std@@V?$allocator@D@2@@1@@Z 1000f1b0 f i pandapool.obj
 0001:0000e1b0       ??$_Eqrange@V?$basic_string@DU?$char_traits@D@std@@V?$allocator@D@2@@std@@@?$_Tree@V?$_Tmap_traits@V?$basic_string@DU?$char_traits@D@std@@V?$allocator@D@2@@std@@V12@U?$less@V?$basic_string@DU?$char_traits@D@std@@V?$allocator@D@2@@std@@@2@V?$allocator@U?$pair@$$CBV?$basic_string@DU?$char_traits@D@std@@V?$allocator@D@2@@std@@V12@@std@@@2@$0A@@std@@@std@@IBE?AU?$pair@V?$_Tree_const_iterator@V?$_Tree_val@U?$_Tree_simple_types@U?$pair@$$CBV?$basic_string@DU?$char_traits@D@std@@V?$allocator@D@2@@std@@V12@@std@@@std@@@std@@@std@@V12@@1@ABV?$basic_string@DU?$char_traits@D@std@@V?$allocator@D@2@@1@@Z 1000f1b0 f i pandapool.obj
 0001:0000e1b0       ??$_Eqrange@V?$basic_string@DU?$char_traits@D@std@@V?$allocator@D@2@@std@@@?$_Tree@V?$_Tmap_traits@V?$basic_string@DU?$char_traits@D@std@@V?$allocator@D@2@@std@@NU?$less@V?$basic_string@DU?$char_traits@D@std@@V?$allocator@D@2@@std@@@2@V?$allocator@U?$pair@$$CBV?$basic_string@DU?$char_traits@D@std@@V?$allocator@D@2@@std@@N@std@@@2@$0A@@std@@@std@@IBE?AU?$pair@V?$_Tree_const_iterator@V?$_Tree_val@U?$_Tree_simple_types@U?$pair@$$CBV?$basic_string@DU?$char_traits@D@std@@V?$allocator@D@2@@std@@N@std@@@std@@@std@@@std@@V12@@1@ABV?$basic_string@DU?$char_traits@D@std@@V?$allocator@D@2@@1@@Z 1000f1b0 f i pandapool.obj
 0001:0000e1b0       ??$_Eqrange@V?$basic_string@DU?$char_traits@D@std@@V?$allocator@D@2@@std@@@?$_Tree@V?$_Tmap_traits@V?$basic_string@DU?$char_traits@D@std@@V?$allocator@D@2@@std@@V?$Mat@N@arma@@U?$less@V?$basic_string@DU?$char_traits@D@std@@V?$allocator@D@2@@std@@@2@V?$allocator@U?$pair@$$CBV?$basic_string@DU?$char_traits@D@std@@V?$allocator@D@2@@std@@V?$Mat@N@arma@@@std@@@2@$0A@@std@@@std@@IBE?AU?$pair@V?$_Tree_const_iterator@V?$_Tree_val@U?$_Tree_simple_types@U?$pair@$$CBV?$basic_string@DU?$char_traits@D@std@@V?$allocator@D@2@@std@@V?$Mat@N@arma@@@std@@@std@@@std@@@std@@V12@@1@ABV?$basic_string@DU?$char_traits@D@std@@V?$allocator@D@2@@1@@Z 1000f1b0 f i pandapool.obj
 0001:0000e4f0       ??$emplace@U?$pair@V?$basic_string@DU?$char_traits@D@std@@V?$allocator@D@2@@std@@V12@@std@@@?$_Tree@V?$_Tmap_traits@V?$basic_string@DU?$char_traits@D@std@@V?$allocator@D@2@@std@@V12@U?$less@V?$basic_string@DU?$char_traits@D@std@@V?$allocator@D@2@@std@@@2@V?$allocator@U?$pair@$$CBV?$basic_string@DU?$char_traits@D@std@@V?$allocator@D@2@@std@@V12@@std@@@2@$0A@@std@@@std@@QAE?AU?$pair@V?$_Tree_iterator@V?$_Tree_val@U?$_Tree_simple_types@U?$pair@$$CBV?$basic_string@DU?$char_traits@D@std@@V?$allocator@D@2@@std@@V12@@std@@@std@@@std@@@std@@_N@1@$$QAU?$pair@V?$basic_string@DU?$char_traits@D@std@@V?$allocator@D@2@@std@@V12@@1@@Z 1000f4f0 f i pandapool.obj
 0001:0000e560       ??$_Try_emplace@ABI$$V@?$map@IW4exceptions@@U?$less@I@std@@V?$allocator@U?$pair@$$CBIW4exceptions@@@std@@@3@@std@@QAE?AU?$pair@V?$_Tree_iterator@V?$_Tree_val@U?$_Tree_simple_types@U?$pair@$$CBIW4exceptions@@@std@@@std@@@std@@@std@@_N@1@ABI@Z 1000f560 f i pandapool.obj
 0001:0000e560       ??$_Try_emplace@ABI$$V@?$map@IW4parameterType@@U?$less@I@std@@V?$allocator@U?$pair@$$CBIW4parameterType@@@std@@@3@@std@@QAE?AU?$pair@V?$_Tree_iterator@V?$_Tree_val@U?$_Tree_simple_types@U?$pair@$$CBIW4parameterType@@@std@@@std@@@std@@@std@@_N@1@ABI@Z 1000f560 f i pandapool.obj
 0001:0000e610       ??$_Try_emplace@ABI$$V@?$map@IV?$basic_string@DU?$char_traits@D@std@@V?$allocator@D@2@@std@@U?$less@I@2@V?$allocator@U?$pair@$$CBIV?$basic_string@DU?$char_traits@D@std@@V?$allocator@D@2@@std@@@std@@@2@@std@@QAE?AU?$pair@V?$_Tree_iterator@V?$_Tree_val@U?$_Tree_simple_types@U?$pair@$$CBIV?$basic_string@DU?$char_traits@D@std@@V?$allocator@D@2@@std@@@std@@@std@@@std@@@std@@_N@1@ABI@Z 1000f610 f i pandapool.obj
 0001:0000e6d0       ??$_Distance1@V?$_Tree_iterator@V?$_Tree_val@U?$_Tree_simple_types@U?$pair@$$CBV?$basic_string@DU?$char_traits@D@std@@V?$allocator@D@2@@std@@W4parameterType@@@std@@@std@@@std@@@std@@@std@@YAHV?$_Tree_iterator@V?$_Tree_val@U?$_Tree_simple_types@U?$pair@$$CBV?$basic_string@DU?$char_traits@D@std@@V?$allocator@D@2@@std@@W4parameterType@@@std@@@std@@@std@@@0@0Uinput_iterator_tag@0@@Z 1000f6d0 f i pandapool.obj
 0001:0000e740       ??$acquire@N@memory@arma@@SAPANI@Z 1000f740 f i pandapool.obj
 0001:0000e790       ??$copy_small@N@arrayops@arma@@SAXPANPBNI@Z 1000f790 f i pandapool.obj
 0001:0000e890       ??$_Insert_nohint@AAU?$pair@$$CBIW4exceptions@@@std@@PAU?$_Tree_node@U?$pair@$$CBIW4exceptions@@@std@@PAX@2@@?$_Tree@V?$_Tmap_traits@IW4exceptions@@U?$less@I@std@@V?$allocator@U?$pair@$$CBIW4exceptions@@@std@@@3@$0A@@std@@@std@@IAE?AU?$pair@V?$_Tree_iterator@V?$_Tree_val@U?$_Tree_simple_types@U?$pair@$$CBIW4exceptions@@@std@@@std@@@std@@@std@@_N@1@_NAAU?$pair@$$CBIW4exceptions@@@1@PAU?$_Tree_node@U?$pair@$$CBIW4exceptions@@@std@@PAX@1@@Z 1000f890 f i pandapool.obj
 0001:0000e890       ??$_Insert_nohint@AAU?$pair@$$CBI_N@std@@PAU?$_Tree_node@U?$pair@$$CBI_N@std@@PAX@2@@?$_Tree@V?$_Tmap_traits@I_NU?$less@I@std@@V?$allocator@U?$pair@$$CBI_N@std@@@2@$0A@@std@@@std@@IAE?AU?$pair@V?$_Tree_iterator@V?$_Tree_val@U?$_Tree_simple_types@U?$pair@$$CBI_N@std@@@std@@@std@@@std@@_N@1@_NAAU?$pair@$$CBI_N@1@PAU?$_Tree_node@U?$pair@$$CBI_N@std@@PAX@1@@Z 1000f890 f i pandapool.obj
 0001:0000e890       ??$_Insert_nohint@AAU?$pair@$$CBIPAVIsolate@v8@@@std@@PAU?$_Tree_node@U?$pair@$$CBIPAVIsolate@v8@@@std@@PAX@2@@?$_Tree@V?$_Tmap_traits@IPAVIsolate@v8@@U?$less@I@std@@V?$allocator@U?$pair@$$CBIPAVIsolate@v8@@@std@@@4@$0A@@std@@@std@@IAE?AU?$pair@V?$_Tree_iterator@V?$_Tree_val@U?$_Tree_simple_types@U?$pair@$$CBIPAVIsolate@v8@@@std@@@std@@@std@@@std@@_N@1@_NAAU?$pair@$$CBIPAVIsolate@v8@@@1@PAU?$_Tree_node@U?$pair@$$CBIPAVIsolate@v8@@@std@@PAX@1@@Z 1000f890 f i pandapool.obj
 0001:0000e890       ??$_Insert_nohint@AAU?$pair@$$CBIW4parameterType@@@std@@PAU?$_Tree_node@U?$pair@$$CBIW4parameterType@@@std@@PAX@2@@?$_Tree@V?$_Tmap_traits@IW4parameterType@@U?$less@I@std@@V?$allocator@U?$pair@$$CBIW4parameterType@@@std@@@3@$0A@@std@@@std@@IAE?AU?$pair@V?$_Tree_iterator@V?$_Tree_val@U?$_Tree_simple_types@U?$pair@$$CBIW4parameterType@@@std@@@std@@@std@@@std@@_N@1@_NAAU?$pair@$$CBIW4parameterType@@@1@PAU?$_Tree_node@U?$pair@$$CBIW4parameterType@@@std@@PAX@1@@Z 1000f890 f i pandapool.obj
 0001:0000e950       ??$_Insert_nohint@AAU?$pair@$$CBIV?$basic_string@DU?$char_traits@D@std@@V?$allocator@D@2@@std@@@std@@PAU?$_Tree_node@U?$pair@$$CBIV?$basic_string@DU?$char_traits@D@std@@V?$allocator@D@2@@std@@@std@@PAX@2@@?$_Tree@V?$_Tmap_traits@IV?$basic_string@DU?$char_traits@D@std@@V?$allocator@D@2@@std@@U?$less@I@2@V?$allocator@U?$pair@$$CBIV?$basic_string@DU?$char_traits@D@std@@V?$allocator@D@2@@std@@@std@@@2@$0A@@std@@@std@@IAE?AU?$pair@V?$_Tree_iterator@V?$_Tree_val@U?$_Tree_simple_types@U?$pair@$$CBIV?$basic_string@DU?$char_traits@D@std@@V?$allocator@D@2@@std@@@std@@@std@@@std@@@std@@_N@1@_NAAU?$pair@$$CBIV?$basic_string@DU?$char_traits@D@std@@V?$allocator@D@2@@std@@@1@PAU?$_Tree_node@U?$pair@$$CBIV?$basic_string@DU?$char_traits@D@std@@V?$allocator@D@2@@std@@@std@@PAX@1@@Z 1000f950 f i pandapool.obj
 0001:0000ea10       ??$_Buynode@U?$pair@V?$basic_string@DU?$char_traits@D@std@@V?$allocator@D@2@@std@@V?$Mat@N@arma@@@std@@@?$_Tree_comp_alloc@V?$_Tmap_traits@V?$basic_string@DU?$char_traits@D@std@@V?$allocator@D@2@@std@@V?$Mat@N@arma@@U?$less@V?$basic_string@DU?$char_traits@D@std@@V?$allocator@D@2@@std@@@2@V?$allocator@U?$pair@$$CBV?$basic_string@DU?$char_traits@D@std@@V?$allocator@D@2@@std@@V?$Mat@N@arma@@@std@@@2@$0A@@std@@@std@@QAEPAU?$_Tree_node@U?$pair@$$CBV?$basic_string@DU?$char_traits@D@std@@V?$allocator@D@2@@std@@V?$Mat@N@arma@@@std@@PAX@1@$$QAU?$pair@V?$basic_string@DU?$char_traits@D@std@@V?$allocator@D@2@@std@@V?$Mat@N@arma@@@1@@Z 1000fa10 f i pandapool.obj
 0001:0000eac0       ??$_Insert_nohint@AAU?$pair@$$CBV?$basic_string@DU?$char_traits@D@std@@V?$allocator@D@2@@std@@V?$Mat@N@arma@@@std@@PAU?$_Tree_node@U?$pair@$$CBV?$basic_string@DU?$char_traits@D@std@@V?$allocator@D@2@@std@@V?$Mat@N@arma@@@std@@PAX@2@@?$_Tree@V?$_Tmap_traits@V?$basic_string@DU?$char_traits@D@std@@V?$allocator@D@2@@std@@V?$Mat@N@arma@@U?$less@V?$basic_string@DU?$char_traits@D@std@@V?$allocator@D@2@@std@@@2@V?$allocator@U?$pair@$$CBV?$basic_string@DU?$char_traits@D@std@@V?$allocator@D@2@@std@@V?$Mat@N@arma@@@std@@@2@$0A@@std@@@std@@IAE?AU?$pair@V?$_Tree_iterator@V?$_Tree_val@U?$_Tree_simple_types@U?$pair@$$CBV?$basic_string@DU?$char_traits@D@std@@V?$allocator@D@2@@std@@V?$Mat@N@arma@@@std@@@std@@@std@@@std@@_N@1@_NAAU?$pair@$$CBV?$basic_string@DU?$char_traits@D@std@@V?$allocator@D@2@@std@@V?$Mat@N@arma@@@1@PAU?$_Tree_node@U?$pair@$$CBV?$basic_string@DU?$char_traits@D@std@@V?$allocator@D@2@@std@@V?$Mat@N@arma@@@std@@PAX@1@@Z 1000fac0 f i pandapool.obj
 0001:0000ec60       ??$_Insert_nohint@AAU?$pair@$$CBV?$basic_string@DU?$char_traits@D@std@@V?$allocator@D@2@@std@@_N@std@@PAU?$_Tree_node@U?$pair@$$CBV?$basic_string@DU?$char_traits@D@std@@V?$allocator@D@2@@std@@_N@std@@PAX@2@@?$_Tree@V?$_Tmap_traits@V?$basic_string@DU?$char_traits@D@std@@V?$allocator@D@2@@std@@_NU?$less@V?$basic_string@DU?$char_traits@D@std@@V?$allocator@D@2@@std@@@2@V?$allocator@U?$pair@$$CBV?$basic_string@DU?$char_traits@D@std@@V?$allocator@D@2@@std@@_N@std@@@2@$0A@@std@@@std@@IAE?AU?$pair@V?$_Tree_iterator@V?$_Tree_val@U?$_Tree_simple_types@U?$pair@$$CBV?$basic_string@DU?$char_traits@D@std@@V?$allocator@D@2@@std@@_N@std@@@std@@@std@@@std@@_N@1@_NAAU?$pair@$$CBV?$basic_string@DU?$char_traits@D@std@@V?$allocator@D@2@@std@@_N@1@PAU?$_Tree_node@U?$pair@$$CBV?$basic_string@DU?$char_traits@D@std@@V?$allocator@D@2@@std@@_N@std@@PAX@1@@Z 1000fc60 f i pandapool.obj
 0001:0000ec60       ??$_Insert_nohint@AAU?$pair@$$CBV?$basic_string@DU?$char_traits@D@std@@V?$allocator@D@2@@std@@W4parameterType@@@std@@PAU?$_Tree_node@U?$pair@$$CBV?$basic_string@DU?$char_traits@D@std@@V?$allocator@D@2@@std@@W4parameterType@@@std@@PAX@2@@?$_Tree@V?$_Tmap_traits@V?$basic_string@DU?$char_traits@D@std@@V?$allocator@D@2@@std@@W4parameterType@@U?$less@V?$basic_string@DU?$char_traits@D@std@@V?$allocator@D@2@@std@@@2@V?$allocator@U?$pair@$$CBV?$basic_string@DU?$char_traits@D@std@@V?$allocator@D@2@@std@@W4parameterType@@@std@@@2@$0A@@std@@@std@@IAE?AU?$pair@V?$_Tree_iterator@V?$_Tree_val@U?$_Tree_simple_types@U?$pair@$$CBV?$basic_string@DU?$char_traits@D@std@@V?$allocator@D@2@@std@@W4parameterType@@@std@@@std@@@std@@@std@@_N@1@_NAAU?$pair@$$CBV?$basic_string@DU?$char_traits@D@std@@V?$allocator@D@2@@std@@W4parameterType@@@1@PAU?$_Tree_node@U?$pair@$$CBV?$basic_string@DU?$char_traits@D@std@@V?$allocator@D@2@@std@@W4parameterType@@@std@@PAX@1@@Z 1000fc60 f i pandapool.obj
 0001:0000edf0       ??$_Insert_nohint@AAU?$pair@$$CBV?$basic_string@DU?$char_traits@D@std@@V?$allocator@D@2@@std@@N@std@@PAU?$_Tree_node@U?$pair@$$CBV?$basic_string@DU?$char_traits@D@std@@V?$allocator@D@2@@std@@N@std@@PAX@2@@?$_Tree@V?$_Tmap_traits@V?$basic_string@DU?$char_traits@D@std@@V?$allocator@D@2@@std@@NU?$less@V?$basic_string@DU?$char_traits@D@std@@V?$allocator@D@2@@std@@@2@V?$allocator@U?$pair@$$CBV?$basic_string@DU?$char_traits@D@std@@V?$allocator@D@2@@std@@N@std@@@2@$0A@@std@@@std@@IAE?AU?$pair@V?$_Tree_iterator@V?$_Tree_val@U?$_Tree_simple_types@U?$pair@$$CBV?$basic_string@DU?$char_traits@D@std@@V?$allocator@D@2@@std@@N@std@@@std@@@std@@@std@@_N@1@_NAAU?$pair@$$CBV?$basic_string@DU?$char_traits@D@std@@V?$allocator@D@2@@std@@N@1@PAU?$_Tree_node@U?$pair@$$CBV?$basic_string@DU?$char_traits@D@std@@V?$allocator@D@2@@std@@N@std@@PAX@1@@Z 1000fdf0 f i pandapool.obj
 0001:0000ef80       ??$_Insert_nohint@AAU?$pair@$$CBV?$basic_string@DU?$char_traits@D@std@@V?$allocator@D@2@@std@@V12@@std@@PAU?$_Tree_node@U?$pair@$$CBV?$basic_string@DU?$char_traits@D@std@@V?$allocator@D@2@@std@@V12@@std@@PAX@2@@?$_Tree@V?$_Tmap_traits@V?$basic_string@DU?$char_traits@D@std@@V?$allocator@D@2@@std@@V12@U?$less@V?$basic_string@DU?$char_traits@D@std@@V?$allocator@D@2@@std@@@2@V?$allocator@U?$pair@$$CBV?$basic_string@DU?$char_traits@D@std@@V?$allocator@D@2@@std@@V12@@std@@@2@$0A@@std@@@std@@IAE?AU?$pair@V?$_Tree_iterator@V?$_Tree_val@U?$_Tree_simple_types@U?$pair@$$CBV?$basic_string@DU?$char_traits@D@std@@V?$allocator@D@2@@std@@V12@@std@@@std@@@std@@@std@@_N@1@_NAAU?$pair@$$CBV?$basic_string@DU?$char_traits@D@std@@V?$allocator@D@2@@std@@V12@@1@PAU?$_Tree_node@U?$pair@$$CBV?$basic_string@DU?$char_traits@D@std@@V?$allocator@D@2@@std@@V12@@std@@PAX@1@@Z 1000ff80 f i pandapool.obj
 0001:0000f120       ??$_Buynode@U?$pair@IV?$Mat@N@arma@@@std@@@?$_Tree_comp_alloc@V?$_Tmap_traits@IV?$Mat@N@arma@@U?$less@I@std@@V?$allocator@U?$pair@$$CBIV?$Mat@N@arma@@@std@@@4@$0A@@std@@@std@@QAEPAU?$_Tree_node@U?$pair@$$CBIV?$Mat@N@arma@@@std@@PAX@1@$$QAU?$pair@IV?$Mat@N@arma@@@1@@Z 10010120 f i pandapool.obj
 0001:0000f1c0       ??$_Insert_nohint@AAU?$pair@$$CBIV?$Mat@N@arma@@@std@@PAU?$_Tree_node@U?$pair@$$CBIV?$Mat@N@arma@@@std@@PAX@2@@?$_Tree@V?$_Tmap_traits@IV?$Mat@N@arma@@U?$less@I@std@@V?$allocator@U?$pair@$$CBIV?$Mat@N@arma@@@std@@@4@$0A@@std@@@std@@IAE?AU?$pair@V?$_Tree_iterator@V?$_Tree_val@U?$_Tree_simple_types@U?$pair@$$CBIV?$Mat@N@arma@@@std@@@std@@@std@@@std@@_N@1@_NAAU?$pair@$$CBIV?$Mat@N@arma@@@1@PAU?$_Tree_node@U?$pair@$$CBIV?$Mat@N@arma@@@std@@PAX@1@@Z 100101c0 f i pandapool.obj
 0001:0000f2b0       ??$_Insert_nohint@AAU?$pair@$$CBIN@std@@PAU?$_Tree_node@U?$pair@$$CBIN@std@@PAX@2@@?$_Tree@V?$_Tmap_traits@INU?$less@I@std@@V?$allocator@U?$pair@$$CBIN@std@@@2@$0A@@std@@@std@@IAE?AU?$pair@V?$_Tree_iterator@V?$_Tree_val@U?$_Tree_simple_types@U?$pair@$$CBIN@std@@@std@@@std@@@std@@_N@1@_NAAU?$pair@$$CBIN@1@PAU?$_Tree_node@U?$pair@$$CBIN@std@@PAX@1@@Z 100102b0 f i pandapool.obj
 0001:0000f370       ?_Destroy_if_not_nil@?$_Tree@V?$_Tmap_traits@IV?$Mat@N@arma@@U?$less@I@std@@V?$allocator@U?$pair@$$CBIV?$Mat@N@arma@@@std@@@4@$0A@@std@@@std@@IAEXPAU?$_Tree_node@U?$pair@$$CBIV?$Mat@N@arma@@@std@@PAX@2@@Z 10010370 f i pandapool.obj
 0001:0000f3d0       ?_Destroy_if_not_nil@?$_Tree@V?$_Tmap_traits@IV?$basic_string@DU?$char_traits@D@std@@V?$allocator@D@2@@std@@U?$less@I@2@V?$allocator@U?$pair@$$CBIV?$basic_string@DU?$char_traits@D@std@@V?$allocator@D@2@@std@@@std@@@2@$0A@@std@@@std@@IAEXPAU?$_Tree_node@U?$pair@$$CBIV?$basic_string@DU?$char_traits@D@std@@V?$allocator@D@2@@std@@@std@@PAX@2@@Z 100103d0 f i pandapool.obj
 0001:0000f420       ?_Destroy_if_not_nil@?$_Tree@V?$_Tmap_traits@V?$basic_string@DU?$char_traits@D@std@@V?$allocator@D@2@@std@@_NU?$less@V?$basic_string@DU?$char_traits@D@std@@V?$allocator@D@2@@std@@@2@V?$allocator@U?$pair@$$CBV?$basic_string@DU?$char_traits@D@std@@V?$allocator@D@2@@std@@_N@std@@@2@$0A@@std@@@std@@IAEXPAU?$_Tree_node@U?$pair@$$CBV?$basic_string@DU?$char_traits@D@std@@V?$allocator@D@2@@std@@_N@std@@PAX@2@@Z 10010420 f i pandapool.obj
 0001:0000f420       ?_Destroy_if_not_nil@?$_Tree@V?$_Tmap_traits@V?$basic_string@DU?$char_traits@D@std@@V?$allocator@D@2@@std@@W4parameterType@@U?$less@V?$basic_string@DU?$char_traits@D@std@@V?$allocator@D@2@@std@@@2@V?$allocator@U?$pair@$$CBV?$basic_string@DU?$char_traits@D@std@@V?$allocator@D@2@@std@@W4parameterType@@@std@@@2@$0A@@std@@@std@@IAEXPAU?$_Tree_node@U?$pair@$$CBV?$basic_string@DU?$char_traits@D@std@@V?$allocator@D@2@@std@@W4parameterType@@@std@@PAX@2@@Z 10010420 f i pandapool.obj
 0001:0000f420       ?_Destroy_if_not_nil@?$_Tree@V?$_Tmap_traits@V?$basic_string@DU?$char_traits@D@std@@V?$allocator@D@2@@std@@NU?$less@V?$basic_string@DU?$char_traits@D@std@@V?$allocator@D@2@@std@@@2@V?$allocator@U?$pair@$$CBV?$basic_string@DU?$char_traits@D@std@@V?$allocator@D@2@@std@@N@std@@@2@$0A@@std@@@std@@IAEXPAU?$_Tree_node@U?$pair@$$CBV?$basic_string@DU?$char_traits@D@std@@V?$allocator@D@2@@std@@N@std@@PAX@2@@Z 10010420 f i pandapool.obj
 0001:0000f470       ??F?$_Tree_unchecked_const_iterator@V?$_Tree_val@U?$_Tree_simple_types@U?$pair@$$CBIW4exceptions@@@std@@@std@@@std@@U_Iterator_base0@2@@std@@QAEAAV01@XZ 10010470 f i pandapool.obj
 0001:0000f470       ??F?$_Tree_unchecked_const_iterator@V?$_Tree_val@U?$_Tree_simple_types@U?$pair@$$CBIV?$Mat@N@arma@@@std@@@std@@@std@@U_Iterator_base0@2@@std@@QAEAAV01@XZ 10010470 f i pandapool.obj
 0001:0000f470       ??F?$_Tree_unchecked_const_iterator@V?$_Tree_val@U?$_Tree_simple_types@U?$pair@$$CBV?$basic_string@DU?$char_traits@D@std@@V?$allocator@D@2@@std@@V?$Mat@N@arma@@@std@@@std@@@std@@U_Iterator_base0@2@@std@@QAEAAV01@XZ 10010470 f i pandapool.obj
 0001:0000f470       ??F?$_Tree_unchecked_const_iterator@V?$_Tree_val@U?$_Tree_simple_types@U?$pair@$$CBIVSqrtDist@@@std@@@std@@@std@@U_Iterator_base0@2@@std@@QAEAAV01@XZ 10010470 f i opercollection.obj
 0001:0000f470       ??F?$_Tree_unchecked_const_iterator@V?$_Tree_val@U?$_Tree_simple_types@U?$pair@$$CBIVNormalize@@@std@@@std@@@std@@U_Iterator_base0@2@@std@@QAEAAV01@XZ 10010470 f i opercollection.obj
 0001:0000f470       ??F?$_Tree_unchecked_const_iterator@V?$_Tree_val@U?$_Tree_simple_types@U?$pair@$$CBIN@std@@@std@@@std@@U_Iterator_base0@2@@std@@QAEAAV01@XZ 10010470 f i pandapool.obj
 0001:0000f470       ??F?$_Tree_unchecked_const_iterator@V?$_Tree_val@U?$_Tree_simple_types@U?$pair@$$CBV?$basic_string@DU?$char_traits@D@std@@V?$allocator@D@2@@std@@V12@@std@@@std@@@std@@U_Iterator_base0@2@@std@@QAEAAV01@XZ 10010470 f i pandapool.obj
 0001:0000f470       ??F?$_Tree_unchecked_const_iterator@V?$_Tree_val@U?$_Tree_simple_types@U?$pair@$$CBIVTranspose@@@std@@@std@@@std@@U_Iterator_base0@2@@std@@QAEAAV01@XZ 10010470 f i opercollection.obj
 0001:0000f470       ??F?$_Tree_unchecked_const_iterator@V?$_Tree_val@U?$_Tree_simple_types@U?$pair@$$CBIPAVIsolate@v8@@@std@@@std@@@std@@U_Iterator_base0@2@@std@@QAEAAV01@XZ 10010470 f i pandapool.obj
 0001:0000f470       ??F?$_Tree_unchecked_const_iterator@V?$_Tree_val@U?$_Tree_simple_types@U?$pair@$$CBIVAdd@@@std@@@std@@@std@@U_Iterator_base0@2@@std@@QAEAAV01@XZ 10010470 f i opercollection.obj
 0001:0000f470       ??F?$_Tree_unchecked_const_iterator@V?$_Tree_val@U?$_Tree_simple_types@U?$pair@$$CBV?$basic_string@DU?$char_traits@D@std@@V?$allocator@D@2@@std@@W4parameterType@@@std@@@std@@@std@@U_Iterator_base0@2@@std@@QAEAAV01@XZ 10010470 f i pandapool.obj
 0001:0000f470       ??F?$_Tree_unchecked_const_iterator@V?$_Tree_val@U?$_Tree_simple_types@U?$pair@$$CBIV?$basic_string@DU?$char_traits@D@std@@V?$allocator@D@2@@std@@@std@@@std@@@std@@U_Iterator_base0@2@@std@@QAEAAV01@XZ 10010470 f i pandapool.obj
 0001:0000f470       ??F?$_Tree_unchecked_const_iterator@V?$_Tree_val@U?$_Tree_simple_types@U?$pair@$$CBV?$basic_string@DU?$char_traits@D@std@@V?$allocator@D@2@@std@@N@std@@@std@@@std@@U_Iterator_base0@2@@std@@QAEAAV01@XZ 10010470 f i pandapool.obj
 0001:0000f470       ??F?$_Tree_unchecked_const_iterator@V?$_Tree_val@U?$_Tree_simple_types@U?$pair@$$CBIW4parameterType@@@std@@@std@@@std@@U_Iterator_base0@2@@std@@QAEAAV01@XZ 10010470 f i pandapool.obj
 0001:0000f470       ??F?$_Tree_unchecked_const_iterator@V?$_Tree_val@U?$_Tree_simple_types@U?$pair@$$CBIVDot@@@std@@@std@@@std@@U_Iterator_base0@2@@std@@QAEAAV01@XZ 10010470 f i opercollection.obj
 0001:0000f470       ??F?$_Tree_unchecked_const_iterator@V?$_Tree_val@U?$_Tree_simple_types@U?$pair@$$CBI_N@std@@@std@@@std@@U_Iterator_base0@2@@std@@QAEAAV01@XZ 10010470 f i pandapool.obj
 0001:0000f470       ??F?$_Tree_unchecked_const_iterator@V?$_Tree_val@U?$_Tree_simple_types@U?$pair@$$CBV?$basic_string@DU?$char_traits@D@std@@V?$allocator@D@2@@std@@_N@std@@@std@@@std@@U_Iterator_base0@2@@std@@QAEAAV01@XZ 10010470 f i pandapool.obj
 0001:0000f520       ??$_Insert_at@AAU?$pair@$$CBI_N@std@@PAU?$_Tree_node@U?$pair@$$CBI_N@std@@PAX@2@@?$_Tree@V?$_Tmap_traits@I_NU?$less@I@std@@V?$allocator@U?$pair@$$CBI_N@std@@@2@$0A@@std@@@std@@IAE?AV?$_Tree_iterator@V?$_Tree_val@U?$_Tree_simple_types@U?$pair@$$CBI_N@std@@@std@@@std@@@1@_NPAU?$_Tree_node@U?$pair@$$CBI_N@std@@PAX@1@AAU?$pair@$$CBI_N@1@1@Z 10010520 f i pandapool.obj
 0001:0000f520       ??$_Insert_at@AAU?$pair@$$CBIW4exceptions@@@std@@PAU?$_Tree_node@U?$pair@$$CBIW4exceptions@@@std@@PAX@2@@?$_Tree@V?$_Tmap_traits@IW4exceptions@@U?$less@I@std@@V?$allocator@U?$pair@$$CBIW4exceptions@@@std@@@3@$0A@@std@@@std@@IAE?AV?$_Tree_iterator@V?$_Tree_val@U?$_Tree_simple_types@U?$pair@$$CBIW4exceptions@@@std@@@std@@@std@@@1@_NPAU?$_Tree_node@U?$pair@$$CBIW4exceptions@@@std@@PAX@1@AAU?$pair@$$CBIW4exceptions@@@1@1@Z 10010520 f i pandapool.obj
 0001:0000f520       ??$_Insert_at@AAU?$pair@$$CBIPAVIsolate@v8@@@std@@PAU?$_Tree_node@U?$pair@$$CBIPAVIsolate@v8@@@std@@PAX@2@@?$_Tree@V?$_Tmap_traits@IPAVIsolate@v8@@U?$less@I@std@@V?$allocator@U?$pair@$$CBIPAVIsolate@v8@@@std@@@4@$0A@@std@@@std@@IAE?AV?$_Tree_iterator@V?$_Tree_val@U?$_Tree_simple_types@U?$pair@$$CBIPAVIsolate@v8@@@std@@@std@@@std@@@1@_NPAU?$_Tree_node@U?$pair@$$CBIPAVIsolate@v8@@@std@@PAX@1@AAU?$pair@$$CBIPAVIsolate@v8@@@1@1@Z 10010520 f i pandapool.obj
 0001:0000f520       ??$_Insert_at@AAU?$pair@$$CBIW4parameterType@@@std@@PAU?$_Tree_node@U?$pair@$$CBIW4parameterType@@@std@@PAX@2@@?$_Tree@V?$_Tmap_traits@IW4parameterType@@U?$less@I@std@@V?$allocator@U?$pair@$$CBIW4parameterType@@@std@@@3@$0A@@std@@@std@@IAE?AV?$_Tree_iterator@V?$_Tree_val@U?$_Tree_simple_types@U?$pair@$$CBIW4parameterType@@@std@@@std@@@std@@@1@_NPAU?$_Tree_node@U?$pair@$$CBIW4parameterType@@@std@@PAX@1@AAU?$pair@$$CBIW4parameterType@@@1@1@Z 10010520 f i pandapool.obj
 0001:0000f700       ??$_Insert_at@AAU?$pair@$$CBIV?$basic_string@DU?$char_traits@D@std@@V?$allocator@D@2@@std@@@std@@PAU?$_Tree_node@U?$pair@$$CBIV?$basic_string@DU?$char_traits@D@std@@V?$allocator@D@2@@std@@@std@@PAX@2@@?$_Tree@V?$_Tmap_traits@IV?$basic_string@DU?$char_traits@D@std@@V?$allocator@D@2@@std@@U?$less@I@2@V?$allocator@U?$pair@$$CBIV?$basic_string@DU?$char_traits@D@std@@V?$allocator@D@2@@std@@@std@@@2@$0A@@std@@@std@@IAE?AV?$_Tree_iterator@V?$_Tree_val@U?$_Tree_simple_types@U?$pair@$$CBIV?$basic_string@DU?$char_traits@D@std@@V?$allocator@D@2@@std@@@std@@@std@@@std@@@1@_NPAU?$_Tree_node@U?$pair@$$CBIV?$basic_string@DU?$char_traits@D@std@@V?$allocator@D@2@@std@@@std@@PAX@1@AAU?$pair@$$CBIV?$basic_string@DU?$char_traits@D@std@@V?$allocator@D@2@@std@@@1@1@Z 10010700 f i pandapool.obj
 0001:0000f910       ??$_Insert_at@AAU?$pair@$$CBV?$basic_string@DU?$char_traits@D@std@@V?$allocator@D@2@@std@@V?$Mat@N@arma@@@std@@PAU?$_Tree_node@U?$pair@$$CBV?$basic_string@DU?$char_traits@D@std@@V?$allocator@D@2@@std@@V?$Mat@N@arma@@@std@@PAX@2@@?$_Tree@V?$_Tmap_traits@V?$basic_string@DU?$char_traits@D@std@@V?$allocator@D@2@@std@@V?$Mat@N@arma@@U?$less@V?$basic_string@DU?$char_traits@D@std@@V?$allocator@D@2@@std@@@2@V?$allocator@U?$pair@$$CBV?$basic_string@DU?$char_traits@D@std@@V?$allocator@D@2@@std@@V?$Mat@N@arma@@@std@@@2@$0A@@std@@@std@@IAE?AV?$_Tree_iterator@V?$_Tree_val@U?$_Tree_simple_types@U?$pair@$$CBV?$basic_string@DU?$char_traits@D@std@@V?$allocator@D@2@@std@@V?$Mat@N@arma@@@std@@@std@@@std@@@1@_NPAU?$_Tree_node@U?$pair@$$CBV?$basic_string@DU?$char_traits@D@std@@V?$allocator@D@2@@std@@V?$Mat@N@arma@@@std@@PAX@1@AAU?$pair@$$CBV?$basic_string@DU?$char_traits@D@std@@V?$allocator@D@2@@std@@V?$Mat@N@arma@@@1@1@Z 10010910 f i pandapool.obj
 0001:0000faf0       ??$_Insert_at@AAU?$pair@$$CBV?$basic_string@DU?$char_traits@D@std@@V?$allocator@D@2@@std@@W4parameterType@@@std@@PAU?$_Tree_node@U?$pair@$$CBV?$basic_string@DU?$char_traits@D@std@@V?$allocator@D@2@@std@@W4parameterType@@@std@@PAX@2@@?$_Tree@V?$_Tmap_traits@V?$basic_string@DU?$char_traits@D@std@@V?$allocator@D@2@@std@@W4parameterType@@U?$less@V?$basic_string@DU?$char_traits@D@std@@V?$allocator@D@2@@std@@@2@V?$allocator@U?$pair@$$CBV?$basic_string@DU?$char_traits@D@std@@V?$allocator@D@2@@std@@W4parameterType@@@std@@@2@$0A@@std@@@std@@IAE?AV?$_Tree_iterator@V?$_Tree_val@U?$_Tree_simple_types@U?$pair@$$CBV?$basic_string@DU?$char_traits@D@std@@V?$allocator@D@2@@std@@W4parameterType@@@std@@@std@@@std@@@1@_NPAU?$_Tree_node@U?$pair@$$CBV?$basic_string@DU?$char_traits@D@std@@V?$allocator@D@2@@std@@W4parameterType@@@std@@PAX@1@AAU?$pair@$$CBV?$basic_string@DU?$char_traits@D@std@@V?$allocator@D@2@@std@@W4parameterType@@@1@1@Z 10010af0 f i pandapool.obj
 0001:0000faf0       ??$_Insert_at@AAU?$pair@$$CBV?$basic_string@DU?$char_traits@D@std@@V?$allocator@D@2@@std@@_N@std@@PAU?$_Tree_node@U?$pair@$$CBV?$basic_string@DU?$char_traits@D@std@@V?$allocator@D@2@@std@@_N@std@@PAX@2@@?$_Tree@V?$_Tmap_traits@V?$basic_string@DU?$char_traits@D@std@@V?$allocator@D@2@@std@@_NU?$less@V?$basic_string@DU?$char_traits@D@std@@V?$allocator@D@2@@std@@@2@V?$allocator@U?$pair@$$CBV?$basic_string@DU?$char_traits@D@std@@V?$allocator@D@2@@std@@_N@std@@@2@$0A@@std@@@std@@IAE?AV?$_Tree_iterator@V?$_Tree_val@U?$_Tree_simple_types@U?$pair@$$CBV?$basic_string@DU?$char_traits@D@std@@V?$allocator@D@2@@std@@_N@std@@@std@@@std@@@1@_NPAU?$_Tree_node@U?$pair@$$CBV?$basic_string@DU?$char_traits@D@std@@V?$allocator@D@2@@std@@_N@std@@PAX@1@AAU?$pair@$$CBV?$basic_string@DU?$char_traits@D@std@@V?$allocator@D@2@@std@@_N@1@1@Z 10010af0 f i pandapool.obj
 0001:0000fd00       ??$_Insert_at@AAU?$pair@$$CBV?$basic_string@DU?$char_traits@D@std@@V?$allocator@D@2@@std@@N@std@@PAU?$_Tree_node@U?$pair@$$CBV?$basic_string@DU?$char_traits@D@std@@V?$allocator@D@2@@std@@N@std@@PAX@2@@?$_Tree@V?$_Tmap_traits@V?$basic_string@DU?$char_traits@D@std@@V?$allocator@D@2@@std@@NU?$less@V?$basic_string@DU?$char_traits@D@std@@V?$allocator@D@2@@std@@@2@V?$allocator@U?$pair@$$CBV?$basic_string@DU?$char_traits@D@std@@V?$allocator@D@2@@std@@N@std@@@2@$0A@@std@@@std@@IAE?AV?$_Tree_iterator@V?$_Tree_val@U?$_Tree_simple_types@U?$pair@$$CBV?$basic_string@DU?$char_traits@D@std@@V?$allocator@D@2@@std@@N@std@@@std@@@std@@@1@_NPAU?$_Tree_node@U?$pair@$$CBV?$basic_string@DU?$char_traits@D@std@@V?$allocator@D@2@@std@@N@std@@PAX@1@AAU?$pair@$$CBV?$basic_string@DU?$char_traits@D@std@@V?$allocator@D@2@@std@@N@1@1@Z 10010d00 f i pandapool.obj
 0001:0000ff10       ??$_Insert_at@AAU?$pair@$$CBV?$basic_string@DU?$char_traits@D@std@@V?$allocator@D@2@@std@@V12@@std@@PAU?$_Tree_node@U?$pair@$$CBV?$basic_string@DU?$char_traits@D@std@@V?$allocator@D@2@@std@@V12@@std@@PAX@2@@?$_Tree@V?$_Tmap_traits@V?$basic_string@DU?$char_traits@D@std@@V?$allocator@D@2@@std@@V12@U?$less@V?$basic_string@DU?$char_traits@D@std@@V?$allocator@D@2@@std@@@2@V?$allocator@U?$pair@$$CBV?$basic_string@DU?$char_traits@D@std@@V?$allocator@D@2@@std@@V12@@std@@@2@$0A@@std@@@std@@IAE?AV?$_Tree_iterator@V?$_Tree_val@U?$_Tree_simple_types@U?$pair@$$CBV?$basic_string@DU?$char_traits@D@std@@V?$allocator@D@2@@std@@V12@@std@@@std@@@std@@@1@_NPAU?$_Tree_node@U?$pair@$$CBV?$basic_string@DU?$char_traits@D@std@@V?$allocator@D@2@@std@@V12@@std@@PAX@1@AAU?$pair@$$CBV?$basic_string@DU?$char_traits@D@std@@V?$allocator@D@2@@std@@V12@@1@1@Z 10010f10 f i pandapool.obj
 0001:000100f0       ??$_Insert_at@AAU?$pair@$$CBIV?$Mat@N@arma@@@std@@PAU?$_Tree_node@U?$pair@$$CBIV?$Mat@N@arma@@@std@@PAX@2@@?$_Tree@V?$_Tmap_traits@IV?$Mat@N@arma@@U?$less@I@std@@V?$allocator@U?$pair@$$CBIV?$Mat@N@arma@@@std@@@4@$0A@@std@@@std@@IAE?AV?$_Tree_iterator@V?$_Tree_val@U?$_Tree_simple_types@U?$pair@$$CBIV?$Mat@N@arma@@@std@@@std@@@std@@@1@_NPAU?$_Tree_node@U?$pair@$$CBIV?$Mat@N@arma@@@std@@PAX@1@AAU?$pair@$$CBIV?$Mat@N@arma@@@1@1@Z 100110f0 f i pandapool.obj
 0001:00010320       ??$_Insert_at@AAU?$pair@$$CBIN@std@@PAU?$_Tree_node@U?$pair@$$CBIN@std@@PAX@2@@?$_Tree@V?$_Tmap_traits@INU?$less@I@std@@V?$allocator@U?$pair@$$CBIN@std@@@2@$0A@@std@@@std@@IAE?AV?$_Tree_iterator@V?$_Tree_val@U?$_Tree_simple_types@U?$pair@$$CBIN@std@@@std@@@std@@@1@_NPAU?$_Tree_node@U?$pair@$$CBIN@std@@PAX@1@AAU?$pair@$$CBIN@1@1@Z 10011320 f i pandapool.obj
 0001:00010500       ??$_Insert_hint@AAU?$pair@$$CBIW4exceptions@@@std@@PAU?$_Tree_node@U?$pair@$$CBIW4exceptions@@@std@@PAX@2@@?$_Tree@V?$_Tmap_traits@IW4exceptions@@U?$less@I@std@@V?$allocator@U?$pair@$$CBIW4exceptions@@@std@@@3@$0A@@std@@@std@@IAE?AV?$_Tree_iterator@V?$_Tree_val@U?$_Tree_simple_types@U?$pair@$$CBIW4exceptions@@@std@@@std@@@std@@@1@V?$_Tree_const_iterator@V?$_Tree_val@U?$_Tree_simple_types@U?$pair@$$CBIW4exceptions@@@std@@@std@@@std@@@1@AAU?$pair@$$CBIW4exceptions@@@1@PAU?$_Tree_node@U?$pair@$$CBIW4exceptions@@@std@@PAX@1@@Z 10011500 f i pandapool.obj
 0001:00010500       ??$_Insert_hint@AAU?$pair@$$CBIW4parameterType@@@std@@PAU?$_Tree_node@U?$pair@$$CBIW4parameterType@@@std@@PAX@2@@?$_Tree@V?$_Tmap_traits@IW4parameterType@@U?$less@I@std@@V?$allocator@U?$pair@$$CBIW4parameterType@@@std@@@3@$0A@@std@@@std@@IAE?AV?$_Tree_iterator@V?$_Tree_val@U?$_Tree_simple_types@U?$pair@$$CBIW4parameterType@@@std@@@std@@@std@@@1@V?$_Tree_const_iterator@V?$_Tree_val@U?$_Tree_simple_types@U?$pair@$$CBIW4parameterType@@@std@@@std@@@std@@@1@AAU?$pair@$$CBIW4parameterType@@@1@PAU?$_Tree_node@U?$pair@$$CBIW4parameterType@@@std@@PAX@1@@Z 10011500 f i pandapool.obj
 0001:00010670       ??$_Insert_hint@AAU?$pair@$$CBIV?$basic_string@DU?$char_traits@D@std@@V?$allocator@D@2@@std@@@std@@PAU?$_Tree_node@U?$pair@$$CBIV?$basic_string@DU?$char_traits@D@std@@V?$allocator@D@2@@std@@@std@@PAX@2@@?$_Tree@V?$_Tmap_traits@IV?$basic_string@DU?$char_traits@D@std@@V?$allocator@D@2@@std@@U?$less@I@2@V?$allocator@U?$pair@$$CBIV?$basic_string@DU?$char_traits@D@std@@V?$allocator@D@2@@std@@@std@@@2@$0A@@std@@@std@@IAE?AV?$_Tree_iterator@V?$_Tree_val@U?$_Tree_simple_types@U?$pair@$$CBIV?$basic_string@DU?$char_traits@D@std@@V?$allocator@D@2@@std@@@std@@@std@@@std@@@1@V?$_Tree_const_iterator@V?$_Tree_val@U?$_Tree_simple_types@U?$pair@$$CBIV?$basic_string@DU?$char_traits@D@std@@V?$allocator@D@2@@std@@@std@@@std@@@std@@@1@AAU?$pair@$$CBIV?$basic_string@DU?$char_traits@D@std@@V?$allocator@D@2@@std@@@1@PAU?$_Tree_node@U?$pair@$$CBIV?$basic_string@DU?$char_traits@D@std@@V?$allocator@D@2@@std@@@std@@PAX@1@@Z 10011670 f i pandapool.obj
 0001:000107e0       ??0bad_alloc@stdext@@QAE@ABV01@@Z 100117e0 f i pandapool.obj
 0001:00010800       ??0OperationCollection@@QAE@XZ 10011800 f   opercollection.obj
 0001:000109d0       ?create@OperationCollection@@QAE?AVOperationResult@@IPBD@Z 100119d0 f   opercollection.obj
 0001:00011070       ??1?$pair@IVAdd@@@std@@QAE@XZ 10012070 f i opercollection.obj
 0001:00011070       ??1?$pair@IVNormalize@@@std@@QAE@XZ 10012070 f i opercollection.obj
 0001:00011070       ??1?$pair@IVTranspose@@@std@@QAE@XZ 10012070 f i opercollection.obj
 0001:00011070       ??1?$pair@IVDot@@@std@@QAE@XZ 10012070 f i opercollection.obj
 0001:00011070       ??1?$pair@IVSqrtDist@@@std@@QAE@XZ 10012070 f i opercollection.obj
 0001:00011080       ??0OperationResult@@QAE@$$QAV0@@Z 10012080 f i opercollection.obj
 0001:000110b0       ?destroy@OperationCollection@@QAEXI@Z 100120b0 f   opercollection.obj
 0001:00011310       ?at@?$map@IVDot@@U?$less@I@std@@V?$allocator@U?$pair@$$CBIVDot@@@std@@@3@@std@@QAEAAVDot@@ABI@Z 10012310 f i opercollection.obj
 0001:00011310       ?at@?$map@IVTranspose@@U?$less@I@std@@V?$allocator@U?$pair@$$CBIVTranspose@@@std@@@3@@std@@QAEAAVTranspose@@ABI@Z 10012310 f i opercollection.obj
 0001:00011310       ?at@?$map@IVAdd@@U?$less@I@std@@V?$allocator@U?$pair@$$CBIVAdd@@@std@@@3@@std@@QAEAAVAdd@@ABI@Z 10012310 f i opercollection.obj
 0001:00011310       ?at@?$map@IVSqrtDist@@U?$less@I@std@@V?$allocator@U?$pair@$$CBIVSqrtDist@@@std@@@3@@std@@QAEAAVSqrtDist@@ABI@Z 10012310 f i opercollection.obj
 0001:00011310       ?at@?$map@IVNormalize@@U?$less@I@std@@V?$allocator@U?$pair@$$CBIVNormalize@@@std@@@3@@std@@QAEAAVNormalize@@ABI@Z 10012310 f i opercollection.obj
 0001:00011360       ??$?8DU?$char_traits@D@std@@V?$allocator@D@1@@std@@YA_NABV?$basic_string@DU?$char_traits@D@std@@V?$allocator@D@2@@0@PBD@Z 10012360 f i opercollection.obj
 0001:000113a0       ??$insert@U?$pair@IVDot@@@std@@X@?$map@IVDot@@U?$less@I@std@@V?$allocator@U?$pair@$$CBIVDot@@@std@@@3@@std@@QAE?AU?$pair@V?$_Tree_iterator@V?$_Tree_val@U?$_Tree_simple_types@U?$pair@$$CBIVDot@@@std@@@std@@@std@@@std@@_N@1@$$QAU?$pair@IVDot@@@1@@Z 100123a0 f i opercollection.obj
 0001:00011400       ??$?0AAIVTranspose@@X$0A@@?$pair@IVTranspose@@@std@@QAE@AAI$$QAVTranspose@@@Z 10012400 f i opercollection.obj
 0001:00011460       ??$insert@U?$pair@IVTranspose@@@std@@X@?$map@IVTranspose@@U?$less@I@std@@V?$allocator@U?$pair@$$CBIVTranspose@@@std@@@3@@std@@QAE?AU?$pair@V?$_Tree_iterator@V?$_Tree_val@U?$_Tree_simple_types@U?$pair@$$CBIVTranspose@@@std@@@std@@@std@@@std@@_N@1@$$QAU?$pair@IVTranspose@@@1@@Z 10012460 f i opercollection.obj
 0001:000114c0       ??$?0AAIVNormalize@@X$0A@@?$pair@IVNormalize@@@std@@QAE@AAI$$QAVNormalize@@@Z 100124c0 f i opercollection.obj
 0001:00011520       ??$insert@U?$pair@IVNormalize@@@std@@X@?$map@IVNormalize@@U?$less@I@std@@V?$allocator@U?$pair@$$CBIVNormalize@@@std@@@3@@std@@QAE?AU?$pair@V?$_Tree_iterator@V?$_Tree_val@U?$_Tree_simple_types@U?$pair@$$CBIVNormalize@@@std@@@std@@@std@@@std@@_N@1@$$QAU?$pair@IVNormalize@@@1@@Z 10012520 f i opercollection.obj
 0001:00011580       ??$?0AAIVSqrtDist@@X$0A@@?$pair@IVSqrtDist@@@std@@QAE@AAI$$QAVSqrtDist@@@Z 10012580 f i opercollection.obj
 0001:000115e0       ??$insert@U?$pair@IVSqrtDist@@@std@@X@?$map@IVSqrtDist@@U?$less@I@std@@V?$allocator@U?$pair@$$CBIVSqrtDist@@@std@@@3@@std@@QAE?AU?$pair@V?$_Tree_iterator@V?$_Tree_val@U?$_Tree_simple_types@U?$pair@$$CBIVSqrtDist@@@std@@@std@@@std@@@std@@_N@1@$$QAU?$pair@IVSqrtDist@@@1@@Z 100125e0 f i opercollection.obj
 0001:00011640       ??0OperationData@@QAE@$$QAV0@@Z 10012640 f i opercollection.obj
 0001:000118f0       ??$_Insert_nohint@AAU?$pair@$$CBIVTranspose@@@std@@PAU?$_Tree_node@U?$pair@$$CBIVTranspose@@@std@@PAX@2@@?$_Tree@V?$_Tmap_traits@IVTranspose@@U?$less@I@std@@V?$allocator@U?$pair@$$CBIVTranspose@@@std@@@3@$0A@@std@@@std@@IAE?AU?$pair@V?$_Tree_iterator@V?$_Tree_val@U?$_Tree_simple_types@U?$pair@$$CBIVTranspose@@@std@@@std@@@std@@@std@@_N@1@_NAAU?$pair@$$CBIVTranspose@@@1@PAU?$_Tree_node@U?$pair@$$CBIVTranspose@@@std@@PAX@1@@Z 100128f0 f i opercollection.obj
 0001:000118f0       ??$_Insert_nohint@AAU?$pair@$$CBIVDot@@@std@@PAU?$_Tree_node@U?$pair@$$CBIVDot@@@std@@PAX@2@@?$_Tree@V?$_Tmap_traits@IVDot@@U?$less@I@std@@V?$allocator@U?$pair@$$CBIVDot@@@std@@@3@$0A@@std@@@std@@IAE?AU?$pair@V?$_Tree_iterator@V?$_Tree_val@U?$_Tree_simple_types@U?$pair@$$CBIVDot@@@std@@@std@@@std@@@std@@_N@1@_NAAU?$pair@$$CBIVDot@@@1@PAU?$_Tree_node@U?$pair@$$CBIVDot@@@std@@PAX@1@@Z 100128f0 f i opercollection.obj
 0001:000118f0       ??$_Insert_nohint@AAU?$pair@$$CBIVSqrtDist@@@std@@PAU?$_Tree_node@U?$pair@$$CBIVSqrtDist@@@std@@PAX@2@@?$_Tree@V?$_Tmap_traits@IVSqrtDist@@U?$less@I@std@@V?$allocator@U?$pair@$$CBIVSqrtDist@@@std@@@3@$0A@@std@@@std@@IAE?AU?$pair@V?$_Tree_iterator@V?$_Tree_val@U?$_Tree_simple_types@U?$pair@$$CBIVSqrtDist@@@std@@@std@@@std@@@std@@_N@1@_NAAU?$pair@$$CBIVSqrtDist@@@1@PAU?$_Tree_node@U?$pair@$$CBIVSqrtDist@@@std@@PAX@1@@Z 100128f0 f i opercollection.obj
 0001:000118f0       ??$_Insert_nohint@AAU?$pair@$$CBIVNormalize@@@std@@PAU?$_Tree_node@U?$pair@$$CBIVNormalize@@@std@@PAX@2@@?$_Tree@V?$_Tmap_traits@IVNormalize@@U?$less@I@std@@V?$allocator@U?$pair@$$CBIVNormalize@@@std@@@3@$0A@@std@@@std@@IAE?AU?$pair@V?$_Tree_iterator@V?$_Tree_val@U?$_Tree_simple_types@U?$pair@$$CBIVNormalize@@@std@@@std@@@std@@@std@@_N@1@_NAAU?$pair@$$CBIVNormalize@@@1@PAU?$_Tree_node@U?$pair@$$CBIVNormalize@@@std@@PAX@1@@Z 100128f0 f i opercollection.obj
 0001:000118f0       ??$_Insert_nohint@AAU?$pair@$$CBIVAdd@@@std@@PAU?$_Tree_node@U?$pair@$$CBIVAdd@@@std@@PAX@2@@?$_Tree@V?$_Tmap_traits@IVAdd@@U?$less@I@std@@V?$allocator@U?$pair@$$CBIVAdd@@@std@@@3@$0A@@std@@@std@@IAE?AU?$pair@V?$_Tree_iterator@V?$_Tree_val@U?$_Tree_simple_types@U?$pair@$$CBIVAdd@@@std@@@std@@@std@@@std@@_N@1@_NAAU?$pair@$$CBIVAdd@@@1@PAU?$_Tree_node@U?$pair@$$CBIVAdd@@@std@@PAX@1@@Z 100128f0 f i opercollection.obj
 0001:000119c0       ??$construct@U?$pair@$$CBIVAdd@@@std@@U?$pair@IVAdd@@@2@@?$_Wrap_alloc@V?$allocator@U?$_Tree_node@U?$pair@$$CBIVAdd@@@std@@PAX@std@@@std@@@std@@QAEXPAU?$pair@$$CBIVAdd@@@1@$$QAU?$pair@IVAdd@@@1@@Z 100129c0 f i opercollection.obj
 0001:00011a50       ??$_Insert_at@AAU?$pair@$$CBIVNormalize@@@std@@PAU?$_Tree_node@U?$pair@$$CBIVNormalize@@@std@@PAX@2@@?$_Tree@V?$_Tmap_traits@IVNormalize@@U?$less@I@std@@V?$allocator@U?$pair@$$CBIVNormalize@@@std@@@3@$0A@@std@@@std@@IAE?AV?$_Tree_iterator@V?$_Tree_val@U?$_Tree_simple_types@U?$pair@$$CBIVNormalize@@@std@@@std@@@std@@@1@_NPAU?$_Tree_node@U?$pair@$$CBIVNormalize@@@std@@PAX@1@AAU?$pair@$$CBIVNormalize@@@1@1@Z 10012a50 f i opercollection.obj
 0001:00011a50       ??$_Insert_at@AAU?$pair@$$CBIVSqrtDist@@@std@@PAU?$_Tree_node@U?$pair@$$CBIVSqrtDist@@@std@@PAX@2@@?$_Tree@V?$_Tmap_traits@IVSqrtDist@@U?$less@I@std@@V?$allocator@U?$pair@$$CBIVSqrtDist@@@std@@@3@$0A@@std@@@std@@IAE?AV?$_Tree_iterator@V?$_Tree_val@U?$_Tree_simple_types@U?$pair@$$CBIVSqrtDist@@@std@@@std@@@std@@@1@_NPAU?$_Tree_node@U?$pair@$$CBIVSqrtDist@@@std@@PAX@1@AAU?$pair@$$CBIVSqrtDist@@@1@1@Z 10012a50 f i opercollection.obj
 0001:00011a50       ??$_Insert_at@AAU?$pair@$$CBIVDot@@@std@@PAU?$_Tree_node@U?$pair@$$CBIVDot@@@std@@PAX@2@@?$_Tree@V?$_Tmap_traits@IVDot@@U?$less@I@std@@V?$allocator@U?$pair@$$CBIVDot@@@std@@@3@$0A@@std@@@std@@IAE?AV?$_Tree_iterator@V?$_Tree_val@U?$_Tree_simple_types@U?$pair@$$CBIVDot@@@std@@@std@@@std@@@1@_NPAU?$_Tree_node@U?$pair@$$CBIVDot@@@std@@PAX@1@AAU?$pair@$$CBIVDot@@@1@1@Z 10012a50 f i opercollection.obj
 0001:00011a50       ??$_Insert_at@AAU?$pair@$$CBIVTranspose@@@std@@PAU?$_Tree_node@U?$pair@$$CBIVTranspose@@@std@@PAX@2@@?$_Tree@V?$_Tmap_traits@IVTranspose@@U?$less@I@std@@V?$allocator@U?$pair@$$CBIVTranspose@@@std@@@3@$0A@@std@@@std@@IAE?AV?$_Tree_iterator@V?$_Tree_val@U?$_Tree_simple_types@U?$pair@$$CBIVTranspose@@@std@@@std@@@std@@@1@_NPAU?$_Tree_node@U?$pair@$$CBIVTranspose@@@std@@PAX@1@AAU?$pair@$$CBIVTranspose@@@1@1@Z 10012a50 f i opercollection.obj
 0001:00011a50       ??$_Insert_at@AAU?$pair@$$CBIVAdd@@@std@@PAU?$_Tree_node@U?$pair@$$CBIVAdd@@@std@@PAX@2@@?$_Tree@V?$_Tmap_traits@IVAdd@@U?$less@I@std@@V?$allocator@U?$pair@$$CBIVAdd@@@std@@@3@$0A@@std@@@std@@IAE?AV?$_Tree_iterator@V?$_Tree_val@U?$_Tree_simple_types@U?$pair@$$CBIVAdd@@@std@@@std@@@std@@@1@_NPAU?$_Tree_node@U?$pair@$$CBIVAdd@@@std@@PAX@1@AAU?$pair@$$CBIVAdd@@@1@1@Z 10012a50 f i opercollection.obj
 0001:00011c30       ??$construct@U?$pair@$$CBIVDot@@@std@@U?$pair@IVDot@@@2@@?$_Wrap_alloc@V?$allocator@U?$_Tree_node@U?$pair@$$CBIVDot@@@std@@PAX@std@@@std@@@std@@QAEXPAU?$pair@$$CBIVDot@@@1@$$QAU?$pair@IVDot@@@1@@Z 10012c30 f i opercollection.obj
 0001:00011cc0       ??$construct@U?$pair@$$CBIVTranspose@@@std@@U?$pair@IVTranspose@@@2@@?$_Wrap_alloc@V?$allocator@U?$_Tree_node@U?$pair@$$CBIVTranspose@@@std@@PAX@std@@@std@@@std@@QAEXPAU?$pair@$$CBIVTranspose@@@1@$$QAU?$pair@IVTranspose@@@1@@Z 10012cc0 f i opercollection.obj
 0001:00011d50       ??$construct@U?$pair@$$CBIVNormalize@@@std@@U?$pair@IVNormalize@@@2@@?$_Wrap_alloc@V?$allocator@U?$_Tree_node@U?$pair@$$CBIVNormalize@@@std@@PAX@std@@@std@@@std@@QAEXPAU?$pair@$$CBIVNormalize@@@1@$$QAU?$pair@IVNormalize@@@1@@Z 10012d50 f i opercollection.obj
 0001:00011de0       ??$construct@U?$pair@$$CBIVSqrtDist@@@std@@U?$pair@IVSqrtDist@@@2@@?$_Wrap_alloc@V?$allocator@U?$_Tree_node@U?$pair@$$CBIVSqrtDist@@@std@@PAX@std@@@std@@@std@@QAEXPAU?$pair@$$CBIVSqrtDist@@@1@$$QAU?$pair@IVSqrtDist@@@1@@Z 10012de0 f i opercollection.obj
 0001:00011e70       ??0OperationData@@QAE@XZ   10012e70 f   operationdata.obj
 0001:00012070       ?find@OperationData@@QAE?AW4parameterType@@PBD@Z 10013070 f   operationdata.obj
 0001:00012210       ?getData@OperationData@@QAE_NIAAV?$Mat@N@arma@@@Z 10013210 f   operationdata.obj
 0001:00012320       ?saveData@OperationData@@QAEXV?$Mat@N@arma@@PBD@Z 10013320 f   operationdata.obj
 0001:000124e0       ?saveData@OperationData@@QAEXNPBD@Z 100134e0 f   operationdata.obj
 0001:000126c0       ?saveData@OperationData@@QAEXV?$basic_string@DU?$char_traits@D@std@@V?$allocator@D@2@@std@@PBD@Z 100136c0 f   operationdata.obj
 0001:00012860       ?saveData@OperationData@@QAEX_NPBD@Z 10013860 f   operationdata.obj
 0001:00012a40       ?operate@Operation@@UAEXXZ 10013a40 f   operation.obj
 0001:00012ad0       ??_D?$basic_stringstream@DU?$char_traits@D@std@@V?$allocator@D@2@@std@@QAEXXZ 10013ad0 f i add.obj
 0001:00012be0       ?operate@Add@@UAEXXZ       10013be0 f   add.obj
 0001:00012e00       ?str@?$basic_stringstream@DU?$char_traits@D@std@@V?$allocator@D@2@@std@@QBE?AV?$basic_string@DU?$char_traits@D@std@@V?$allocator@D@2@@2@XZ 10013e00 f i add.obj
 0001:00012e20       ??1?$basic_stringstream@DU?$char_traits@D@std@@V?$allocator@D@2@@std@@UAE@XZ 10013e20 f i add.obj
 0001:00012ee0       ??0?$basic_stringstream@DU?$char_traits@D@std@@V?$allocator@D@2@@std@@QAE@H@Z 10013ee0 f i add.obj
 0001:00012fd0       ??1?$basic_iostream@DU?$char_traits@D@std@@@std@@UAE@XZ 10013fd0 f i add.obj
 0001:00013030       ??1?$basic_istream@DU?$char_traits@D@std@@@std@@UAE@XZ 10014030 f i add.obj
 0001:00013050       ??_G?$basic_stringstream@DU?$char_traits@D@std@@V?$allocator@D@2@@std@@UAEPAXI@Z 10014050 f i add.obj
 0001:00013050       ??_E?$basic_stringstream@DU?$char_traits@D@std@@V?$allocator@D@2@@std@@UAEPAXI@Z 10014050 f i * CIL library *:* CIL module *
 0001:00013090       ??_G?$basic_iostream@DU?$char_traits@D@std@@@std@@UAEPAXI@Z 10014090 f i add.obj
 0001:00013090       ??_E?$basic_iostream@DU?$char_traits@D@std@@@std@@UAEPAXI@Z 10014090 f i * CIL library *:* CIL module *
 0001:000130c0       ??_E?$basic_istream@DU?$char_traits@D@std@@@std@@UAEPAXI@Z 100140c0 f i * CIL library *:* CIL module *
 0001:000130c0       ??_G?$basic_istream@DU?$char_traits@D@std@@@std@@UAEPAXI@Z 100140c0 f i add.obj
 0001:00013110       ??_D?$basic_iostream@DU?$char_traits@D@std@@@std@@QAEXXZ 10014110 f i add.obj
 0001:00013180       ??0?$basic_istream@DU?$char_traits@D@std@@@std@@QAE@PAV?$basic_streambuf@DU?$char_traits@D@std@@@1@_N@Z 10014180 f i add.obj
 0001:000132d0       ??1?$eOp@V?$subview_col@N@arma@@Veop_scalar_div_post@2@@arma@@QAE@XZ 100142d0 f i normalize.obj
 0001:000132d0       ??1?$Glue@V?$Mat@N@arma@@V12@Vglue_times@2@@arma@@QAE@XZ 100142d0 f i dot.obj
 0001:000132d0       ??1?$Op@V?$Mat@N@arma@@Vop_htrans@2@@arma@@QAE@XZ 100142d0 f i transpose.obj
 0001:000132d0       ??1?$eGlue@V?$subview_row@N@arma@@V12@Veglue_minus@2@@arma@@QAE@XZ 100142d0 f i sqrtdist.obj
 0001:000132d0       ??1?$eOp@V?$subview_row@N@arma@@Veop_scalar_div_post@2@@arma@@QAE@XZ 100142d0 f i normalize.obj
 0001:000132d0       ??1?$Op@V?$Mat@N@arma@@Vop_mean@2@@arma@@QAE@XZ 100142d0 f i normalize.obj
 0001:000132d0       ??1?$Gen@V?$Mat@N@arma@@Vgen_zeros@2@@arma@@QAE@XZ 100142d0 f i sqrtdist.obj
 0001:000132d0       ??1?$eGlue@V?$Mat@N@arma@@V12@Veglue_plus@2@@arma@@QAE@XZ 100142d0 f i add.obj
 0001:000132d0       ??1?$Op@V?$Mat@N@arma@@Vop_repmat@2@@arma@@QAE@XZ 100142d0 f i normalize.obj
 0001:000132d0       ??1?$Op@V?$Mat@N@arma@@Vop_normalise_mat@2@@arma@@QAE@XZ 100142d0 f i normalize.obj
 0001:000132d0       ??1?$subview@N@arma@@QAE@XZ 100142d0 f i normalize.obj
 0001:00013310       ??$?HV?$Mat@N@arma@@V01@@arma@@YA?BV?$eGlue@V?$Mat@N@arma@@V12@Veglue_plus@2@@0@ABV?$Mat@N@0@0@Z 10014310 f i add.obj
 0001:00013340       ??$?0V?$Mat@N@arma@@V01@Veglue_plus@1@@?$Mat@N@arma@@QAE@ABV?$eGlue@V?$Mat@N@arma@@V12@Veglue_plus@2@@1@@Z 10014340 f i add.obj
 0001:00013380       ??0?$eGlue@V?$Mat@N@arma@@V12@Veglue_plus@2@@arma@@QAE@ABV?$Mat@N@1@0@Z 10014380 f i add.obj
 0001:00013420       ??$apply@V?$Mat@N@arma@@V12@V12@@?$eglue_core@Veglue_plus@arma@@@arma@@SAXAAV?$Mat@N@1@ABV?$eGlue@V?$Mat@N@arma@@V12@Veglue_plus@2@@1@@Z 10014420 f i add.obj
 0001:000135de       ??_E?$basic_stringstream@DU?$char_traits@D@std@@V?$allocator@D@2@@std@@$4PPPPPPPM@A@AEPAXI@Z 100145de f i add.obj
 0001:000135e6       ??_E?$basic_istream@DU?$char_traits@D@std@@@std@@$4PPPPPPPM@A@AEPAXI@Z 100145e6 f i add.obj
 0001:000135ee       ??_E?$basic_iostream@DU?$char_traits@D@std@@@std@@$4PPPPPPPM@A@AEPAXI@Z 100145ee f i add.obj
 0001:00013700       ?operate@Dot@@UAEXXZ       10014700 f   dot.obj
 0001:00013940       ??$?DV?$Mat@N@arma@@V01@@arma@@YA?BV?$Glue@V?$Mat@N@arma@@V12@Vglue_times@2@@0@ABV?$Mat@N@0@0@Z 10014940 f i dot.obj
 0001:00013940       ??$zeros@V?$Mat@N@arma@@@arma@@YA?BV?$Gen@V?$Mat@N@arma@@Vgen_zeros@2@@0@IIPBV?$Mat@N@0@@Z 10014940 f i sqrtdist.obj
 0001:00013960       ??$apply@V?$Mat@N@arma@@V12@@glue_times@arma@@SAXAAV?$Mat@N@1@ABV?$Glue@V?$Mat@N@arma@@V12@Vglue_times@2@@1@@Z 10014960 f i dot.obj
 0001:000139b0       ??$inplace_set_small@N@arrayops@arma@@SAXPANNI@Z 100149b0 f i dot.obj
 0001:00013a50       ?reset@?$Mat@N@arma@@QAEXXZ 10014a50 f i dot.obj
 0001:00013a80       ??$apply@V?$Mat@N@arma@@V12@@?$glue_times_redirect2_helper@$0A@@arma@@SAXAAV?$Mat@N@1@ABV?$Glue@V?$Mat@N@arma@@V12@Vglue_times@2@@1@@Z 10014a80 f i dot.obj
 0001:00013b50       ?steal_mem@?$Mat@N@arma@@QAEXAAV12@@Z 10014b50 f i dot.obj
 0001:00013c30       ??$apply@N$0A@$0A@$0A@V?$Mat@N@arma@@V12@@glue_times@arma@@SAXAAV?$Mat@N@1@ABV21@1N@Z 10014c30 f i dot.obj
 0001:00013d50       ??$apply@NV?$Mat@N@arma@@V12@@?$gemm_emul_large@$0A@$0A@$0A@$0A@@arma@@SAXAAV?$Mat@N@1@ABV21@1NN@Z 10014d50 f i dot.obj
 0001:00013f50       ??$apply@V?$Mat@N@arma@@@?$gemv@$00$0A@$0A@@arma@@SAXPANABV?$Mat@N@1@PBNNN@Z 10014f50 f i dot.obj
 0001:00013f80       ??$fill_zeros@N@arrayops@arma@@SAXPANI@Z 10014f80 f i dot.obj
 0001:00013fb0       ??1?$podarray@N@arma@@QAE@XZ 10014fb0 f i dot.obj
 0001:00014000       ?copy_row@?$podarray@N@arma@@QAEXABV?$Mat@N@2@I@Z 10015000 f i dot.obj
 0001:00014160       ??$direct_dot_arma@N@op_dot@arma@@SANIQBN0@Z 10015160 f i dot.obj
 0001:000141e0       ??$apply_mat_noalias@NV?$Mat@N@arma@@@op_strans@arma@@SAXAAV?$Mat@N@1@ABV21@@Z 100151e0 f i dot.obj
 0001:000142e0       ??$apply_blas_type@NV?$Mat@N@arma@@@?$gemv@$0A@$0A@$0A@@arma@@SAXPANABV?$Mat@N@1@PBNNN@Z 100152e0 f i dot.obj
 0001:00014370       ??$apply_mat_noalias_tinysq@NV?$Mat@N@arma@@@op_strans@arma@@SAXAAV?$Mat@N@1@ABV21@@Z 10015370 f i dot.obj
 0001:000144d0       ??$apply@NV?$Mat@N@arma@@@?$gemv_emul_tinysq@$00$0A@$0A@@arma@@SAXPANABV?$Mat@N@1@PBNNN@Z 100154d0 f i dot.obj
 0001:000146e0       ??$apply@NV?$Mat@N@arma@@@?$gemv_emul@$00$0A@$0A@@arma@@SAXPANABV?$Mat@N@1@PBNNN@Z 100156e0 f i dot.obj
 0001:000147b0       ??$apply@NV?$Mat@N@arma@@@?$gemv_emul_tinysq@$0A@$0A@$0A@@arma@@SAXPANABV?$Mat@N@1@PBNNN@Z 100157b0 f i dot.obj
 0001:000149c0       ??$apply@NV?$Mat@N@arma@@V12@@?$gemm_emul_tinysq@$0A@$0A@$0A@@arma@@SAXAAV?$Mat@N@1@ABV21@1NN@Z 100159c0 f i dot.obj
 0001:00014a60       ??$dot_row_col@NV?$Mat@N@arma@@@gemv_emul_helper@arma@@SANABV?$Mat@N@1@PBNII@Z 10015a60 f i dot.obj
 0001:00014b10       ?operate@Transpose@@UAEXXZ 10015b10 f   transpose.obj
 0001:00014c40       ??$trans@V?$Mat@N@arma@@@arma@@YA?BV?$Op@V?$Mat@N@arma@@Vop_htrans@2@@0@ABV?$Mat@N@0@PBH@Z 10015c40 f i transpose.obj
 0001:00014c60       ??$apply_mat@NV?$Mat@N@arma@@@op_strans@arma@@SAXAAV?$Mat@N@1@ABV21@@Z 10015c60 f i transpose.obj
 0001:00014c80       ??$apply_mat_inplace@N@op_strans@arma@@SAXAAV?$Mat@N@1@@Z 10015c80 f i transpose.obj
 0001:00014f00       ??1?$Row@N@arma@@QAE@XZ    10015f00 f i normalize.obj
 0001:00014f00       ??1?$quasi_unwrap@V?$subview_row@N@arma@@@arma@@QAE@XZ 10015f00 f i normalize.obj
 0001:00014f00       ??1?$quasi_unwrap@V?$eGlue@V?$subview_row@N@arma@@V12@Veglue_minus@2@@arma@@@arma@@QAE@XZ 10015f00 f i sqrtdist.obj
 0001:00014f00       ??1?$Proxy@V?$Op@V?$Mat@N@arma@@Vop_repmat@2@@arma@@@arma@@QAE@XZ 10015f00 f i normalize.obj
 0001:00014f00       ??1?$Col@N@arma@@QAE@XZ    10015f00 f i normalize.obj
 0001:00014f60       ?operate@Normalize@@UAEXXZ 10015f60 f   normalize.obj
 0001:00015200       ??$mean@V?$Mat@N@arma@@@arma@@YA?BV?$Op@V?$Mat@N@arma@@Vop_mean@2@@0@ABV?$Mat@N@0@IPBH1@Z 10016200 f i normalize.obj
 0001:00015230       ??$repmat@V?$Mat@N@arma@@@arma@@YA?BV?$Op@V?$Mat@N@arma@@Vop_repmat@2@@0@ABV?$Mat@N@0@II@Z 10016230 f i normalize.obj
 0001:00015260       ??$?GV?$Mat@N@arma@@V?$Op@V?$Mat@N@arma@@Vop_repmat@2@@1@@arma@@YA?BV?$eGlue@V?$Mat@N@arma@@V?$Op@V?$Mat@N@arma@@Vop_repmat@2@@2@Veglue_minus@2@@0@ABV?$Mat@N@0@ABV?$Op@V?$Mat@N@arma@@Vop_repmat@2@@0@@Z 10016260 f i normalize.obj
 0001:00015290       ??$normalise@V?$Mat@N@arma@@@arma@@YA?BV?$Op@V?$Mat@N@arma@@Vop_normalise_mat@2@@0@ABV?$Mat@N@0@IIPBN@Z 10016290 f i normalize.obj
 0001:000152c0       ??0?$eGlue@V?$Mat@N@arma@@V?$Op@V?$Mat@N@arma@@Vop_repmat@2@@2@Veglue_minus@2@@arma@@QAE@ABV?$Mat@N@1@ABV?$Op@V?$Mat@N@arma@@Vop_repmat@2@@1@@Z 100162c0 f i normalize.obj
 0001:00015380       ??$apply@V?$Mat@N@arma@@@op_mean@arma@@SAXAAV?$Mat@N@1@ABV?$Op@V?$Mat@N@arma@@Vop_mean@2@@1@@Z 10016380 f i normalize.obj
 0001:00015460       ??$apply@V?$Mat@N@arma@@V12@V?$Op@V?$Mat@N@arma@@Vop_repmat@2@@2@@?$eglue_core@Veglue_minus@arma@@@arma@@SAXAAV?$Mat@N@1@ABV?$eGlue@V?$Mat@N@arma@@V?$Op@V?$Mat@N@arma@@Vop_repmat@2@@2@Veglue_minus@2@@1@@Z 10016460 f i normalize.obj
 0001:00015610       ??$apply@V?$Mat@N@arma@@@op_normalise_mat@arma@@SAXAAV?$Mat@N@1@ABV?$Op@V?$Mat@N@arma@@Vop_normalise_mat@2@@1@@Z 10016610 f i normalize.obj
 0001:00015700       ??$apply@N@op_normalise_mat@arma@@SAXAAV?$Mat@N@1@ABV21@II@Z 10016700 f i normalize.obj
 0001:000158d0       ??1?$subview_row@N@arma@@QAE@XZ 100168d0 f i normalize.obj
 0001:000158d0       ??1?$subview_col@N@arma@@QAE@XZ 100168d0 f i normalize.obj
 0001:00015910       ?row@?$Mat@N@arma@@QBE?BV?$subview_row@N@2@I@Z 10016910 f i normalize.obj
 0001:00015910       ?row@?$Mat@N@arma@@QAE?AV?$subview_row@N@2@I@Z 10016910 f i normalize.obj
 0001:00015990       ?col@?$Mat@N@arma@@QAE?AV?$subview_col@N@2@I@Z 10016990 f i normalize.obj
 0001:00015990       ?col@?$Mat@N@arma@@QBE?BV?$subview_col@N@2@I@Z 10016990 f i normalize.obj
 0001:00015a10       ??$apply_noalias_unwrap@V?$Mat@N@arma@@@op_mean@arma@@SAXAAV?$Mat@N@1@ABV?$Proxy@V?$Mat@N@arma@@@1@I@Z 10016a10 f i normalize.obj
 0001:00015cb0       ??$norm@V?$subview_col@N@arma@@@arma@@YANABV?$subview_col@N@0@IPBN@Z 10016cb0 f i normalize.obj
 0001:00015d10       ??$?KV?$subview_col@N@arma@@@arma@@YA?BV?$eOp@V?$subview_col@N@arma@@Veop_scalar_div_post@2@@0@ABV?$subview_col@N@0@N@Z 10016d10 f i normalize.obj
 0001:00015d10       ??$?KV?$subview_row@N@arma@@@arma@@YA?BV?$eOp@V?$subview_row@N@arma@@Veop_scalar_div_post@2@@0@ABV?$subview_row@N@0@N@Z 10016d10 f i normalize.obj
 0001:00015d30       ??$norm@V?$subview_row@N@arma@@@arma@@YANABV?$subview_row@N@0@IPBN@Z 10016d30 f i normalize.obj
 0001:00015d90       ??$apply@V?$Mat@N@arma@@@op_repmat@arma@@SAXAAV?$Mat@N@1@ABV?$Op@V?$Mat@N@arma@@Vop_repmat@2@@1@@Z 10016d90 f i normalize.obj
 0001:00015e70       ??$direct_mean@N@op_mean@arma@@SANQBNI@Z 10016e70 f i normalize.obj
 0001:00015f10       ??$direct_mean_robust@N@op_mean@arma@@SANABV?$Mat@N@1@I@Z 10016f10 f i normalize.obj
 0001:000160b0       ??$vec_norm_1@V?$subview_col@N@arma@@@op_norm@arma@@SANABV?$Proxy@V?$subview_col@N@arma@@@1@PBN@Z 100170b0 f i normalize.obj
 0001:00016180       ??$vec_norm_2@V?$subview_col@N@arma@@@op_norm@arma@@SANABV?$Proxy@V?$subview_col@N@arma@@@1@PBN@Z 10017180 f i normalize.obj
 0001:000162b0       ??$vec_norm_k@V?$subview_col@N@arma@@@op_norm@arma@@SANABV?$Proxy@V?$subview_col@N@arma@@@1@H@Z 100172b0 f i normalize.obj
 0001:000163e0       ??$vec_norm_1@V?$subview_row@N@arma@@@op_norm@arma@@SANABV?$Proxy@V?$subview_row@N@arma@@@1@PBN@Z 100173e0 f i normalize.obj
 0001:000164e0       ??$vec_norm_2@V?$subview_row@N@arma@@@op_norm@arma@@SANABV?$Proxy@V?$subview_row@N@arma@@@1@PBN@Z 100174e0 f i normalize.obj
 0001:000166d0       ??$vec_norm_k@V?$subview_row@N@arma@@@op_norm@arma@@SANABV?$Proxy@V?$subview_row@N@arma@@@1@H@Z 100176d0 f i normalize.obj
 0001:00016850       ??$apply_noalias@V?$Mat@N@arma@@@op_repmat@arma@@SAXAAV?$Mat@N@1@ABV21@II@Z 10017850 f i normalize.obj
 0001:00016ac0       ??$direct_mean_robust@N@op_mean@arma@@SANQBNI@Z 10017ac0 f i normalize.obj
 0001:00016b70       ??$vec_norm_1_direct_std@N@op_norm@arma@@SANABV?$Mat@N@1@@Z 10017b70 f i normalize.obj
 0001:00016c70       ??$vec_norm_2_direct_robust@N@op_norm@arma@@SANABV?$Mat@N@1@@Z 10017c70 f i normalize.obj
 0001:00016d80       ??$inplace_op@Vop_internal_equ@arma@@V?$eOp@V?$subview_col@N@arma@@Veop_scalar_div_post@2@@2@@?$subview@N@arma@@QAEXABU?$Base@NV?$eOp@V?$subview_col@N@arma@@Veop_scalar_div_post@2@@arma@@@1@PBD@Z 10017d80 f i normalize.obj
 0001:000170a0       ??$inplace_op@Vop_internal_equ@arma@@V?$eOp@V?$subview_row@N@arma@@Veop_scalar_div_post@2@@2@@?$subview@N@arma@@QAEXABU?$Base@NV?$eOp@V?$subview_row@N@arma@@Veop_scalar_div_post@2@@arma@@@1@PBD@Z 100180a0 f i normalize.obj
 0001:00017440       ??4?$Mat@N@arma@@QAEABV01@ABV?$subview@N@1@@Z 10018440 f i normalize.obj
 0001:00017530       ??$inplace_div_base@N@arrayops@arma@@SAXPANNI@Z 10018530 f i normalize.obj
 0001:000175e0       ??$vec_norm_2_direct_mem@N@op_norm@arma@@SANIPBN@Z 100185e0 f i normalize.obj
 0001:00017670       ??$?0V?$subview_row@N@arma@@Veop_scalar_div_post@1@@?$Mat@N@arma@@QAE@ABV?$eOp@V?$subview_row@N@arma@@Veop_scalar_div_post@2@@1@@Z 10018670 f i normalize.obj
 0001:000176f0       ?extract@?$subview@N@arma@@SAXAAV?$Mat@N@2@ABV12@@Z 100186f0 f i normalize.obj
 0001:00017870       ??$apply@V?$Mat@N@arma@@V?$subview_col@N@2@@?$eop_core@Veop_scalar_div_post@arma@@@arma@@SAXAAV?$Mat@N@1@ABV?$eOp@V?$subview_col@N@arma@@Veop_scalar_div_post@2@@1@@Z 10018870 f i normalize.obj
 0001:000179a0       ?operate@SqrtDist@@UAEXXZ  100189a0 f   sqrtdist.obj
 0001:00017c10       ??$?GV?$subview_row@N@arma@@V01@@arma@@YA?BV?$eGlue@V?$subview_row@N@arma@@V12@Veglue_minus@2@@0@ABV?$subview_row@N@0@0@Z 10018c10 f i sqrtdist.obj
 0001:00017ca0       ??$norm@V?$eGlue@V?$subview_row@N@arma@@V12@Veglue_minus@2@@arma@@@arma@@YANABV?$eGlue@V?$subview_row@N@arma@@V12@Veglue_minus@2@@0@IPBN@Z 10018ca0 f i sqrtdist.obj
 0001:00017cd0       ??$vec_norm_2@V?$eGlue@V?$subview_row@N@arma@@V12@Veglue_minus@2@@arma@@@op_norm@arma@@SANABV?$Proxy@V?$eGlue@V?$subview_row@N@arma@@V12@Veglue_minus@2@@arma@@@1@PBN@Z 10018cd0 f i sqrtdist.obj
 0001:00017fe0       ??$apply@V?$Mat@N@arma@@V?$subview_row@N@2@V32@@?$eglue_core@Veglue_minus@arma@@@arma@@SAXAAV?$Mat@N@1@ABV?$eGlue@V?$subview_row@N@arma@@V12@Veglue_minus@2@@1@@Z 10018fe0 f i sqrtdist.obj
 0001:000180ab       __imp_load_?GetCurrent@Isolate@v8@@SAPAV12@XZ 100190ab f   node:node.exe
 0001:000180b5       __tailMerge_node_exe       100190b5 f i node:node.exe
 0001:000180c6       __imp_load_??1HandleScope@v8@@QAE@XZ 100190c6 f   node:node.exe
 0001:000180d0       __imp_load_??0HandleScope@v8@@QAE@PAVIsolate@1@@Z 100190d0 f   node:node.exe
 0001:000180da       __imp_load_?GetFunction@FunctionTemplate@v8@@QAE?AV?$Local@VFunction@v8@@@2@XZ 100190da f   node:node.exe
 0001:000180e4       __imp_load_?New@FunctionTemplate@v8@@SA?AV?$Local@VFunctionTemplate@v8@@@2@PAVIsolate@2@P6AXABV?$FunctionCallbackInfo@VValue@v8@@@2@@ZV?$Local@VValue@v8@@@2@V?$Local@VSignature@v8@@@2@H@Z 100190e4 f   node:node.exe
 0001:000180ee       __imp_load_?NewFromUtf8@String@v8@@SA?AV?$Local@VString@v8@@@2@PAVIsolate@2@PBDW4NewStringType@12@H@Z 100190ee f   node:node.exe
 0001:000180f8       __imp_load_?GetIsolate@Object@v8@@QAEPAVIsolate@2@XZ 100190f8 f   node:node.exe
 0001:00018102       __imp_load_?Set@Object@v8@@QAE_NV?$Local@VValue@v8@@@2@0@Z 10019102 f   node:node.exe
 0001:0001810c       __imp_load_?SetName@Function@v8@@QAEXV?$Local@VString@v8@@@2@@Z 1001910c f   node:node.exe
 0001:00018116       __imp_load__node_module_register 10019116 f   node:node.exe
 0001:00018120       __imp_load_?New@Signature@v8@@SA?AV?$Local@VSignature@v8@@@2@PAVIsolate@2@V?$Local@VFunctionTemplate@v8@@@2@@Z 10019120 f   node:node.exe
 0001:0001812a       __imp_load_?GetCurrentContext@Isolate@v8@@QAE?AV?$Local@VContext@v8@@@2@XZ 1001912a f   node:node.exe
 0001:00018134       __imp_load_?CreateHandle@HandleScope@v8@@KAPAPAVObject@internal@2@PAVIsolate@42@PAV342@@Z 10019134 f   node:node.exe
 0001:0001813e       __imp_load_?Set@Template@v8@@QAEXV?$Local@VName@v8@@@2@V?$Local@VData@v8@@@2@W4PropertyAttribute@2@@Z 1001913e f   node:node.exe
 0001:00018148       __imp_load_?Length@Array@v8@@QBEIXZ 10019148 f   node:node.exe
 0001:00018152       __imp_load_?SetClassName@FunctionTemplate@v8@@QAEXV?$Local@VString@v8@@@2@@Z 10019152 f   node:node.exe
 0001:0001815c       __imp_load_?PrototypeTemplate@FunctionTemplate@v8@@QAE?AV?$Local@VObjectTemplate@v8@@@2@XZ 1001915c f   node:node.exe
 0001:00018166       __imp_load_?InstanceTemplate@FunctionTemplate@v8@@QAE?AV?$Local@VObjectTemplate@v8@@@2@XZ 10019166 f   node:node.exe
 0001:00018170       __imp_load_?ToLocalEmpty@V8@v8@@CAXXZ 10019170 f   node:node.exe
 0001:0001817a       __imp_load_?ClearWeak@V8@v8@@CAPAXPAPAVObject@internal@2@@Z 1001917a f   node:node.exe
 0001:00018184       __imp_load_?MakeWeak@V8@v8@@CAXPAPAVObject@internal@2@PAXP6AXABV?$WeakCallbackInfo@X@2@@ZW4WeakCallbackType@2@@Z 10019184 f   node:node.exe
 0001:0001818e       __imp_load_?DisposeGlobal@V8@v8@@CAXPAPAVObject@internal@2@@Z 1001918e f   node:node.exe
 0001:00018198       __imp_load_?GlobalizeReference@V8@v8@@CAPAPAVObject@internal@2@PAVIsolate@42@PAPAV342@@Z 10019198 f   node:node.exe
 0001:000181a2       __imp_load_?IsObject@Value@v8@@QBE_NXZ 100191a2 f   node:node.exe
 0001:000181ac       __imp_load_?IsArray@Value@v8@@QBE_NXZ 100191ac f   node:node.exe
 0001:000181b6       __imp_load_??1Utf8Value@String@v8@@QAE@XZ 100191b6 f   node:node.exe
 0001:000181c0       __imp_load_??0Utf8Value@String@v8@@QAE@V?$Local@VValue@v8@@@2@@Z 100191c0 f   node:node.exe
 0001:000181ca       __imp_load_?SlowGetAlignedPointerFromInternalField@Object@v8@@AAEPAXH@Z 100191ca f   node:node.exe
 0001:000181d4       __imp_load_?New@Object@v8@@SA?AV?$Local@VObject@v8@@@2@PAVIsolate@2@@Z 100191d4 f   node:node.exe
 0001:000181de       __imp_load_?SetAlignedPointerInInternalField@Object@v8@@QAEXHPAX@Z 100191de f   node:node.exe
 0001:000181e8       __imp_load_?InternalFieldCount@Object@v8@@QAEHXZ 100191e8 f   node:node.exe
 0001:000181f2       __imp_load_?GetOwnPropertyNames@Object@v8@@QAE?AV?$Local@VArray@v8@@@2@XZ 100191f2 f   node:node.exe
 0001:000181fc       __imp_load_?Get@Object@v8@@QAE?AV?$Local@VValue@v8@@@2@V32@@Z 100191fc f   node:node.exe
 0001:00018206       __imp_load_?Get@Object@v8@@QAE?AV?$Local@VValue@v8@@@2@I@Z 10019206 f   node:node.exe
 0001:00018210       __imp_load_?NewInstance@Function@v8@@QBE?AV?$MaybeLocal@VObject@v8@@@2@V?$Local@VContext@v8@@@2@HQAV?$Local@VValue@v8@@@2@@Z 10019210 f   node:node.exe
 0001:0001821a       __imp_load_?SetInternalFieldCount@ObjectTemplate@v8@@QAEXH@Z 1001921a f   node:node.exe
 0001:00018224       __imp_load_?New@Array@v8@@SA?AV?$Local@VArray@v8@@@2@PAVIsolate@2@H@Z 10019224 f   node:node.exe
 0001:0001822e       __imp_load_?NumberValue@Value@v8@@QBENXZ 1001922e f   node:node.exe
 0001:00018238       __imp_load_?BooleanValue@Value@v8@@QBE_NXZ 10019238 f   node:node.exe
 0001:00018242       __imp_load_?IsNumber@Value@v8@@QBE_NXZ 10019242 f   node:node.exe
 0001:0001824c       __imp_load_?IsBoolean@Value@v8@@QBE_NXZ 1001924c f   node:node.exe
 0001:00018256       __imp_load_?New@Number@v8@@SA?AV?$Local@VNumber@v8@@@2@PAVIsolate@2@N@Z 10019256 f   node:node.exe
 0001:00018260       __imp_load_?Set@Object@v8@@QAE_NIV?$Local@VValue@v8@@@2@@Z 10019260 f   node:node.exe
 0001:0001826a       ??0_Init_locks@std@@QAE@XZ 1001926a f   libcpmt:xlock.obj
 0001:00018297       ??0_Lockit@std@@QAE@H@Z    10019297 f   libcpmt:xlock.obj
 0001:000182c8       ??1_Init_locks@std@@QAE@XZ 100192c8 f   libcpmt:xlock.obj
 0001:000182ef       ??1_Lockit@std@@QAE@XZ     100192ef f   libcpmt:xlock.obj
 0001:0001830e       ??$_Fgetc@D@std@@YA_NAADPAU_iobuf@@@Z 1001930e f i libcpmt:cout.obj
 0001:0001832e       ??$_Fputc@D@std@@YA_NDPAU_iobuf@@@Z 1001932e f i libcpmt:cout.obj
 0001:0001834a       ??$_Ungetc@D@std@@YA_NABDPAU_iobuf@@@Z 1001934a f i libcpmt:cout.obj
 0001:00018368       ??$use_facet@V?$codecvt@DDU_Mbstatet@@@std@@@std@@YAABV?$codecvt@DDU_Mbstatet@@@0@ABVlocale@0@@Z 10019368 f i libcpmt:cout.obj
 0001:00018405       ??0?$fpos@U_Mbstatet@@@std@@QAE@U_Mbstatet@@_J@Z 10019405 f i libcpmt:cout.obj
 0001:0001842d       ??0_Init_cout@std@@QAE@XZ  1001942d f i libcpmt:cout.obj
 0001:00018486       ??0bad_cast@std@@QAE@ABV01@@Z 10019486 f i libcpmt:cout.obj
 0001:000184a1       ??0bad_cast@std@@QAE@XZ    100194a1 f i libcpmt:cout.obj
 0001:000184b9       ??0exception@std@@QAE@ABV01@@Z 100194b9 f i libcpmt:cout.obj
 0001:000184e5       ??0exception@std@@QAE@QBD@Z 100194e5 f i libcpmt:cout.obj
 0001:0001851c       ??1?$basic_filebuf@DU?$char_traits@D@std@@@std@@UAE@XZ 1001951c f i libcpmt:cout.obj
 0001:00018576       ??_G?$basic_filebuf@DU?$char_traits@D@std@@@std@@UAEPAXI@Z 10019576 f i libcpmt:cout.obj
 0001:00018576       ??_E?$basic_filebuf@DU?$char_traits@D@std@@@std@@UAEPAXI@Z 10019576 f i libcpmt:cout.obj
 0001:00018598       ??_G?$codecvt@DDU_Mbstatet@@@std@@MAEPAXI@Z 10019598 f i libcpmt:cout.obj
 0001:00018598       ??_E?$codecvt@DDU_Mbstatet@@@std@@MAEPAXI@Z 10019598 f i libcpmt:cout.obj
 0001:000185bb       ?_Endwrite@?$basic_filebuf@DU?$char_traits@D@std@@@std@@IAE_NXZ 100195bb f i libcpmt:cout.obj
 0001:000186d9       ?_Getcat@?$codecvt@DDU_Mbstatet@@@std@@SAIPAPBVfacet@locale@2@PBV42@@Z 100196d9 f i libcpmt:cout.obj
 0001:00018741       ?_Init@?$basic_filebuf@DU?$char_traits@D@std@@@std@@IAEXPAU_iobuf@@W4_Initfl@12@@Z 10019741 f i libcpmt:cout.obj
 0001:000187bf       ?_Initcvt@?$basic_filebuf@DU?$char_traits@D@std@@@std@@IAEXPBV?$codecvt@DDU_Mbstatet@@@2@@Z 100197bf f i libcpmt:cout.obj
 0001:000187f5       ?_Lock@?$basic_filebuf@DU?$char_traits@D@std@@@std@@UAEXXZ 100197f5 f i libcpmt:cout.obj
 0001:00018805       ?_Reset_back@?$basic_filebuf@DU?$char_traits@D@std@@@std@@AAEXXZ 10019805 f i libcpmt:cout.obj
 0001:00018828       ?_Set_back@?$basic_filebuf@DU?$char_traits@D@std@@@std@@AAEXXZ 10019828 f i libcpmt:cout.obj
 0001:0001885e       ?_Unlock@?$basic_filebuf@DU?$char_traits@D@std@@@std@@UAEXXZ 1001985e f i libcpmt:cout.obj
 0001:0001886e       ?close@?$basic_filebuf@DU?$char_traits@D@std@@@std@@QAEPAV12@XZ 1001986e f i libcpmt:cout.obj
 0001:000188cd       ?do_length@?$codecvt@DDU_Mbstatet@@@std@@MBEHAAU_Mbstatet@@PBD1I@Z 100198cd f i libcpmt:cout.obj
 0001:000188e5       ?do_in@?$codecvt@DDU_Mbstatet@@@std@@MBEHAAU_Mbstatet@@PBD1AAPBDPAD3AAPAD@Z 100198e5 f i libcpmt:cout.obj
 0001:000188e5       ?do_out@?$codecvt@DDU_Mbstatet@@@std@@MBEHAAU_Mbstatet@@PBD1AAPBDPAD3AAPAD@Z 100198e5 f i libcpmt:cout.obj
 0001:000188ff       ?do_unshift@?$codecvt@DDU_Mbstatet@@@std@@MBEHAAU_Mbstatet@@PAD1AAPAD@Z 100198ff f i libcpmt:cout.obj
 0001:00018910       ?imbue@?$basic_filebuf@DU?$char_traits@D@std@@@std@@MAEXABVlocale@2@@Z 10019910 f i libcpmt:cout.obj
 0001:0001892c       ?overflow@?$basic_filebuf@DU?$char_traits@D@std@@@std@@MAEHH@Z 1001992c f i libcpmt:cout.obj
 0001:00018aca       ?pbackfail@?$basic_filebuf@DU?$char_traits@D@std@@@std@@MAEHH@Z 10019aca f i libcpmt:cout.obj
 0001:00018b51       ?seekoff@?$basic_filebuf@DU?$char_traits@D@std@@@std@@MAE?AV?$fpos@U_Mbstatet@@@2@_JHH@Z 10019b51 f i libcpmt:cout.obj
 0001:00018c12       ?seekpos@?$basic_filebuf@DU?$char_traits@D@std@@@std@@MAE?AV?$fpos@U_Mbstatet@@@2@V32@H@Z 10019c12 f i libcpmt:cout.obj
 0001:00018cd2       ?setbuf@?$basic_filebuf@DU?$char_traits@D@std@@@std@@MAEPAV?$basic_streambuf@DU?$char_traits@D@std@@@2@PAD_J@Z 10019cd2 f i libcpmt:cout.obj
 0001:00018d20       ?sync@?$basic_filebuf@DU?$char_traits@D@std@@@std@@MAEHXZ 10019d20 f i libcpmt:cout.obj
 0001:00018d58       ?uflow@?$basic_filebuf@DU?$char_traits@D@std@@@std@@MAEHXZ 10019d58 f i libcpmt:cout.obj
 0001:00018ef7       ?underflow@?$basic_filebuf@DU?$char_traits@D@std@@@std@@MAEHXZ 10019ef7 f i libcpmt:cout.obj
 0001:00018f45       ?what@exception@std@@UBEPBDXZ 10019f45 f i libcpmt:cout.obj
 0001:00018fd1       ??0_Locimp@locale@std@@AAE@_N@Z 10019fd1 f i libcpmt:locale0.obj
 0001:00019014       ??1_Fac_node@std@@QAE@XZ   1001a014 f i libcpmt:locale0.obj
 0001:00019073       ??1_Fac_tidy_reg_t@std@@QAE@XZ 1001a073 f i libcpmt:locale0.obj
 0001:0001909a       ??1_Locimp@locale@std@@MAE@XZ 1001a09a f i libcpmt:locale0.obj
 0001:000190f5       ??4?$_Yarn@D@std@@QAEAAV01@PBD@Z 1001a0f5 f i libcpmt:locale0.obj
 0001:00019149       ??_E_Locimp@locale@std@@MAEPAXI@Z 1001a149 f i libcpmt:locale0.obj
 0001:00019149       ??_G_Locimp@locale@std@@MAEPAXI@Z 1001a149 f i libcpmt:locale0.obj
 0001:0001916b       ?_Facet_Register@std@@YAXPAV_Facet_base@1@@Z 1001a16b f   libcpmt:locale0.obj
 0001:00019199       ?_Getgloballocale@locale@std@@CAPAV_Locimp@12@XZ 1001a199 f   libcpmt:locale0.obj
 0001:0001919f       ?_Init@locale@std@@CAPAV_Locimp@12@_N@Z 1001a19f f   libcpmt:locale0.obj
 0001:0001922d       ?_Locimp_dtor@_Locimp@locale@std@@CAXPAV123@@Z 1001a22d f   libcpmt:locale0.obj
 0001:000192a2       ?_Locinfo_ctor@_Locinfo@std@@SAXPAV12@PBD@Z 1001a2a2 f   libcpmt:locale0.obj
 0001:000192ed       ?_Locinfo_dtor@_Locinfo@std@@SAXPAV12@@Z 1001a2ed f   libcpmt:locale0.obj
 0001:0001930f       ?_New_Locimp@_Locimp@locale@std@@CAPAV123@_N@Z 1001a30f f   libcpmt:locale0.obj
 0001:00019334       ?_Setgloballocale@locale@std@@CAXPAX@Z 1001a334 f   libcpmt:locale0.obj
 0001:0001935c       __Deletegloballocale       1001a35c f   libcpmt:locale0.obj
 0001:000193c1       ??0bad_alloc@std@@QAE@ABV01@@Z 1001a3c1 f i libcpmt:xthrow.obj
 0001:000193dc       ??0bad_alloc@std@@QAE@XZ   1001a3dc f i libcpmt:xthrow.obj
 0001:000193f4       ??0length_error@std@@QAE@ABV01@@Z 1001a3f4 f i libcpmt:xthrow.obj
 0001:0001940f       ??0length_error@std@@QAE@PBD@Z 1001a40f f i libcpmt:xthrow.obj
 0001:00019430       ??0out_of_range@std@@QAE@ABV01@@Z 1001a430 f i libcpmt:xthrow.obj
 0001:0001944b       ??0out_of_range@std@@QAE@PBD@Z 1001a44b f i libcpmt:xthrow.obj
 0001:0001946c       ?__scrt_throw_std_bad_alloc@@YAXXZ 1001a46c f   LIBCMT:throw_bad_alloc.obj
 0001:0001946c       ?_Xbad_alloc@std@@YAXXZ    1001a46c f   libcpmt:xthrow.obj
 0001:00019489       ?_Xlength_error@std@@YAXPBD@Z 1001a489 f   libcpmt:xthrow.obj
 0001:000194a9       ?_Xout_of_range@std@@YAXPBD@Z 1001a4a9 f   libcpmt:xthrow.obj
 0001:000194c9       ?_Addstd@ios_base@std@@SAXPAV12@@Z 1001a4c9 f   libcpmt:ios.obj
 0001:0001951a       ?_Callfns@ios_base@std@@AAEXW4event@12@@Z 1001a51a f i libcpmt:ios.obj
 0001:0001954c       ?_Ios_base_dtor@ios_base@std@@CAXPAV12@@Z 1001a54c f   libcpmt:ios.obj
 0001:0001958c       ?_Tidy@ios_base@std@@AAEXXZ 1001a58c f i libcpmt:ios.obj
 0001:000195d4       ?_Syserror_map@std@@YAPBDH@Z 1001a5d4 f   libcpmt:syserror.obj
 0001:000195f9       __Getctype                 1001a5f9 f   libcpmt:_tolower.obj
 0001:00019664       __Tolower                  1001a664 f   libcpmt:_tolower.obj
 0001:0001975e       __Getcvt                   1001a75e f   libcpmt:xwctomb.obj
 0001:000197cb       __Toupper                  1001a7cb f   libcpmt:_toupper.obj
 0001:000198c5       __Mtxdst                   1001a8c5 f   libcpmt:xmtx.obj
 0001:000198d3       __Mtxinit                  1001a8d3 f   libcpmt:xmtx.obj
 0001:000198ea       __Mtxlock                  1001a8ea f   libcpmt:xmtx.obj
 0001:000198f8       __Mtxunlock                1001a8f8 f   libcpmt:xmtx.obj
 0001:00019906       ??1_Init_atexit@@QAE@XZ    1001a906 f i libcpmt:iosptrs.obj
 0001:0001996a       ?_Atexit@@YAXP6AXXZ@Z      1001a96a f   libcpmt:iosptrs.obj
 0001:00019998       ___crtLCMapStringA         1001a998 f   libcpmt:StlLCMapStringA.obj
 0001:00019b9b       __freea_crt                1001ab9b f i libcpmt:StlLCMapStringA.obj
 0001:00019f63       ___crtInitializeCriticalSectionEx 1001af63 f   libcpmt:winapisupp.obj
 0001:00019f9b       _GetTableIndexFromLocaleName 1001af9b f   libcpmt:winapinls.obj
 0001:00019fe9       ___crtDownlevelLocaleNameToLCID 1001afe9 f   libcpmt:winapinls.obj
 0001:0001a013       ___crtLCMapStringEx        1001b013 f   libcpmt:winapinls.obj
 0001:0001a069       ___wcsnicmp_ascii          1001b069 f   libcpmt:winapinls.obj
 0001:0001a0dc       @__security_check_cookie@4 1001b0dc f   LIBCMT:_secchk_.obj
 0001:0001a0ed       ??_V@YAXPAX@Z              1001b0ed f   LIBCMT:delete_array.obj
 0001:0001a1b2       ??$__crt_fast_encode_pointer@P6GXPAU_RTL_CONDITION_VARIABLE@@@Z@@YAP6GXPAU_RTL_CONDITION_VARIABLE@@@ZQ6GX0@Z@Z 1001b1b2 f i LIBCMT:thread_safe_statics.obj
 0001:0001a1b2       ??$__crt_fast_encode_pointer@PAX@@YAPAXQAX@Z 1001b1b2 f i libvcruntime:winapi_downlevel.obj
 0001:0001a1b2       ??$__crt_fast_encode_pointer@P6GHPAU_RTL_CONDITION_VARIABLE@@PAU_RTL_CRITICAL_SECTION@@K@Z@@YAP6GHPAU_RTL_CONDITION_VARIABLE@@PAU_RTL_CRITICAL_SECTION@@K@ZQ6GH01K@Z@Z 1001b1b2 f i LIBCMT:thread_safe_statics.obj
 0001:0001a1b2       ??$__crt_fast_encode_pointer@PAP6AXXZ@@YAPAP6AXXZQAP6AXXZ@Z 1001b1b2 f i LIBCMT:utility.obj
 0001:0001a1eb       __Init_thread_footer       1001b1eb f   LIBCMT:thread_safe_statics.obj
 0001:0001a22a       __Init_thread_header       1001b22a f   LIBCMT:thread_safe_statics.obj
 0001:0001a270       __Init_thread_lock         1001b270 f   LIBCMT:thread_safe_statics.obj
 0001:0001a27c       __Init_thread_notify       1001b27c f   LIBCMT:thread_safe_statics.obj
 0001:0001a2bd       __Init_thread_unlock       1001b2bd f   LIBCMT:thread_safe_statics.obj
 0001:0001a2c9       __Init_thread_wait         1001b2c9 f   LIBCMT:thread_safe_statics.obj
 0001:0001a32e       ??2@YAPAXI@Z               1001b32e f   LIBCMT:new_scalar.obj
 0001:0001a3a5       ___scrt_acquire_startup_lock 1001b3a5 f   LIBCMT:utility.obj
 0001:0001a3da       ___scrt_dllmain_after_initialize_c 1001b3da f   LIBCMT:utility.obj
 0001:0001a405       ___scrt_dllmain_before_initialize_c 1001b405 f   LIBCMT:utility.obj
 0001:0001a413       ___scrt_dllmain_crt_thread_attach 1001b413 f   LIBCMT:utility.obj
 0001:0001a432       ___scrt_dllmain_crt_thread_detach 1001b432 f   LIBCMT:utility.obj
 0001:0001a43f       ___scrt_dllmain_exception_filter 1001b43f f   LIBCMT:utility.obj
 0001:0001a472       ___scrt_dllmain_uninitialize_c 1001b472 f   LIBCMT:utility.obj
 0001:0001a495       ___scrt_dllmain_uninitialize_critical 1001b495 f   LIBCMT:utility.obj
 0001:0001a4a2       ___scrt_initialize_crt     1001b4a2 f   LIBCMT:utility.obj
 0001:0001a4db       ___scrt_initialize_onexit_tables 1001b4db f   LIBCMT:utility.obj
 0001:0001a572       ___scrt_is_nonwritable_in_current_image 1001b572 f   LIBCMT:utility.obj
 0001:0001a5fc       ___scrt_release_startup_lock 1001b5fc f   LIBCMT:utility.obj
 0001:0001a619       ___scrt_uninitialize_crt   1001b619 f   LIBCMT:utility.obj
 0001:0001a641       __onexit                   1001b641 f   LIBCMT:utility.obj
 0001:0001a67c       _atexit                    1001b67c f   LIBCMT:utility.obj
 0001:0001a691       ??3@YAXPAX@Z               1001b691 f   LIBCMT:delete_scalar.obj
 0001:0001a696       ??3@YAXPAXI@Z              1001b696 f   LIBCMT:delete_scalar_size.obj
 0001:0001a6a4       ??_Gtype_info@@UAEPAXI@Z   1001b6a4 f i LIBCMT:std_type_info_static.obj
 0001:0001a6a4       ??_Etype_info@@UAEPAXI@Z   1001b6a4 f i LIBCMT:std_type_info_static.obj
 0001:0001a9cf       __DllMainCRTStartup@12     1001b9cf f   LIBCMT:dll_dllmain.obj
 0001:0001a9f2       @_guard_check_icall@4      1001b9f2 f i LIBCMT:checkcfg.obj
 0001:0001a9f8       __EH_epilog3               1001b9f8 f   LIBCMT:ehprolg3.obj
 0001:0001aa0d       __EH_epilog3_GS            1001ba0d f   LIBCMT:ehprolg3.obj
 0001:0001aa1e       __EH_prolog3               1001ba1e f   LIBCMT:ehprolg3.obj
 0001:0001aa52       __EH_prolog3_GS            1001ba52 f   LIBCMT:ehprolg3.obj
 0001:0001aa89       __EH_prolog3_catch         1001ba89 f   LIBCMT:ehprolg3.obj
 0001:0001aac0       __alloca_probe_16          1001bac0 f   LIBCMT:alloca16.obj
 0001:0001aad6       __alloca_probe_8           1001bad6     LIBCMT:alloca16.obj
 0001:0001aaf0       __allmul                   1001baf0 f   LIBCMT:llmul.obj
 0001:0001ab30       __aulldiv                  1001bb30 f   LIBCMT:ulldiv.obj
 0001:0001ab98       ___raise_securityfailure   1001bb98 f   LIBCMT:gs_report.obj
 0001:0001abc0       ___report_gsfailure        1001bbc0 f   LIBCMT:gs_report.obj
 0001:0001acbb       ___report_rangecheckfailure 1001bcbb f   LIBCMT:gs_report.obj
 0001:0001acc7       ___report_securityfailure  1001bcc7 f   LIBCMT:gs_report.obj
 0001:0001ad97       ___scrt_fastfail           1001bd97 f   LIBCMT:utility_desktop.obj
 0001:0001aeb2       __crt_debugger_hook        1001beb2 f   LIBCMT:utility_desktop.obj
 0001:0001aeba       ??0bad_array_new_length@std@@QAE@ABV01@@Z 1001beba f i LIBCMT:throw_bad_alloc.obj
 0001:0001aed5       ??0bad_array_new_length@std@@QAE@XZ 1001bed5 f i LIBCMT:throw_bad_alloc.obj
 0001:0001aeed       ?__scrt_throw_std_bad_array_new_length@@YAXXZ 1001beed f   LIBCMT:throw_bad_alloc.obj
 0001:0001af0a       ___isa_available_init      1001bf0a f   LIBCMT:_cpu_disp_.obj
 0001:0001b0a4       ?do_max_length@codecvt_base@std@@MBEHXZ 1001c0a4 f   libcpmt:cout.obj
 0001:0001b0a4       ?do_encoding@codecvt_base@std@@MBEHXZ 1001c0a4 f   libcpmt:cout.obj
 0001:0001b0a4       __get_startup_argv_mode    1001c0a4 f   LIBCMT:argv_mode.obj
 0001:0001b0a8       ___scrt_is_ucrt_dll_in_use 1001c0a8 f   LIBCMT:ucrt_detection.obj
 0001:0001b0c0       __SEH_prolog4              1001c0c0 f   LIBCMT:_sehprolg4_.obj
 0001:0001b106       __SEH_epilog4              1001c106 f   LIBCMT:_sehprolg4_.obj
 0001:0001b11b       ___security_init_cookie    1001c11b f   LIBCMT:gs_support.obj
 0001:0001b1b7       _DllMain@12                1001c1b7 f   LIBCMT:dll_dllmain_stub.obj
 0001:0001b1bd       ?__scrt_initialize_type_info@@YAXXZ 1001c1bd f   LIBCMT:tncleanup.obj
 0001:0001b1c9       ?__scrt_uninitialize_type_info@@YAXXZ 1001c1c9 f   LIBCMT:tncleanup.obj
 0001:0001b1d5       ___local_stdio_scanf_options 1001c1d5 f i LIBCMT:default_local_stdio_options.obj
 0001:0001b1db       ___scrt_initialize_default_local_stdio_options 1001c1db f   LIBCMT:default_local_stdio_options.obj
 0001:0001b1f8       ___scrt_get_dyn_tls_init_callback 1001c1f8 f   LIBCMT:dyn_tls_init.obj
 0001:0001b1fe       __RTC_Initialize           1001c1fe f   LIBCMT:_initsect_.obj
 0001:0001b229       __RTC_Terminate            1001c229 f   LIBCMT:_initsect_.obj
 0001:0001b260       __chkstk                   1001c260 f   LIBCMT:chkstk.obj
 0001:0001b260       __alloca_probe             1001c260 f   LIBCMT:chkstk.obj
 0001:0001b290       _memmove                   1001c290 f   libvcruntime:memmove.obj
 0001:0001b804       __get_purecall_handler     1001c804 f   libvcruntime:purevirt.obj
 0001:0001b823       __purecall                 1001c823 f   libvcruntime:purevirt.obj
 0001:0001b83e       ___DestructExceptionObject 1001c83e f   libvcruntime:frame.obj
 0001:0001b8d2       ??0bad_exception@std@@QAE@ABV01@@Z 1001c8d2 f i libvcruntime:frame.obj
 0001:0001b8ed       ??0bad_exception@std@@QAE@XZ 1001c8ed f i libvcruntime:frame.obj
 0001:0001b905       ??1bad_alloc@std@@UAE@XZ   1001c905 f i libcpmt:xthrow.obj
 0001:0001b905       ??1bad_exception@std@@UAE@XZ 1001c905 f i libvcruntime:frame.obj
 0001:0001b905       ??1out_of_range@std@@UAE@XZ 1001c905 f i libcpmt:xthrow.obj
 0001:0001b905       ??1bad_array_new_length@std@@UAE@XZ 1001c905 f i LIBCMT:throw_bad_alloc.obj
 0001:0001b905       ??1length_error@std@@UAE@XZ 1001c905 f i libcpmt:xthrow.obj
 0001:0001b905       ??1bad_cast@std@@UAE@XZ    1001c905 f i libcpmt:cout.obj
 0001:0001b916       ??_Eexception@std@@UAEPAXI@Z 1001c916 f i libcpmt:cout.obj
 0001:0001b916       ??_Eout_of_range@std@@UAEPAXI@Z 1001c916 f i libcpmt:xthrow.obj
 0001:0001b916       ??_Ebad_array_new_length@std@@UAEPAXI@Z 1001c916 f i LIBCMT:throw_bad_alloc.obj
 0001:0001b916       ??_Gexception@std@@UAEPAXI@Z 1001c916 f i libcpmt:cout.obj
 0001:0001b916       ??_Gbad_exception@std@@UAEPAXI@Z 1001c916 f i libvcruntime:frame.obj
 0001:0001b916       ??_Gout_of_range@std@@UAEPAXI@Z 1001c916 f i libcpmt:xthrow.obj
 0001:0001b916       ??_Ebad_alloc@std@@UAEPAXI@Z 1001c916 f i libcpmt:xthrow.obj
 0001:0001b916       ??_Ebad_cast@std@@UAEPAXI@Z 1001c916 f i libcpmt:cout.obj
 0001:0001b916       ??_Gbad_cast@std@@UAEPAXI@Z 1001c916 f i libcpmt:cout.obj
 0001:0001b916       ??_Gbad_alloc@std@@UAEPAXI@Z 1001c916 f i libcpmt:xthrow.obj
 0001:0001b916       ??_Ebad_exception@std@@UAEPAXI@Z 1001c916 f i libvcruntime:frame.obj
 0001:0001b916       ??_Glength_error@std@@UAEPAXI@Z 1001c916 f i libcpmt:xthrow.obj
 0001:0001b916       ??_Gbad_array_new_length@std@@UAEPAXI@Z 1001c916 f i LIBCMT:throw_bad_alloc.obj
 0001:0001b916       ??_Elength_error@std@@UAEPAXI@Z 1001c916 f i libcpmt:xthrow.obj
 0001:0001c15c       ?_CallMemberFunction2@@YGXQAX00H@Z 1001d15c f i libvcruntime:frame.obj
 0001:0001c15c       ?_CallMemberFunction0@@YGXQAX0@Z 1001d15c f i libvcruntime:frame.obj
 0001:0001c15c       ?_CallMemberFunction1@@YGXQAX00@Z 1001d15c f i libvcruntime:frame.obj
 0001:0001c163       ___AdjustPointer           1001d163 f   libvcruntime:frame.obj
 0001:0001c188       ___BuildCatchObject        1001d188 f   libvcruntime:frame.obj
 0001:0001c217       ___BuildCatchObjectHelper  1001d217 f   libvcruntime:frame.obj
 0001:0001c345       ___FrameUnwindFilter       1001d345 f   libvcruntime:frame.obj
 0001:0001c38a       ___FrameUnwindToState      1001d38a f   libvcruntime:frame.obj
 0001:0001c452       ___InternalCxxFrameHandler 1001d452 f   libvcruntime:frame.obj
 0001:0001c54e       ___TypeMatch               1001d54e f   libvcruntime:frame.obj
 0001:0001c5dc       ___std_terminate           1001d5dc f   libvcruntime:frame.obj
 0001:0001c5e1       ___std_exception_copy      1001d5e1 f   libvcruntime:std_exception.obj
 0001:0001c644       ___std_exception_destroy   1001d644 f   libvcruntime:std_exception.obj
 0001:0001c663       __CxxThrowException@8      1001d663 f   libvcruntime:throw.obj
 0001:0001c6d1       ?_CallCatchBlock2@@YAPAXPAUEHRegistrationNode@@PBU_s_FuncInfo@@PAXHK@Z 1001d6d1 f   libvcruntime:trnsctrl.obj
 0001:0001c731       ?_CallSETranslator@@YAHPAUEHExceptionRecord@@PAUEHRegistrationNode@@PAX2PBU_s_FuncInfo@@H1@Z 1001d731 f   libvcruntime:trnsctrl.obj
 0001:0001c80e       ?_GetRangeOfTrysToCheck@@YAPBU_s_TryBlockMapEntry@@PBU_s_FuncInfo@@HHPAI1@Z 1001d80e f   libvcruntime:trnsctrl.obj
 0001:0001c886       ?_JumpToContinuation@@YGXPAXPAUEHRegistrationNode@@@Z 1001d886 f   libvcruntime:trnsctrl.obj
 0001:0001c8b8       ?_UnwindNestedFrames@@YGXPAUEHRegistrationNode@@PAUEHExceptionRecord@@@Z 1001d8b8 f   libvcruntime:trnsctrl.obj
 0001:0001c90d       __CatchGuardHandler        1001d90d f   libvcruntime:trnsctrl.obj
 0001:0001c93e       __CreateFrameInfo          1001d93e f   libvcruntime:trnsctrl.obj
 0001:0001c962       __FindAndUnlinkFrame       1001d962 f   libvcruntime:trnsctrl.obj
 0001:0001c9ac       __IsExceptionObjectToBeDestroyed 1001d9ac f   libvcruntime:trnsctrl.obj
 0001:0001c9d2       __TranslatorGuardHandler   1001d9d2 f   libvcruntime:trnsctrl.obj
 0001:0001ca71       ___CxxFrameHandler3        1001da71 f   libvcruntime:trnsctrl.obj
 0001:0001cab0       _memcpy                    1001dab0 f   libvcruntime:memcpy.obj
 0001:0001d030       _memset                    1001e030 f   libvcruntime:memset.obj
 0001:0001d190       _memchr                    1001e190 f   libvcruntime:memchr.obj
 0001:0001d23d       _memcmp                    1001e23d f   libvcruntime:_memcmp_.obj
 0001:0001eade       ___vcrt_FlsAlloc           1001fade f   libvcruntime:winapi_downlevel.obj
 0001:0001eb18       ___vcrt_FlsFree            1001fb18 f   libvcruntime:winapi_downlevel.obj
 0001:0001eb52       ___vcrt_FlsGetValue        1001fb52 f   libvcruntime:winapi_downlevel.obj
 0001:0001eb8c       ___vcrt_FlsSetValue        1001fb8c f   libvcruntime:winapi_downlevel.obj
 0001:0001ebc9       ___vcrt_InitializeCriticalSectionEx 1001fbc9 f   libvcruntime:winapi_downlevel.obj
 0001:0001ec0f       ___vcrt_initialize_winapi_thunks 1001fc0f f   libvcruntime:winapi_downlevel.obj
 0001:0001ec49       ___vcrt_uninitialize_winapi_thunks 1001fc49 f   libvcruntime:winapi_downlevel.obj
 0001:0001ec7b       ___vcrt_initialize         1001fc7b f   libvcruntime:initialization.obj
 0001:0001eca4       ___vcrt_thread_attach      1001fca4 f   libvcruntime:initialization.obj
 0001:0001ecaf       ___vcrt_thread_detach      1001fcaf f   libvcruntime:initialization.obj
 0001:0001ecba       ___vcrt_uninitialize       1001fcba f   libvcruntime:initialization.obj
 0001:0001ecd9       ___vcrt_uninitialize_critical 1001fcd9 f   libvcruntime:initialization.obj
 0001:0001ed30       __except_handler4          1001fd30 f   libvcruntime:_chandler4_.obj
 0001:0001ee96       ___std_type_info_compare   1001fe96 f   libvcruntime:std_type_info.obj
 0001:0001eed2       ___std_type_info_destroy_list 1001fed2 f   libvcruntime:std_type_info.obj
 0001:0001eef5       ___vcrt_initialize_pure_virtual_call_handler 1001fef5 f   libvcruntime:purevirt_data.obj
 0001:0001ef12       _unexpected                1001ff12 f   libvcruntime:unexpected.obj
 0001:0001ef2e       ___vcrt_freefls@4          1001ff2e f   libvcruntime:per_thread_data.obj
 0001:0001ef4a       ___vcrt_freeptd            1001ff4a f   libvcruntime:per_thread_data.obj
 0001:0001ef80       ___vcrt_getptd             1001ff80 f   libvcruntime:per_thread_data.obj
 0001:0001ef8e       ___vcrt_getptd_noexit      1001ff8e f   libvcruntime:per_thread_data.obj
 0001:0001f020       ___vcrt_initialize_ptd     10020020 f   libvcruntime:per_thread_data.obj
 0001:0001f053       ___vcrt_uninitialize_ptd   10020053 f   libvcruntime:per_thread_data.obj
 0001:0001f070       __CallSettingFrame@12      10020070 f   libvcruntime:lowhelpr.obj
 0001:0001f097       __NLG_Return               10020097     libvcruntime:lowhelpr.obj
 0001:0001f0bc       ___vcrt_initialize_locks   100200bc f   libvcruntime:locks.obj
 0001:0001f0f8       ___vcrt_uninitialize_locks 100200f8 f   libvcruntime:locks.obj
 0001:0001f130       __local_unwind4            10020130 f   libvcruntime:_exsup4_.obj
 0001:0001f206       __seh_longjmp_unwind4@4    10020206 f   libvcruntime:_exsup4_.obj
 0001:0001f22e       @_EH4_CallFilterFunc@8     1002022e f   libvcruntime:_exsup4_.obj
 0001:0001f245       @_EH4_TransferToHandler@8  10020245 f   libvcruntime:_exsup4_.obj
 0001:0001f25e       @_EH4_GlobalUnwind2@8      1002025e f   libvcruntime:_exsup4_.obj
 0001:0001f277       @_EH4_LocalUnwind@16       10020277 f   libvcruntime:_exsup4_.obj
 0001:0001f290       __global_unwind2           10020290 f   libvcruntime:_exsup_.obj
 0001:0001f2f5       __local_unwind2            100202f5 f   libvcruntime:_exsup_.obj
 0001:0001f379       __abnormal_termination     10020379 f   libvcruntime:_exsup_.obj
 0001:0001f39c       __NLG_Notify1              1002039c f   libvcruntime:_exsup_.obj
 0001:0001f3a5       __NLG_Notify               100203a5 f   libvcruntime:_exsup_.obj
 0001:0001f3bc       __NLG_Dispatch             100203bc     libvcruntime:_exsup_.obj
 0001:0001f3bc       __NLG_Dispatch2            100203bc     libvcruntime:_exsup_.obj
 0001:0001f3c4       __NLG_Call                 100203c4 f   libvcruntime:_exsup_.obj
 0001:0001f3c6       __NLG_Return2              100203c6     libvcruntime:_exsup_.obj
 0001:0001f3c7       __aligned_free             100203c7 f   libucrt:align.obj
 0001:0001f3cc       __aligned_free_base        100203cc f   libucrt:align.obj
 0001:0001f3e6       __aligned_malloc           100203e6 f   libucrt:align.obj
 0001:0001f3f1       __aligned_malloc_base      100203f1 f   libucrt:align.obj
 0001:0001f408       __aligned_offset_malloc_base 10020408 f   libucrt:align.obj
 0001:0001f492       _abort                     10020492 f   libucrt:abort.obj
 0001:0001f4d5       _calloc                    100204d5 f   libucrt:calloc.obj
 0001:0001f4e0       ___acrt_call_reportfault   100204e0 f   libucrt:invalid_parameter.obj
 0001:0001f61b       ___acrt_initialize_invalid_parameter_handler 1002061b f   libucrt:invalid_parameter.obj
 0001:0001f62f       __invalid_parameter        1002062f f   libucrt:invalid_parameter.obj
 0001:0001f6aa       __invalid_parameter_noinfo 100206aa f   libucrt:invalid_parameter.obj
 0001:0001f6ba       __invalid_parameter_noinfo_noreturn 100206ba f   libucrt:invalid_parameter.obj
 0001:0001f6d7       __invoke_watson            100206d7 f   libucrt:invalid_parameter.obj
 0001:0001f710       _strcspn                   10020710 f   libucrt:strcspn.obj
 0001:0001f756       ??$?RV<lambda_ab9923ffb5d694ec0d78876dd103e44f>@@AAV<lambda_481dd5778c961fbcd3b60b650e9b9dc4>@@V<lambda_7923d86c9e3f319b415918ec4b39749c>@@@?$__crt_seh_guarded_call@H@@QAEH$$QAV<lambda_ab9923ffb5d694ec0d78876dd103e44f>@@AAV<lambda_481dd5778c961fbcd3b60b650e9b9dc4>@@$$QAV<lambda_7923d86c9e3f319b415918ec4b39749c>@@@Z 10020756 f i libucrt:output.obj
 0001:0001f7a7       ??$__acrt_lock_stream_and_call@V<lambda_481dd5778c961fbcd3b60b650e9b9dc4>@@@@YAHQAU_iobuf@@$$QAV<lambda_481dd5778c961fbcd3b60b650e9b9dc4>@@@Z 100207a7 f i libucrt:output.obj
 0001:0001fb48       ??$count@D@formatting_buffer@__crt_stdio_output@@QBEIXZ 10020b48 f i libucrt:output.obj
 0001:0001fb60       ??$ensure_buffer_is_big_enough@D@formatting_buffer@__crt_stdio_output@@QAE_NI@Z 10020b60 f i libucrt:output.obj
 0001:0001fbe6       ??$is_wide_character_specifier@D@__crt_stdio_output@@YA_N_KDW4length_modifier@0@@Z 10020be6 f i libucrt:output.obj
 0001:0001fc26       ??$is_wide_character_specifier@_W@__crt_stdio_output@@YA_N_K_WW4length_modifier@0@@Z 10020c26 f i libucrt:output.obj
 0001:0001fc75       ??$scratch_data@D@formatting_buffer@__crt_stdio_output@@QAEPADXZ 10020c75 f i libucrt:output.obj
 0001:0001fc93       ??$type_case_integer_parse_into_buffer@I@?$output_processor@_WV?$string_output_adapter@_W@__crt_stdio_output@@V?$standard_base@_WV?$string_output_adapter@_W@__crt_stdio_output@@@2@@__crt_stdio_output@@AAEXII_N@Z 10020c93 f i libucrt:output.obj
 0001:0001fc93       ??$type_case_integer_parse_into_buffer@I@?$output_processor@DV?$string_output_adapter@D@__crt_stdio_output@@V?$format_validation_base@DV?$string_output_adapter@D@__crt_stdio_output@@@2@@__crt_stdio_output@@AAEXII_N@Z 10020c93 f i libucrt:output.obj
 0001:0001fc93       ??$type_case_integer_parse_into_buffer@I@?$output_processor@_WV?$stream_output_adapter@_W@__crt_stdio_output@@V?$standard_base@_WV?$stream_output_adapter@_W@__crt_stdio_output@@@2@@__crt_stdio_output@@AAEXII_N@Z 10020c93 f i libucrt:output.obj
 0001:0001fd08       ??$type_case_integer_parse_into_buffer@_K@?$output_processor@_WV?$string_output_adapter@_W@__crt_stdio_output@@V?$standard_base@_WV?$string_output_adapter@_W@__crt_stdio_output@@@2@@__crt_stdio_output@@AAEX_KI_N@Z 10020d08 f i libucrt:output.obj
 0001:0001fd08       ??$type_case_integer_parse_into_buffer@_K@?$output_processor@_WV?$stream_output_adapter@_W@__crt_stdio_output@@V?$standard_base@_WV?$stream_output_adapter@_W@__crt_stdio_output@@@2@@__crt_stdio_output@@AAEX_KI_N@Z 10020d08 f i libucrt:output.obj
 0001:0001fd08       ??$type_case_integer_parse_into_buffer@_K@?$output_processor@DV?$string_output_adapter@D@__crt_stdio_output@@V?$format_validation_base@DV?$string_output_adapter@D@__crt_stdio_output@@@2@@__crt_stdio_output@@AAEX_KI_N@Z 10020d08 f i libucrt:output.obj
 0001:0001fd90       ??$write_multiple_characters@V?$stream_output_adapter@_W@__crt_stdio_output@@D@__crt_stdio_output@@YAXABV?$stream_output_adapter@_W@0@DHQAH@Z 10020d90 f i libucrt:output.obj
 0001:0001fdc1       ??$write_multiple_characters@V?$string_output_adapter@D@__crt_stdio_output@@D@__crt_stdio_output@@YAXABV?$string_output_adapter@D@0@DHQAH@Z 10020dc1 f i libucrt:output.obj
 0001:0001fded       ??$write_multiple_characters@V?$string_output_adapter@_W@__crt_stdio_output@@D@__crt_stdio_output@@YAXABV?$string_output_adapter@_W@0@DHQAH@Z 10020ded f i libucrt:output.obj
 0001:0001fe1e       ??0?$common_data@D@__crt_stdio_output@@IAE@XZ 10020e1e f i libucrt:output.obj
 0001:0001fe65       ??0?$common_data@_W@__crt_stdio_output@@IAE@XZ 10020e65 f i libucrt:output.obj
 0001:0001feb1       ??0?$output_adapter_data@DV?$string_output_adapter@D@__crt_stdio_output@@@__crt_stdio_output@@IAE@ABV?$string_output_adapter@D@1@_KQBDQAU__crt_locale_pointers@@QAD@Z 10020eb1 f i libucrt:output.obj
 0001:0001feed       ??0?$output_adapter_data@_WV?$stream_output_adapter@_W@__crt_stdio_output@@@__crt_stdio_output@@IAE@ABV?$stream_output_adapter@_W@1@_KQB_WQAU__crt_locale_pointers@@QAD@Z 10020eed f i libucrt:output.obj
 0001:0001feed       ??0?$output_adapter_data@_WV?$string_output_adapter@_W@__crt_stdio_output@@@__crt_stdio_output@@IAE@ABV?$string_output_adapter@_W@1@_KQB_WQAU__crt_locale_pointers@@QAD@Z 10020eed f i libucrt:output.obj
 0001:0001ff29       ??0?$output_processor@DV?$string_output_adapter@D@__crt_stdio_output@@V?$format_validation_base@DV?$string_output_adapter@D@__crt_stdio_output@@@2@@__crt_stdio_output@@QAE@ABV?$string_output_adapter@D@1@_KQBDQAU__crt_locale_pointers@@QAD@Z 10020f29 f i libucrt:output.obj
 0001:0001ff5e       ??0?$output_processor@_WV?$string_output_adapter@_W@__crt_stdio_output@@V?$standard_base@_WV?$string_output_adapter@_W@__crt_stdio_output@@@2@@__crt_stdio_output@@QAE@ABV?$string_output_adapter@_W@1@_KQB_WQAU__crt_locale_pointers@@QAD@Z 10020f5e f i libucrt:output.obj
 0001:0001ff5e       ??0?$output_processor@_WV?$stream_output_adapter@_W@__crt_stdio_output@@V?$standard_base@_WV?$stream_output_adapter@_W@__crt_stdio_output@@@2@@__crt_stdio_output@@QAE@ABV?$stream_output_adapter@_W@1@_KQB_WQAU__crt_locale_pointers@@QAD@Z 10020f5e f i libucrt:output.obj
 0001:0001ff93       ??0_LocaleUpdate@@QAE@QAU__crt_locale_pointers@@@Z 10020f93 f i libucrt:output.obj
 0001:00020016       ??1formatting_buffer@__crt_stdio_output@@QAE@XZ 10021016 f i libucrt:output.obj
 0001:00020030       ??4?$__crt_unique_heap_ptr@DU__crt_internal_free_policy@@@@QAEAAV0@$$QAV0@@Z 10021030 f i libucrt:output.obj
 0001:00020111       ?crop_zeroes@__crt_stdio_output@@YAXPADQAU__crt_locale_pointers@@@Z 10021111 f i libucrt:output.obj
 0001:00020168       ?find_next_state@?$output_processor@DV?$string_output_adapter@D@__crt_stdio_output@@V?$format_validation_base@DV?$string_output_adapter@D@__crt_stdio_output@@@2@@__crt_stdio_output@@ABE?AW4state@2@DW432@@Z 10021168 f i libucrt:output.obj
 0001:0002019d       ?find_next_state@?$output_processor@_WV?$stream_output_adapter@_W@__crt_stdio_output@@V?$standard_base@_WV?$stream_output_adapter@_W@__crt_stdio_output@@@2@@__crt_stdio_output@@ABE?AW4state@2@_WW432@@Z 1002119d f i libucrt:output.obj
 0001:0002019d       ?find_next_state@?$output_processor@_WV?$string_output_adapter@_W@__crt_stdio_output@@V?$standard_base@_WV?$string_output_adapter@_W@__crt_stdio_output@@@2@@__crt_stdio_output@@ABE?AW4state@2@_WW432@@Z 1002119d f i libucrt:output.obj
 0001:000201d1       ?force_decimal_point@__crt_stdio_output@@YAXPADQAU__crt_locale_pointers@@@Z 100211d1 f i libucrt:output.obj
 0001:0002022d       ?parse_int_from_format_string@?$output_processor@DV?$string_output_adapter@D@__crt_stdio_output@@V?$format_validation_base@DV?$string_output_adapter@D@__crt_stdio_output@@@2@@__crt_stdio_output@@AAE_NQAH@Z 1002122d f i libucrt:output.obj
 0001:00020289       ?parse_int_from_format_string@?$output_processor@_WV?$stream_output_adapter@_W@__crt_stdio_output@@V?$standard_base@_WV?$stream_output_adapter@_W@__crt_stdio_output@@@2@@__crt_stdio_output@@AAE_NQAH@Z 10021289 f i libucrt:output.obj
 0001:00020289       ?parse_int_from_format_string@?$output_processor@_WV?$string_output_adapter@_W@__crt_stdio_output@@V?$standard_base@_WV?$string_output_adapter@_W@__crt_stdio_output@@@2@@__crt_stdio_output@@AAE_NQAH@Z 10021289 f i libucrt:output.obj
 0001:000202e7       ?process@?$output_processor@DV?$string_output_adapter@D@__crt_stdio_output@@V?$format_validation_base@DV?$string_output_adapter@D@__crt_stdio_output@@@2@@__crt_stdio_output@@QAEHXZ 100212e7 f i libucrt:output.obj
 0001:0002040f       ?process@?$output_processor@_WV?$stream_output_adapter@_W@__crt_stdio_output@@V?$standard_base@_WV?$stream_output_adapter@_W@__crt_stdio_output@@@2@@__crt_stdio_output@@QAEHXZ 1002140f f i libucrt:output.obj
 0001:0002052f       ?process@?$output_processor@_WV?$string_output_adapter@_W@__crt_stdio_output@@V?$standard_base@_WV?$string_output_adapter@_W@__crt_stdio_output@@@2@@__crt_stdio_output@@QAEHXZ 1002152f f i libucrt:output.obj
 0001:0002064f       ?state_case_flag@?$output_processor@DV?$string_output_adapter@D@__crt_stdio_output@@V?$format_validation_base@DV?$string_output_adapter@D@__crt_stdio_output@@@2@@__crt_stdio_output@@AAE_NXZ 1002164f f i libucrt:output.obj
 0001:0002068c       ?state_case_flag@?$output_processor@_WV?$stream_output_adapter@_W@__crt_stdio_output@@V?$standard_base@_WV?$stream_output_adapter@_W@__crt_stdio_output@@@2@@__crt_stdio_output@@AAE_NXZ 1002168c f i libucrt:output.obj
 0001:0002068c       ?state_case_flag@?$output_processor@_WV?$string_output_adapter@_W@__crt_stdio_output@@V?$standard_base@_WV?$string_output_adapter@_W@__crt_stdio_output@@@2@@__crt_stdio_output@@AAE_NXZ 1002168c f i libucrt:output.obj
 0001:000206c9       ?state_case_normal@?$output_processor@DV?$string_output_adapter@D@__crt_stdio_output@@V?$format_validation_base@DV?$string_output_adapter@D@__crt_stdio_output@@@2@@__crt_stdio_output@@AAE_NXZ 100216c9 f i libucrt:output.obj
 0001:000206e8       ?state_case_normal@?$output_processor@_WV?$stream_output_adapter@_W@__crt_stdio_output@@V?$standard_base@_WV?$stream_output_adapter@_W@__crt_stdio_output@@@2@@__crt_stdio_output@@AAE_NXZ 100216e8 f i libucrt:output.obj
 0001:00020707       ?state_case_normal@?$output_processor@_WV?$string_output_adapter@_W@__crt_stdio_output@@V?$standard_base@_WV?$string_output_adapter@_W@__crt_stdio_output@@@2@@__crt_stdio_output@@AAE_NXZ 10021707 f i libucrt:output.obj
 0001:00020726       ?state_case_normal_common@?$output_processor@DV?$string_output_adapter@D@__crt_stdio_output@@V?$format_validation_base@DV?$string_output_adapter@D@__crt_stdio_output@@@2@@__crt_stdio_output@@AAE_NXZ 10021726 f i libucrt:output.obj
 0001:00020750       ?state_case_normal_common@?$output_processor@_WV?$stream_output_adapter@_W@__crt_stdio_output@@V?$standard_base@_WV?$stream_output_adapter@_W@__crt_stdio_output@@@2@@__crt_stdio_output@@AAE_NXZ 10021750 f i libucrt:output.obj
 0001:0002076b       ?state_case_normal_common@?$output_processor@_WV?$string_output_adapter@_W@__crt_stdio_output@@V?$standard_base@_WV?$string_output_adapter@_W@__crt_stdio_output@@@2@@__crt_stdio_output@@AAE_NXZ 1002176b f i libucrt:output.obj
 0001:00020786       ?state_case_normal_tchar@?$output_processor@DV?$string_output_adapter@D@__crt_stdio_output@@V?$format_validation_base@DV?$string_output_adapter@D@__crt_stdio_output@@@2@@__crt_stdio_output@@AAE_ND@Z 10021786 f i libucrt:output.obj
 0001:000207e7       ?state_case_precision@?$output_processor@DV?$string_output_adapter@D@__crt_stdio_output@@V?$format_validation_base@DV?$string_output_adapter@D@__crt_stdio_output@@@2@@__crt_stdio_output@@AAE_NXZ 100217e7 f i libucrt:output.obj
 0001:0002080f       ?state_case_precision@?$output_processor@_WV?$string_output_adapter@_W@__crt_stdio_output@@V?$standard_base@_WV?$string_output_adapter@_W@__crt_stdio_output@@@2@@__crt_stdio_output@@AAE_NXZ 1002180f f i libucrt:output.obj
 0001:0002080f       ?state_case_precision@?$output_processor@_WV?$stream_output_adapter@_W@__crt_stdio_output@@V?$standard_base@_WV?$stream_output_adapter@_W@__crt_stdio_output@@@2@@__crt_stdio_output@@AAE_NXZ 1002180f f i libucrt:output.obj
 0001:00020838       ?state_case_size@?$output_processor@DV?$string_output_adapter@D@__crt_stdio_output@@V?$format_validation_base@DV?$string_output_adapter@D@__crt_stdio_output@@@2@@__crt_stdio_output@@AAE_NXZ 10021838 f i libucrt:output.obj
 0001:000209a1       ?state_case_size@?$output_processor@_WV?$stream_output_adapter@_W@__crt_stdio_output@@V?$standard_base@_WV?$stream_output_adapter@_W@__crt_stdio_output@@@2@@__crt_stdio_output@@AAE_NXZ 100219a1 f i libucrt:output.obj
 0001:00020b1d       ?state_case_size@?$output_processor@_WV?$string_output_adapter@_W@__crt_stdio_output@@V?$standard_base@_WV?$string_output_adapter@_W@__crt_stdio_output@@@2@@__crt_stdio_output@@AAE_NXZ 10021b1d f i libucrt:output.obj
 0001:00020c99       ?state_case_type@?$output_processor@DV?$string_output_adapter@D@__crt_stdio_output@@V?$format_validation_base@DV?$string_output_adapter@D@__crt_stdio_output@@@2@@__crt_stdio_output@@AAE_NXZ 10021c99 f i libucrt:output.obj
 0001:00020ec8       ?state_case_type@?$output_processor@_WV?$stream_output_adapter@_W@__crt_stdio_output@@V?$standard_base@_WV?$stream_output_adapter@_W@__crt_stdio_output@@@2@@__crt_stdio_output@@AAE_NXZ 10021ec8 f i libucrt:output.obj
 0001:00021125       ?state_case_type@?$output_processor@_WV?$string_output_adapter@_W@__crt_stdio_output@@V?$standard_base@_WV?$string_output_adapter@_W@__crt_stdio_output@@@2@@__crt_stdio_output@@AAE_NXZ 10022125 f i libucrt:output.obj
 0001:00021382       ?state_case_width@?$output_processor@DV?$string_output_adapter@D@__crt_stdio_output@@V?$format_validation_base@DV?$string_output_adapter@D@__crt_stdio_output@@@2@@__crt_stdio_output@@AAE_NXZ 10022382 f i libucrt:output.obj
 0001:000213ad       ?state_case_width@?$output_processor@_WV?$string_output_adapter@_W@__crt_stdio_output@@V?$standard_base@_WV?$string_output_adapter@_W@__crt_stdio_output@@@2@@__crt_stdio_output@@AAE_NXZ 100223ad f i libucrt:output.obj
 0001:000213ad       ?state_case_width@?$output_processor@_WV?$stream_output_adapter@_W@__crt_stdio_output@@V?$standard_base@_WV?$stream_output_adapter@_W@__crt_stdio_output@@@2@@__crt_stdio_output@@AAE_NXZ 100223ad f i libucrt:output.obj
 0001:000213d9       ?to_integer_size@__crt_stdio_output@@YAIW4length_modifier@1@@Z 100223d9 f i libucrt:output.obj
 0001:00021435       ?type_case_Z@?$output_processor@DV?$string_output_adapter@D@__crt_stdio_output@@V?$format_validation_base@DV?$string_output_adapter@D@__crt_stdio_output@@@2@@__crt_stdio_output@@AAE_NXZ 10022435 f i libucrt:output.obj
 0001:00021498       ?type_case_Z@?$output_processor@_WV?$stream_output_adapter@_W@__crt_stdio_output@@V?$standard_base@_WV?$stream_output_adapter@_W@__crt_stdio_output@@@2@@__crt_stdio_output@@AAE_NXZ 10022498 f i libucrt:output.obj
 0001:00021498       ?type_case_Z@?$output_processor@_WV?$string_output_adapter@_W@__crt_stdio_output@@V?$standard_base@_WV?$string_output_adapter@_W@__crt_stdio_output@@@2@@__crt_stdio_output@@AAE_NXZ 10022498 f i libucrt:output.obj
 0001:000214fb       ?type_case_a@?$output_processor@DV?$string_output_adapter@D@__crt_stdio_output@@V?$format_validation_base@DV?$string_output_adapter@D@__crt_stdio_output@@@2@@__crt_stdio_output@@AAE_NXZ 100224fb f i libucrt:output.obj
 0001:00021655       ?type_case_a@?$output_processor@_WV?$string_output_adapter@_W@__crt_stdio_output@@V?$standard_base@_WV?$string_output_adapter@_W@__crt_stdio_output@@@2@@__crt_stdio_output@@AAE_NXZ 10022655 f i libucrt:output.obj
 0001:00021655       ?type_case_a@?$output_processor@_WV?$stream_output_adapter@_W@__crt_stdio_output@@V?$standard_base@_WV?$stream_output_adapter@_W@__crt_stdio_output@@@2@@__crt_stdio_output@@AAE_NXZ 10022655 f i libucrt:output.obj
 0001:000217c7       ?type_case_c_tchar@?$output_processor@DV?$string_output_adapter@D@__crt_stdio_output@@V?$format_validation_base@DV?$string_output_adapter@D@__crt_stdio_output@@@2@@__crt_stdio_output@@AAE_ND@Z 100227c7 f i libucrt:output.obj
 0001:00021857       ?type_case_c_tchar@?$output_processor@_WV?$string_output_adapter@_W@__crt_stdio_output@@V?$standard_base@_WV?$string_output_adapter@_W@__crt_stdio_output@@@2@@__crt_stdio_output@@AAE_N_W@Z 10022857 f i libucrt:output.obj
 0001:00021857       ?type_case_c_tchar@?$output_processor@_WV?$stream_output_adapter@_W@__crt_stdio_output@@V?$standard_base@_WV?$stream_output_adapter@_W@__crt_stdio_output@@@2@@__crt_stdio_output@@AAE_N_W@Z 10022857 f i libucrt:output.obj
 0001:000218ef       ?type_case_integer@?$output_processor@_WV?$stream_output_adapter@_W@__crt_stdio_output@@V?$standard_base@_WV?$stream_output_adapter@_W@__crt_stdio_output@@@2@@__crt_stdio_output@@AAE_NI_N@Z 100228ef f i libucrt:output.obj
 0001:000218ef       ?type_case_integer@?$output_processor@DV?$string_output_adapter@D@__crt_stdio_output@@V?$format_validation_base@DV?$string_output_adapter@D@__crt_stdio_output@@@2@@__crt_stdio_output@@AAE_NI_N@Z 100228ef f i libucrt:output.obj
 0001:000218ef       ?type_case_integer@?$output_processor@_WV?$string_output_adapter@_W@__crt_stdio_output@@V?$standard_base@_WV?$string_output_adapter@_W@__crt_stdio_output@@@2@@__crt_stdio_output@@AAE_NI_N@Z 100228ef f i libucrt:output.obj
 0001:00021a39       ?type_case_n@?$output_processor@_WV?$stream_output_adapter@_W@__crt_stdio_output@@V?$standard_base@_WV?$stream_output_adapter@_W@__crt_stdio_output@@@2@@__crt_stdio_output@@AAE_NXZ 10022a39 f i libucrt:output.obj
 0001:00021a39       ?type_case_n@?$output_processor@_WV?$string_output_adapter@_W@__crt_stdio_output@@V?$standard_base@_WV?$string_output_adapter@_W@__crt_stdio_output@@@2@@__crt_stdio_output@@AAE_NXZ 10022a39 f i libucrt:output.obj
 0001:00021a39       ?type_case_n@?$output_processor@DV?$string_output_adapter@D@__crt_stdio_output@@V?$format_validation_base@DV?$string_output_adapter@D@__crt_stdio_output@@@2@@__crt_stdio_output@@AAE_NXZ 10022a39 f i libucrt:output.obj
 0001:00021aad       ?type_case_o@?$output_processor@_WV?$string_output_adapter@_W@__crt_stdio_output@@V?$standard_base@_WV?$string_output_adapter@_W@__crt_stdio_output@@@2@@__crt_stdio_output@@AAE_NXZ 10022aad f i libucrt:output.obj
 0001:00021aad       ?type_case_o@?$output_processor@DV?$string_output_adapter@D@__crt_stdio_output@@V?$format_validation_base@DV?$string_output_adapter@D@__crt_stdio_output@@@2@@__crt_stdio_output@@AAE_NXZ 10022aad f i libucrt:output.obj
 0001:00021aad       ?type_case_o@?$output_processor@_WV?$stream_output_adapter@_W@__crt_stdio_output@@V?$standard_base@_WV?$stream_output_adapter@_W@__crt_stdio_output@@@2@@__crt_stdio_output@@AAE_NXZ 10022aad f i libucrt:output.obj
 0001:00021acc       ?type_case_p@?$output_processor@_WV?$string_output_adapter@_W@__crt_stdio_output@@V?$standard_base@_WV?$string_output_adapter@_W@__crt_stdio_output@@@2@@__crt_stdio_output@@AAE_NXZ 10022acc f i libucrt:output.obj
 0001:00021acc       ?type_case_p@?$output_processor@_WV?$stream_output_adapter@_W@__crt_stdio_output@@V?$standard_base@_WV?$stream_output_adapter@_W@__crt_stdio_output@@@2@@__crt_stdio_output@@AAE_NXZ 10022acc f i libucrt:output.obj
 0001:00021acc       ?type_case_p@?$output_processor@DV?$string_output_adapter@D@__crt_stdio_output@@V?$format_validation_base@DV?$string_output_adapter@D@__crt_stdio_output@@@2@@__crt_stdio_output@@AAE_NXZ 10022acc f i libucrt:output.obj
 0001:00021ae4       ?type_case_s@?$output_processor@DV?$string_output_adapter@D@__crt_stdio_output@@V?$format_validation_base@DV?$string_output_adapter@D@__crt_stdio_output@@@2@@__crt_stdio_output@@AAE_NXZ 10022ae4 f i libucrt:output.obj
 0001:00021b57       ?type_case_s@?$output_processor@_WV?$stream_output_adapter@_W@__crt_stdio_output@@V?$standard_base@_WV?$stream_output_adapter@_W@__crt_stdio_output@@@2@@__crt_stdio_output@@AAE_NXZ 10022b57 f i libucrt:output.obj
 0001:00021b57       ?type_case_s@?$output_processor@_WV?$string_output_adapter@_W@__crt_stdio_output@@V?$standard_base@_WV?$string_output_adapter@_W@__crt_stdio_output@@@2@@__crt_stdio_output@@AAE_NXZ 10022b57 f i libucrt:output.obj
 0001:00021bcb       ?type_case_s_compute_narrow_string_length@?$output_processor@_WV?$stream_output_adapter@_W@__crt_stdio_output@@V?$standard_base@_WV?$stream_output_adapter@_W@__crt_stdio_output@@@2@@__crt_stdio_output@@ABEHH_W@Z 10022bcb f i libucrt:output.obj
 0001:00021bcb       ?type_case_s_compute_narrow_string_length@?$output_processor@_WV?$string_output_adapter@_W@__crt_stdio_output@@V?$standard_base@_WV?$string_output_adapter@_W@__crt_stdio_output@@@2@@__crt_stdio_output@@ABEHH_W@Z 10022bcb f i libucrt:output.obj
 0001:00021c0b       ?validate@?$string_output_adapter@_W@__crt_stdio_output@@QBE_NXZ 10022c0b f i libucrt:output.obj
 0001:00021c0b       ?validate@?$c_string_character_source@_W@__crt_strtox@@QBE_NXZ 10022c0b f i libucrt:strtod.obj
 0001:00021c0b       ?validate@?$stream_output_adapter@_W@__crt_stdio_output@@QBE_NXZ 10022c0b f i libucrt:output.obj
 0001:00021c0b       ?validate@?$c_string_character_source@D@__crt_strtox@@QBE_NXZ 10022c0b f i libucrt:strtod.obj
 0001:00021c0b       ?validate@?$string_output_adapter@D@__crt_stdio_output@@QBE_NXZ 10022c0b f i libucrt:output.obj
 0001:00021c26       ?validate_and_update_state_at_end_of_format_string@?$format_validation_base@DV?$string_output_adapter@D@__crt_stdio_output@@@__crt_stdio_output@@IBE_NXZ 10022c26 f i libucrt:output.obj
 0001:00021c48       ?write_character@?$stream_output_adapter@_W@__crt_stdio_output@@QBEX_WQAH@Z 10022c48 f i libucrt:output.obj
 0001:00021c88       ?write_character@?$string_output_adapter@D@__crt_stdio_output@@QBE_NDQAH@Z 10022c88 f i libucrt:output.obj
 0001:00021cca       ?write_character@?$string_output_adapter@_W@__crt_stdio_output@@QBE_N_WQAH@Z 10022cca f i libucrt:output.obj
 0001:00021d0f       ?write_stored_string_tchar@?$output_processor@DV?$string_output_adapter@D@__crt_stdio_output@@V?$format_validation_base@DV?$string_output_adapter@D@__crt_stdio_output@@@2@@__crt_stdio_output@@AAE_ND@Z 10022d0f f i libucrt:output.obj
 0001:00021db6       ?write_stored_string_tchar@?$output_processor@_WV?$stream_output_adapter@_W@__crt_stdio_output@@V?$standard_base@_WV?$stream_output_adapter@_W@__crt_stdio_output@@@2@@__crt_stdio_output@@AAE_N_W@Z 10022db6 f i libucrt:output.obj
 0001:00021e41       ?write_stored_string_tchar@?$output_processor@_WV?$string_output_adapter@_W@__crt_stdio_output@@V?$standard_base@_WV?$string_output_adapter@_W@__crt_stdio_output@@@2@@__crt_stdio_output@@AAE_N_W@Z 10022e41 f i libucrt:output.obj
 0001:00021ecc       ?write_string@?$stream_output_adapter@_W@__crt_stdio_output@@QBEXQB_WHQAH1@Z 10022ecc f i libucrt:output.obj
 0001:00021f59       ?write_string@?$string_output_adapter@D@__crt_stdio_output@@QBEXQBDHQAH1@Z 10022f59 f i libucrt:output.obj
 0001:00021fec       ?write_string@?$string_output_adapter@_W@__crt_stdio_output@@QBEXQB_WHQAH1@Z 10022fec f i libucrt:output.obj
 0001:00022086       ___stdio_common_vfwprintf  10023086 f   libucrt:output.obj
 0001:000220fd       ___stdio_common_vsprintf_s 100230fd f   libucrt:output.obj
 0001:00022121       ___stdio_common_vswprintf  10023121 f   libucrt:output.obj
 0001:00022145       _localeconv                10023145 f   libucrt:localeconv.obj
 0001:0002216f       _free                      1002316f f   libucrt:free.obj
 0001:00022174       _frexp                     10023174 f   libucrt:frexp.obj
 0001:000228d4       ??$ftprintf@PAU_iobuf@@PB_WABQB_WABQB_WABI@?$__crt_char_traits@_W@@SAH$$QAPAU_iobuf@@$$QAPB_WABQB_W2ABI@Z 100238d4 f i libucrt:assert.obj
 0001:000229b3       __vfwprintf_l              100239b3 f i libucrt:assert.obj
 0001:000229d8       __vswprintf_c_l            100239d8 f i libucrt:assert.obj
 0001:00022a07       __wassert                  10023a07 f   libucrt:assert.obj
 0001:00022a4f       _fwprintf                  10023a4f f i libucrt:assert.obj
 0001:00022a6a       _swprintf                  10023a6a f i libucrt:assert.obj
 0001:00022a88       __dtest                    10023a88 f   libucrt:_test.obj
 0001:00022aec       ___ascii_stricmp           10023aec f   libucrt:stricmp.obj
 0001:00022b27       __stricmp                  10023b27 f   libucrt:stricmp.obj
 0001:00022b6f       __stricmp_l                10023b6f f   libucrt:stricmp.obj
 0001:00022c09       ___acrt_initialize_locks   10023c09 f   libucrt:locks.obj
 0001:00022c4a       ___acrt_lock               10023c4a f   libucrt:locks.obj
 0001:00022c61       ___acrt_uninitialize_locks 10023c61 f   libucrt:locks.obj
 0001:00022c92       ___acrt_unlock             10023c92 f   libucrt:locks.obj
 0001:00022ca9       __lock_locales             10023ca9 f   libucrt:locks.obj
 0001:00022cb2       __unlock_locales           10023cb2 f   libucrt:locks.obj
 0001:00022cbb       ___acrt_errno_from_os_error 10023cbb f   libucrt:errno.obj
 0001:00022cfe       ___acrt_errno_map_os_error 10023cfe f   libucrt:errno.obj
 0001:00022d21       ___doserrno                10023d21 f   libucrt:errno.obj
 0001:00022d34       __errno                    10023d34 f   libucrt:errno.obj
 0001:00022d47       ___acrt_initialize_stdio   10023d47 f   libucrt:_file.obj
 0001:00022e0f       ___acrt_iob_func           10023e0f f   libucrt:_file.obj
 0001:00022e1f       ___acrt_uninitialize_stdio 10023e1f f   libucrt:_file.obj
 0001:00022e6b       __get_stream_buffer_pointers 10023e6b f   libucrt:_file.obj
 0001:00022eb1       __lock_file                10023eb1 f   libucrt:_file.obj
 0001:00022ec5       __unlock_file              10023ec5 f   libucrt:_file.obj
 0001:00022ed9       __fclose_nolock            10023ed9 f   libucrt:fclose.obj
 0001:00022f4f       _fclose                    10023f4f f   libucrt:fclose.obj
 0001:00022fcf       ___acrt_stdio_flush_nolock 10023fcf f   libucrt:fflush.obj
 0001:00023035       __fflush_nolock            10024035 f   libucrt:fflush.obj
 0001:0002307c       __flushall                 1002407c f   libucrt:fflush.obj
 0001:0002315d       _fflush                    1002415d f   libucrt:fflush.obj
 0001:000231b6       __fgetc_nolock             100241b6 f   libucrt:fgetc.obj
 0001:000231f2       _fgetc                     100241f2 f   libucrt:fgetc.obj
 0001:000232f4       _fgetpos                   100242f4 f   libucrt:fgetpos.obj
 0001:0002334f       __fputc_nolock             1002434f f   libucrt:fputc.obj
 0001:00023378       _fputc                     10024378 f   libucrt:fputc.obj
 0001:0002347c       _fsetpos                   1002447c f   libucrt:fsetpos.obj
 0001:000234b7       ?LongLongSub@@YAJ_J0PA_J@Z 100244b7 f i libucrt:fseek.obj
 0001:00023771       __fseeki64                 10024771 f   libucrt:fseek.obj
 0001:0002378c       ??$?RV<lambda_11b4f7b0d3157825a5656a18eba1ae27>@@AAV<lambda_b51c0495177f500e782686251704ae76>@@V<lambda_cf89b47920b5017557bfe891e78aca36>@@@?$__crt_seh_guarded_call@I@@QAEI$$QAV<lambda_11b4f7b0d3157825a5656a18eba1ae27>@@AAV<lambda_b51c0495177f500e782686251704ae76>@@$$QAV<lambda_cf89b47920b5017557bfe891e78aca36>@@@Z 1002478c f i libucrt:fwrite.obj
 0001:000237dd       ??$__acrt_lock_stream_and_call@V<lambda_b51c0495177f500e782686251704ae76>@@@@YAIQAU_iobuf@@$$QAV<lambda_b51c0495177f500e782686251704ae76>@@@Z 100247dd f i libucrt:fwrite.obj
 0001:0002384b       __fwrite_nolock            1002484b f   libucrt:fwrite.obj
 0001:000239c4       _fwrite                    100249c4 f   libucrt:fwrite.obj
 0001:00023a1c       ??$?RV<lambda_d92cfe8357b99225085016881b624cb0>@@AAV<lambda_b721fa326cdb32351d23dfa67958c160>@@V<lambda_42d75b0848218ec137fa420c8ba9fdf9>@@@?$__crt_seh_guarded_call@H@@QAEH$$QAV<lambda_d92cfe8357b99225085016881b624cb0>@@AAV<lambda_b721fa326cdb32351d23dfa67958c160>@@$$QAV<lambda_42d75b0848218ec137fa420c8ba9fdf9>@@@Z 10024a1c f i libucrt:setvbuf.obj
 0001:00023a6d       ??$__acrt_lock_stream_and_call@V<lambda_b721fa326cdb32351d23dfa67958c160>@@@@YAHQAU_iobuf@@$$QAV<lambda_b721fa326cdb32351d23dfa67958c160>@@@Z 10024a6d f i libucrt:setvbuf.obj
 0001:00023b62       _setvbuf                   10024b62 f   libucrt:setvbuf.obj
 0001:00023bd8       __ungetc_nolock            10024bd8 f   libucrt:ungetc.obj
 0001:00023cc7       _ungetc                    10024cc7 f   libucrt:ungetc.obj
 0001:00023d37       _malloc                    10024d37 f   libucrt:malloc.obj
 0001:00023ddf       _setlocale                 10024ddf f   libucrt:setlocale.obj
 0001:00023f3c       __calloc_base              10024f3c f   libucrt:calloc_base.obj
 0001:00023f99       ___pctype_func             10024f99 f   libucrt:ctype.obj
 0001:00023fbf       __chvalidchk_l             10024fbf f i libucrt:_ctype.obj
 0001:00023fe9       __ischartype_l             10024fe9 f i libucrt:_ctype.obj
 0001:0002401c       __isdigit_l                1002501c f i libucrt:_ctype.obj
 0001:00024054       __islower_l                10025054 f i libucrt:_ctype.obj
 0001:0002408c       __isupper_l                1002508c f i libucrt:_ctype.obj
 0001:000240c4       _isdigit                   100250c4 f i libucrt:_ctype.obj
 0001:000240f1       _islower                   100250f1 f i libucrt:_ctype.obj
 0001:0002411e       _isupper                   1002511e f i libucrt:_ctype.obj
 0001:0002414b       __wcsdup                   1002514b f   libucrt:wcsdup.obj
 0001:000241ac       ____lc_codepage_func       100251ac f   libucrt:initctype.obj
 0001:000241d3       ____lc_locale_name_func    100251d3 f   libucrt:initctype.obj
 0001:000241fc       ____mb_cur_max_func        100251fc f   libucrt:initctype.obj
 0001:00024223       ___acrt_locale_initialize_ctype 10025223 f   libucrt:initctype.obj
 0001:0002461a       __ismbblead                1002561a f   libucrt:ismbbyte.obj
 0001:00024632       __malloc_base              10025632 f   libucrt:malloc_base.obj
 0001:00024680       __realloc_base             10025680 f   libucrt:realloc_base.obj
 0001:000246f0       ?divide@__crt_strtox@@YA_KAAUbig_integer@1@ABU21@@Z 100256f0 f i libucrt:strtod.obj
 0001:00024b9e       ?unget@?$c_string_character_source@D@__crt_strtox@@QAEXD@Z 10025b9e f i libucrt:strtod.obj
 0001:00024bc6       ?unget@?$c_string_character_source@_W@__crt_strtox@@QAEX_W@Z 10025bc6 f i libucrt:strtod.obj
 0001:00024c00       _pow                       10025c00 f   libucrt:pow.obj
 0001:00024c40       __CIpow                    10025c40 f   libucrt:pow.obj
 0001:00024c7b       __CIpow_default            10025c7b f   libucrt:pow.obj
 0001:00024c94       __pow_default              10025c94     libucrt:pow.obj
 0001:00024e89       ___strncnt                 10025e89 f   libucrt:strncnt.obj
 0001:00024ea5       __free_base                10025ea5 f   libucrt:free_base.obj
 0001:00025046       __tolower_l                10026046 f   libucrt:tolower_toupper.obj
 0001:00025060       _tolower                   10026060 f   libucrt:tolower_toupper.obj
 0001:00025090       _wcscpy_s                  10026090 f   libucrt:wcscpy_s.obj
 0001:000250f4       _strnlen                   100260f4 f   libucrt:strnlen.obj
 0001:0002521b       _wcsnlen                   1002621b f   libucrt:strnlen.obj
 0001:000253d2       ___acrt_initialize_new_handler 100263d2 f   libucrt:new_handler.obj
 0001:000253e6       __callnewh                 100263e6 f   libucrt:new_handler.obj
 0001:0002542a       __query_new_handler        1002642a f   libucrt:new_handler.obj
 0001:0002547c       __seh_filter_dll           1002647c f   libucrt:exception_filter.obj
 0001:0002549c       __seh_filter_exe           1002649c f   libucrt:exception_filter.obj
 0001:0002582a       ___acrt_initialize_thread_local_exit_callback 1002682a f   libucrt:exit.obj
 0001:00025839       __cexit                    10026839 f   libucrt:exit.obj
 0001:00025848       __exit                     10026848 f   libucrt:exit.obj
 0001:0002585e       __is_c_termination_complete 1002685e f   libucrt:exit.obj
 0001:00025afd       ___acrt_allocate_buffer_for_argv 10026afd f   libucrt:argv_parsing.obj
 0001:00025b52       __configure_narrow_argv    10026b52 f   libucrt:argv_parsing.obj
 0001:00025cb6       ??$uninitialize@A6AXAAPAPAD@Z@?$dual_state_global@PAPAD@__crt_state_management@@QAEXA6AXAAPAPAD@Z@Z 10026cb6 f i libucrt:environment_initialization.obj
 0001:00025cb6       ??$uninitialize@A6AXAAPAPA_W@Z@?$dual_state_global@PAPA_W@__crt_state_management@@QAEXA6AXAAPAPA_W@Z@Z 10026cb6 f i libucrt:environment_initialization.obj
 0001:00025d2c       ___dcrt_uninitialize_environments_nolock 10026d2c f   libucrt:environment_initialization.obj
 0001:00025d63       __initialize_narrow_environment 10026d63 f   libucrt:environment_initialization.obj
 0001:00025d68       ??$?RV<lambda_800076c951b434888f4765a74a194fcc>@@AAV<lambda_4e60a939b0d047cfe11ddc22648dfba9>@@V<lambda_6dbb1268764f43b569ce7b67e331d33a>@@@?$__crt_seh_guarded_call@H@@QAEH$$QAV<lambda_800076c951b434888f4765a74a194fcc>@@AAV<lambda_4e60a939b0d047cfe11ddc22648dfba9>@@$$QAV<lambda_6dbb1268764f43b569ce7b67e331d33a>@@@Z 10026d68 f i libucrt:onexit.obj
 0001:00025db9       ??$?RV<lambda_995298e7d72eb4c2aab26c0585b3abe5>@@AAV<lambda_275893d493268fdec8709772e3fcec0e>@@V<lambda_293819299cbf9a7022e18b56a874bb5c>@@@?$__crt_seh_guarded_call@H@@QAEH$$QAV<lambda_995298e7d72eb4c2aab26c0585b3abe5>@@AAV<lambda_275893d493268fdec8709772e3fcec0e>@@$$QAV<lambda_293819299cbf9a7022e18b56a874bb5c>@@@Z 10026db9 f i libucrt:onexit.obj
 0001:00025e0a       ??$__acrt_lock_and_call@V<lambda_275893d493268fdec8709772e3fcec0e>@@@@YAHW4__acrt_lock_id@@$$QAV<lambda_275893d493268fdec8709772e3fcec0e>@@@Z 10026e0a f i libucrt:onexit.obj
 0001:00025e32       ??$__acrt_lock_and_call@V<lambda_4e60a939b0d047cfe11ddc22648dfba9>@@@@YAHW4__acrt_lock_id@@$$QAV<lambda_4e60a939b0d047cfe11ddc22648dfba9>@@@Z 10026e32 f i libucrt:onexit.obj
 0001:000260bb       __crt_atexit               100270bb f   libucrt:onexit.obj
 0001:000260d1       __execute_onexit_table     100270d1 f   libucrt:onexit.obj
 0001:000260ee       __initialize_onexit_table  100270ee f   libucrt:onexit.obj
 0001:0002612b       __register_onexit_function 1002712b f   libucrt:onexit.obj
 0001:00026183       ?do_always_noconv@?$codecvt@DDU_Mbstatet@@@std@@MBE_NXZ 10027183 f   libcpmt:cout.obj
 0001:00026183       ___acrt_uninitialize_command_line 10027183 f   libucrt:argv_data.obj
 0001:00026243       ___acrt_initialize         10027243 f   libucrt:initialization.obj
 0001:00026255       ___acrt_thread_attach      10027255 f   libucrt:initialization.obj
 0001:00026260       ___acrt_thread_detach      10027260 f   libucrt:initialization.obj
 0001:00026268       ___acrt_uninitialize       10027268 f   libucrt:initialization.obj
 0001:0002627a       ___acrt_uninitialize_critical 1002727a f   libucrt:initialization.obj
 0001:0002628c       __initterm                 1002728c f   libucrt:initterm.obj
 0001:000262e8       __initterm_e               100272e8 f   libucrt:initterm.obj
 0001:0002632d       _terminate                 1002732d f   libucrt:terminate.obj
 0001:00026369       _strcpy_s                  10027369 f   libucrt:strcpy_s.obj
 0001:000263c3       ??$is_overflow_condition@K@__crt_strtox@@YA_NIK@Z 100273c3 f i libucrt:atox.obj
 0001:000263f6       ??$make_c_string_character_source@_W$$T@__crt_strtox@@YA?AV?$c_string_character_source@_W@0@QB_W$$T@Z 100273f6 f i libucrt:atox.obj
 0001:000263f6       ??$make_c_string_character_source@DPAPAD@__crt_strtox@@YA?AV?$c_string_character_source@D@0@QBDQAPAD@Z 100273f6 f i libucrt:strtod.obj
 0001:000263f6       ??$make_c_string_character_source@_WPAPA_W@__crt_strtox@@YA?AV?$c_string_character_source@_W@0@QB_WQAPA_W@Z 100273f6 f i libucrt:strtod.obj
 0001:00026411       ??$parse_integer@KV?$c_string_character_source@D@__crt_strtox@@@__crt_strtox@@YAKQAU__crt_locale_pointers@@V?$c_string_character_source@D@0@H_N@Z 10027411 f i libucrt:atox.obj
 0001:00026639       ??$parse_integer@KV?$c_string_character_source@_W@__crt_strtox@@@__crt_strtox@@YAKQAU__crt_locale_pointers@@V?$c_string_character_source@_W@0@H_N@Z 10027639 f i libucrt:atox.obj
 0001:00026d1e       __wtol                     10027d1e f   libucrt:atox.obj
 0001:00026d48       __msize                    10027d48 f   libucrt:msize.obj
 0001:00026d7b       ??$?RV<lambda_a048d3beccc847880fc8490e18b82769>@@AAV<lambda_ec61778202f4f5fc7e7711acc23c3bca>@@V<lambda_f7496a158712204296dd6628a163878e>@@@?$__crt_seh_guarded_call@P6AXH@Z@@QAEP6AXH@Z$$QAV<lambda_a048d3beccc847880fc8490e18b82769>@@AAV<lambda_ec61778202f4f5fc7e7711acc23c3bca>@@$$QAV<lambda_f7496a158712204296dd6628a163878e>@@@Z 10027d7b f i libucrt:signal.obj
 0001:00026dd5       ??$__acrt_lock_and_call@V<lambda_ec61778202f4f5fc7e7711acc23c3bca>@@@@YAP6AXH@ZW4__acrt_lock_id@@$$QAV<lambda_ec61778202f4f5fc7e7711acc23c3bca>@@@Z 10027dd5 f i libucrt:signal.obj
 0001:00026e67       ___acrt_get_sigabrt_handler 10027e67 f   libucrt:signal.obj
 0001:00026e7e       ___acrt_initialize_signal_handlers 10027e7e f   libucrt:signal.obj
 0001:00026eb9       ___fpecode                 10027eb9 f   libucrt:signal.obj
 0001:00026ec2       _raise                     10027ec2 f   libucrt:signal.obj
 0001:000270ca       ??$?RV<lambda_3518db117f0e7cdb002338c5d3c47b6c>@@AAV<lambda_b2ea41f6bbb362cd97d94c6828d90b61>@@V<lambda_abdedf541bb04549bc734292b4a045d4>@@@?$__crt_seh_guarded_call@X@@QAEX$$QAV<lambda_3518db117f0e7cdb002338c5d3c47b6c>@@AAV<lambda_b2ea41f6bbb362cd97d94c6828d90b61>@@$$QAV<lambda_abdedf541bb04549bc734292b4a045d4>@@@Z 100280ca f i libucrt:per_thread_data.obj
 0001:0002711a       ??$?RV<lambda_51b6e8b1eb166f2a3faf91f424b38130>@@AAV<lambda_6250bd4b2a391816dd638c3bf72b0bcb>@@V<lambda_0b5a4a3e68152e1d9b943535f5f47bed>@@@?$__crt_seh_guarded_call@X@@QAEX$$QAV<lambda_51b6e8b1eb166f2a3faf91f424b38130>@@AAV<lambda_6250bd4b2a391816dd638c3bf72b0bcb>@@$$QAV<lambda_0b5a4a3e68152e1d9b943535f5f47bed>@@@Z 1002811a f i libucrt:per_thread_data.obj
 0001:0002717b       ??$?RV<lambda_5b71d36f03204c0beab531769a5b5694>@@AAV<lambda_be2b3da3f62db62e9dad5dc70221a656>@@V<lambda_8f9ce462984622f9bf76b59e2aaaf805>@@@?$__crt_seh_guarded_call@X@@QAEX$$QAV<lambda_5b71d36f03204c0beab531769a5b5694>@@AAV<lambda_be2b3da3f62db62e9dad5dc70221a656>@@$$QAV<lambda_8f9ce462984622f9bf76b59e2aaaf805>@@@Z 1002817b f i libucrt:per_thread_data.obj
 0001:000271c6       ??$?RV<lambda_9df27f884b057bc3edfc946cb5b7cf47>@@AAV<lambda_e69574bed617af4e071282c136b37893>@@V<lambda_cc0d902bcbbeb830f749456577db4721>@@@?$__crt_seh_guarded_call@X@@QAEX$$QAV<lambda_9df27f884b057bc3edfc946cb5b7cf47>@@AAV<lambda_e69574bed617af4e071282c136b37893>@@$$QAV<lambda_cc0d902bcbbeb830f749456577db4721>@@@Z 100281c6 f i libucrt:per_thread_data.obj
 0001:0002720e       ??$__acrt_lock_and_call@V<lambda_6250bd4b2a391816dd638c3bf72b0bcb>@@@@YAXW4__acrt_lock_id@@$$QAV<lambda_6250bd4b2a391816dd638c3bf72b0bcb>@@@Z 1002820e f i libucrt:per_thread_data.obj
 0001:00027236       ??$__acrt_lock_and_call@V<lambda_b2ea41f6bbb362cd97d94c6828d90b61>@@@@YAXW4__acrt_lock_id@@$$QAV<lambda_b2ea41f6bbb362cd97d94c6828d90b61>@@@Z 10028236 f i libucrt:per_thread_data.obj
 0001:0002725e       ??$__acrt_lock_and_call@V<lambda_be2b3da3f62db62e9dad5dc70221a656>@@@@YAXW4__acrt_lock_id@@$$QAV<lambda_be2b3da3f62db62e9dad5dc70221a656>@@@Z 1002825e f i libucrt:per_thread_data.obj
 0001:00027286       ??$__acrt_lock_and_call@V<lambda_e69574bed617af4e071282c136b37893>@@@@YAXW4__acrt_lock_id@@$$QAV<lambda_e69574bed617af4e071282c136b37893>@@@Z 10028286 f i libucrt:per_thread_data.obj
 0001:0002743c       ___acrt_freeptd            1002843c f   libucrt:per_thread_data.obj
 0001:00027468       ___acrt_getptd             10028468 f   libucrt:per_thread_data.obj
 0001:000274ec       ___acrt_getptd_noexit      100284ec f   libucrt:per_thread_data.obj
 0001:00027571       ___acrt_initialize_ptd     10028571 f   libucrt:per_thread_data.obj
 0001:0002759d       ___acrt_uninitialize_ptd   1002859d f   libucrt:per_thread_data.obj
 0001:000275b7       _strtol                    100285b7 f   libucrt:strtox.obj
 0001:000275e3       _wcstol                    100285e3 f   libucrt:strtox.obj
 0001:0002760f       __mbtowc_l                 1002860f f   libucrt:mbtowc.obj
 0001:00027709       _mbtowc                    10028709 f   libucrt:mbtowc.obj
 0001:00027723       __wctomb_s_l               10028723 f   libucrt:wctomb.obj
 0001:00027844       _wctomb_s                  10028844 f   libucrt:wctomb.obj
 0001:00027861       ___acrt_update_locale_info 10028861 f   libucrt:locale_update.obj
 0001:0002788e       ___acrt_update_multibyte_info 1002888e f   libucrt:locale_update.obj
 0001:000278bb       ?__acrt_fp_classify@@YA?AW4__acrt_fp_class@@ABN@Z 100288bb f i libucrt:cvt.obj
 0001:00027927       ?__acrt_fp_is_negative@@YA_NABN@Z 10028927 f i libucrt:cvt.obj
 0001:00028186       ___acrt_fp_format          10029186 f   libucrt:cvt.obj
 0001:00028302       __fputwc_nolock            10029302 f   libucrt:fputwc.obj
 0001:00028428       __fileno                   10029428 f   libucrt:fileno.obj
 0001:0002844e       __get_printf_count_output  1002944e f   libucrt:printf_count_output.obj
 0001:00028463       ___acrt_stdio_begin_temporary_buffering_nolock 10029463 f   libucrt:_sftbuf.obj
 0001:00028518       ___acrt_stdio_end_temporary_buffering_nolock 10029518 f   libucrt:_sftbuf.obj
 0001:00028551       ??$?RV<lambda_70818de7b02deff9841e8b0962a60ed9>@@AAV<lambda_2af78c5f5901b1372d98f9ab3177dfa6>@@AAV<lambda_f51fe5fd7c79a33db34fc9310f277369>@@@?$__crt_seh_guarded_call@X@@QAEX$$QAV<lambda_70818de7b02deff9841e8b0962a60ed9>@@AAV<lambda_2af78c5f5901b1372d98f9ab3177dfa6>@@AAV<lambda_f51fe5fd7c79a33db34fc9310f277369>@@@Z 10029551 f i libucrt:wsetlocale.obj
 0001:0002858c       ??$?RV<lambda_c76fdea48760d5f9368b465f31df4405>@@AAV<lambda_e378711a6f6581bf7f0efd7cdf97f5d9>@@V<lambda_e927a58b2a85c081d733e8c6192ae2d2>@@@?$__crt_seh_guarded_call@X@@QAEX$$QAV<lambda_c76fdea48760d5f9368b465f31df4405>@@AAV<lambda_e378711a6f6581bf7f0efd7cdf97f5d9>@@$$QAV<lambda_e927a58b2a85c081d733e8c6192ae2d2>@@@Z 1002958c f i libucrt:wsetlocale.obj
 0001:000285cf       ??$__acrt_lock_and_call@V<lambda_e378711a6f6581bf7f0efd7cdf97f5d9>@@@@YAXW4__acrt_lock_id@@$$QAV<lambda_e378711a6f6581bf7f0efd7cdf97f5d9>@@@Z 100295cf f i libucrt:wsetlocale.obj
 0001:00028751       ___acrt_copy_locale_name   10029751 f   libucrt:wsetlocale.obj
 0001:000287b7       ___acrt_set_locale_changed 100297b7 f   libucrt:wsetlocale.obj
 0001:000287c2       ___acrt_uninitialize_locale 100297c2 f   libucrt:wsetlocale.obj
 0001:00028814       ___lc_lctowcs              10029814 f   libucrt:wsetlocale.obj
 0001:00028884       ___lc_wcstolc              10029884 f   libucrt:wsetlocale.obj
 0001:000289e2       __expandlocale             100299e2 f   libucrt:wsetlocale.obj
 0001:00028d59       __wcscats                  10029d59 f   libucrt:wsetlocale.obj
 0001:00028d9a       __wsetlocale               10029d9a f   libucrt:wsetlocale.obj
 0001:000297d0       ___acrt_initialize_lowio   1002a7d0 f   libucrt:ioinit.obj
 0001:00029826       ___acrt_uninitialize_lowio 1002a826 f   libucrt:ioinit.obj
 0001:00029852       __dsign                    1002a852 f   libucrt:nan.obj
 0001:00029862       __errcode                  1002a862 f   libucrt:fpexcept.obj
 0001:00029896       __except1                  1002a896 f   libucrt:fpexcept.obj
 0001:00029964       __handle_exc               1002a964 f   libucrt:fpexcept.obj
 0001:00029b44       __raise_exc                1002ab44 f   libucrt:fpexcept.obj
 0001:00029b67       __raise_exc_ex             1002ab67 f   libucrt:fpexcept.obj
 0001:00029e58       __set_errno_from_matherr   1002ae58 f   libucrt:fpexcept.obj
 0001:00029e87       __umatherr                 1002ae87 f   libucrt:fpexcept.obj
 0001:00029f29       __decomp                   1002af29 f   libucrt:util.obj
 0001:00029ffd       __set_exp                  1002affd f   libucrt:util.obj
 0001:0002a02c       __sptype                   1002b02c f   libucrt:util.obj
 0001:0002a08a       __clrfp                    1002b08a f   libucrt:fpctrl.obj
 0001:0002a09d       __ctrlfp                   1002b09d f   libucrt:fpctrl.obj
 0001:0002a0c9       __set_statfp               1002b0c9 f   libucrt:fpctrl.obj
 0001:0002a124       __statfp                   1002b124 f   libucrt:fpctrl.obj
 0001:0002a136       __query_app_type           1002b136 f   libucrt:report_runtime_error.obj
 0001:0002a229       __itow_s                   1002b229 f   libucrt:xtoa.obj
 0001:0002a25e       __set_error_mode           1002b25e f   libucrt:set_error_mode.obj
 0001:0002a29d       _wcscat_s                  1002b29d f   libucrt:wcscat_s.obj
 0001:0002a3fb       _wcsncat_s                 1002b3fb f   libucrt:wcsncat_s.obj
 0001:0002a501       ___acrt_show_wide_message_box 1002b501 f   libucrt:crtmbox.obj
 0001:0002a7af       __getfpcontrolword         1002b7af f   libucrt:_fenvutils.obj
 0001:0002a7f2       __getfpstatusword          1002b7f2 f   libucrt:_fenvutils.obj
 0001:0002a89a       __setfpcontrolword         1002b89a f   libucrt:_fenvutils.obj
 0001:0002a91a       __setfpstatusword          1002b91a f   libucrt:_fenvutils.obj
 0001:0002a9e0       ??$?RV<lambda_9227be29367c048ad7fd93a717dcb1a1>@@AAV<lambda_a463b7b0560cfcaf9b17f27c6ef46564>@@V<lambda_ccea11b5727ccf69be64f5f5d9a08d9f>@@@?$__crt_seh_guarded_call@H@@QAEH$$QAV<lambda_9227be29367c048ad7fd93a717dcb1a1>@@AAV<lambda_a463b7b0560cfcaf9b17f27c6ef46564>@@$$QAV<lambda_ccea11b5727ccf69be64f5f5d9a08d9f>@@@Z 1002b9e0 f i libucrt:winapi_thunks.obj
 0001:0002aa64       ??$__acrt_lock_and_call@V<lambda_a463b7b0560cfcaf9b17f27c6ef46564>@@@@YAHW4__acrt_lock_id@@$$QAV<lambda_a463b7b0560cfcaf9b17f27c6ef46564>@@@Z 1002ba64 f i libucrt:winapi_thunks.obj
 0001:0002aa8c       ??$__crt_fast_encode_pointer@P6GHPA_WKJ@Z@@YAP6GHPA_WKJ@ZQ6GH0KJ@Z@Z 1002ba8c f i libucrt:winapi_thunks.obj
 0001:0002aa8c       ??$__crt_fast_encode_pointer@P6AHXZ@@YAP6AHXZQ6AHXZ@Z 1002ba8c f i libucrt:onexit.obj
 0001:0002ac10       ___acrt_EnumSystemLocalesEx@16 1002bc10 f   libucrt:winapi_thunks.obj
 0001:0002ac7d       ___acrt_FlsAlloc@4         1002bc7d f   libucrt:winapi_thunks.obj
 0001:0002acd3       ___acrt_FlsFree@4          1002bcd3 f   libucrt:winapi_thunks.obj
 0001:0002ad29       ___acrt_FlsGetValue@4      1002bd29 f   libucrt:winapi_thunks.obj
 0001:0002ad7f       ___acrt_FlsSetValue@8      1002bd7f f   libucrt:winapi_thunks.obj
 0001:0002add8       ___acrt_GetLocaleInfoEx@16 1002bdd8 f   libucrt:winapi_thunks.obj
 0001:0002ae42       ___acrt_GetUserDefaultLocaleName@8 1002be42 f   libucrt:winapi_thunks.obj
 0001:0002aea9       ___acrt_InitializeCriticalSectionEx@12 1002bea9 f   libucrt:winapi_thunks.obj
 0001:0002af0b       ___acrt_IsValidLocaleName@4 1002bf0b f   libucrt:winapi_thunks.obj
 0001:0002af6e       ___acrt_LCIDToLocaleName@16 1002bf6e f   libucrt:winapi_thunks.obj
 0001:0002afd8       ___acrt_LCMapStringEx@36   1002bfd8 f   libucrt:winapi_thunks.obj
 0001:0002b060       ___acrt_LocaleNameToLCID@8 1002c060 f   libucrt:winapi_thunks.obj
 0001:0002b0bc       ___acrt_MessageBoxW@16     1002c0bc f   libucrt:winapi_thunks.obj
 0001:0002b105       ___acrt_can_show_message_box 1002c105 f   libucrt:winapi_thunks.obj
 0001:0002b11e       ___acrt_can_use_vista_locale_apis 1002c11e f   libucrt:winapi_thunks.obj
 0001:0002b12a       ___acrt_get_parent_window  1002c12a f   libucrt:winapi_thunks.obj
 0001:0002b1a9       ___acrt_initialize_winapi_thunks 1002c1a9 f   libucrt:winapi_thunks.obj
 0001:0002b1cf       ___acrt_is_interactive     1002c1cf f   libucrt:winapi_thunks.obj
 0001:0002b275       ___acrt_is_packaged_app    1002c275 f   libucrt:winapi_thunks.obj
 0001:0002b2fc       ___acrt_uninitialize_winapi_thunks 1002c2fc f   libucrt:winapi_thunks.obj
 0001:0002b332       __fcloseall                1002c332 f   libucrt:closeall.obj
 0001:0002b3d2       ___acrt_stdio_free_buffer_nolock 1002c3d2 f   libucrt:_freebuf.obj
 0001:0002b410       ??$?RV<lambda_123407a5e2ac06da108355a851863b7a>@@AAV<lambda_2fe9b910cf3cbf4a0ab98a02ba45b3ec>@@V<lambda_ae55bdf541ad94d75914d381c370e64d>@@@?$__crt_seh_guarded_call@H@@QAEH$$QAV<lambda_123407a5e2ac06da108355a851863b7a>@@AAV<lambda_2fe9b910cf3cbf4a0ab98a02ba45b3ec>@@$$QAV<lambda_ae55bdf541ad94d75914d381c370e64d>@@@Z 1002c410 f i libucrt:close.obj
 0001:0002b492       ??$__acrt_lowio_lock_fh_and_call@V<lambda_2fe9b910cf3cbf4a0ab98a02ba45b3ec>@@@@YAHH$$QAV<lambda_2fe9b910cf3cbf4a0ab98a02ba45b3ec>@@@Z 1002c492 f i libucrt:close.obj
 0001:0002b4ba       __close                    1002c4ba f   libucrt:close.obj
 0001:0002b539       __close_nolock             1002c539 f   libucrt:close.obj
 0001:0002b5d5       ?__acrt_stdio_free_stream@@YAXV__crt_stdio_stream@@@Z 1002c5d5 f   libucrt:stream.obj
 0001:0002b610       ??$?RV<lambda_61cee617f5178ae960314fd4d05640a0>@@AAV<lambda_6978c1fb23f02e42e1d9e99668cc68aa>@@V<lambda_9cd88cf8ad10232537feb2133f08c833>@@@?$__crt_seh_guarded_call@H@@QAEH$$QAV<lambda_61cee617f5178ae960314fd4d05640a0>@@AAV<lambda_6978c1fb23f02e42e1d9e99668cc68aa>@@$$QAV<lambda_9cd88cf8ad10232537feb2133f08c833>@@@Z 1002c610 f i libucrt:commit.obj
 0001:0002b6a8       ??$__acrt_lowio_lock_fh_and_call@V<lambda_6978c1fb23f02e42e1d9e99668cc68aa>@@@@YAHH$$QAV<lambda_6978c1fb23f02e42e1d9e99668cc68aa>@@@Z 1002c6a8 f i libucrt:commit.obj
 0001:0002b6d0       __commit                   1002c6d0 f   libucrt:commit.obj
 0001:0002bccf       __write                    1002cccf f   libucrt:write.obj
 0001:0002bdba       __write_nolock             1002cdba f   libucrt:write.obj
 0001:0002c147       ___acrt_stdio_refill_and_read_narrow_nolock 1002d147 f   libucrt:_filbuf.obj
 0001:0002c682       __ftelli64                 1002d682 f   libucrt:ftell.obj
 0001:0002c68d       __ftelli64_nolock          1002d68d f   libucrt:ftell.obj
 0001:0002ca5e       ___acrt_stdio_flush_and_write_narrow_nolock 1002da5e f   libucrt:_flsbuf.obj
 0001:0002ca69       ___acrt_stdio_flush_and_write_wide_nolock 1002da69 f   libucrt:_flsbuf.obj
 0001:0002cbf7       __lseeki64                 1002dbf7 f   libucrt:lseek.obj
 0001:0002cc12       __lseeki64_nolock          1002dc12 f   libucrt:lseek.obj
 0001:0002cc2d       ___acrt_stdio_allocate_buffer_nolock 1002dc2d f   libucrt:_getbuf.obj
 0001:0002ce03       __mbstowcs_s_l             1002de03 f   libucrt:mbstowcs.obj
 0001:0002cee6       _mbstowcs_s                1002dee6 f   libucrt:mbstowcs.obj
 0001:0002d187       __wcstombs_s_l             1002e187 f   libucrt:wcstombs.obj
 0001:0002d254       __query_new_mode           1002e254 f   libucrt:new_mode.obj
 0001:0002d25a       ___acrt_initialize_heap    1002e25a f   libucrt:heap_handle.obj
 0001:0002d26b       ___acrt_uninitialize_heap  1002e26b f   libucrt:heap_handle.obj
 0001:0002d275       __isctype_l                1002e275 f   libucrt:isctype.obj
 0001:0002d442       ___acrt_GetLocaleInfoA     1002e442 f   libucrt:getlocaleinfoa.obj
 0001:0002d5f4       ___acrt_GetStringTypeA     1002e5f4 f   libucrt:getstringtypea.obj
 0001:0002d92e       ___acrt_LCMapStringA       1002e92e f   libucrt:lcmapstringa.obj
 0001:0002d979       _iswctype                  1002e979 f   libucrt:iswctype.obj
 0001:0002d9d8       __fpclass                  1002e9d8 f   libucrt:ieeemisc.obj
 0001:0002da7c       ___acrt_initialize_sse2    1002ea7c f   libucrt:mathfcns.obj
 0001:0002daa0       __CIpow_pentium4           1002eaa0 f   libucrt:pow_pentium4.obj
 0001:0002dab9       __pow_pentium4             1002eab9     libucrt:pow_pentium4.obj
 0001:0002e5d1       __fFEXP                    1002f5d1     libucrt:87tran.obj
 0001:0002e628       __rtinfpopse               1002f628     libucrt:87tran.obj
 0001:0002e62a       __rtinfnpopse              1002f62a     libucrt:87tran.obj
 0001:0002e63a       __fFLN                     1002f63a     libucrt:87tran.obj
 0001:0002e6ef       __rtinfpop                 1002f6ef     libucrt:87tran.obj
 0001:0002e6f1       __rtinfnpop                1002f6f1     libucrt:87tran.obj
 0001:0002e70e       __ffexpm1                  1002f70e     libucrt:87tran.obj
 0001:0002e7c0       __trandisp1                1002f7c0 f   libucrt:87disp.obj
 0001:0002e827       __trandisp2                1002f827 f   libucrt:87disp.obj
 0001:0002e8b3       __rttospopde               1002f8b3     libucrt:87disp.obj
 0001:0002e8b8       __rttospop                 1002f8b8     libucrt:87disp.obj
 0001:0002e8ba       __rtnospop                 1002f8ba     libucrt:87disp.obj
 0001:0002e8bc       __rttosnpop                1002f8bc     libucrt:87disp.obj
 0001:0002e8bd       __rtnospopde               1002f8bd     libucrt:87disp.obj
 0001:0002e8c4       __rtzeropop                1002f8c4     libucrt:87disp.obj
 0001:0002e8c6       __rtzeronpop               1002f8c6     libucrt:87disp.obj
 0001:0002e8cb       __rtzerospop               1002f8cb     libucrt:87disp.obj
 0001:0002e8d8       __rtonepop                 1002f8d8     libucrt:87disp.obj
 0001:0002e8da       __rtonenpop                1002f8da     libucrt:87disp.obj
 0001:0002e8df       __tosnan1                  1002f8df     libucrt:87disp.obj
 0001:0002e90a       __nosnan2                  1002f90a     libucrt:87disp.obj
 0001:0002e90c       __tosnan2                  1002f90c     libucrt:87disp.obj
 0001:0002e934       __nan2                     1002f934     libucrt:87disp.obj
 0001:0002e973       __rtindfpop                1002f973     libucrt:87disp.obj
 0001:0002e975       __rtindfnpop               1002f975     libucrt:87disp.obj
 0001:0002e986       __rttosnpopde              1002f986     libucrt:87disp.obj
 0001:0002e990       __rtatan2inf               1002f990     libucrt:87disp.obj
 0001:0002e9ad       __rtchsifneg               1002f9ad     libucrt:87disp.obj
 0001:0002e9c0       __startTwoArgErrorHandling 1002f9c0 f   libucrt:genexcep.obj
 0001:0002e9d7       __startOneArgErrorHandling 1002f9d7 f   libucrt:genexcep.obj
 0001:0002ea20       __twoToTOS                 1002fa20 f   libucrt:common.obj
 0001:0002ea35       __load_CW                  1002fa35 f   libucrt:common.obj
 0001:0002ea4c       __convertTOStoQNaN         1002fa4c f   libucrt:common.obj
 0001:0002ea65       __fload_withFB             1002fa65 f   libucrt:common.obj
 0001:0002eaa8       __checkTOS_withFB          1002faa8 f   libucrt:common.obj
 0001:0002eabe       __fast_exit                1002fabe f   libucrt:common.obj
 0001:0002eacb       __math_exit                1002facb f   libucrt:common.obj
 0001:0002eaf5       __check_overflow_exit      1002faf5 f   libucrt:common.obj
 0001:0002eb09       __check_range_exit         1002fb09 f   libucrt:common.obj
 0001:0002ebac       __d_inttype                1002fbac f   libucrt:powhlp.obj
 0001:0002ec16       __powhlp                   1002fc16 f   libucrt:powhlp.obj
 0001:0002ed41       __wcsicmp                  1002fd41 f   libucrt:wcsicmp.obj
 0001:0002edd6       __wcsicmp_l                1002fdd6 f   libucrt:wcsicmp.obj
 0001:0002eeb6       ___acrt_initialize_timeset 1002feb6 f   libucrt:timeset.obj
 0001:0002eeed       __isleadbyte_l             1002feed f i libucrt:_wctype.obj
 0001:0002f2e8       ??1?$argument_list@D@?A0xb0e4b824@@QAE@XZ 100302e8 f i libucrt:argv_wildcards.obj
 0001:0002f30d       ?append@?$argument_list@D@?A0xb0e4b824@@QAEHQAD@Z 1003030d f i libucrt:argv_wildcards.obj
 0001:0002f342       ?expand_if_necessary@?$argument_list@D@?A0xb0e4b824@@AAEHXZ 10030342 f i libucrt:argv_wildcards.obj
 0001:0002f3c9       ___acrt_expand_narrow_argv_wildcards 100303c9 f   libucrt:argv_wildcards.obj
 0001:0002f3d4       ??$?RV<lambda_978dc153c237d78434369da87b74ff60>@@AAV<lambda_ad1ced32f4ac17aa236e5ef05d6b3b7c>@@V<lambda_4a8533e2866a575feecb8298ce776b0d>@@@?$__crt_seh_guarded_call@X@@QAEX$$QAV<lambda_978dc153c237d78434369da87b74ff60>@@AAV<lambda_ad1ced32f4ac17aa236e5ef05d6b3b7c>@@$$QAV<lambda_4a8533e2866a575feecb8298ce776b0d>@@@Z 100303d4 f i libucrt:mbctype.obj
 0001:0002f417       ??$__acrt_lock_and_call@V<lambda_ad1ced32f4ac17aa236e5ef05d6b3b7c>@@@@YAXW4__acrt_lock_id@@$$QAV<lambda_ad1ced32f4ac17aa236e5ef05d6b3b7c>@@@Z 10030417 f i libucrt:mbctype.obj
 0001:0002f8ae       ___acrt_initialize_multibyte 100308ae f   libucrt:mbctype.obj
 0001:0002f8cc       ___acrt_update_thread_multibyte_data 100308cc f   libucrt:mbctype.obj
 0001:0002f96e       __setmbcp_nolock           1003096e f   libucrt:mbctype.obj
 0001:0002fb5f       ___acrt_initialize_command_line 10030b5f f   libucrt:argv_data.obj
 0001:0002fbaf       ___dcrt_get_narrow_environment_from_os 10030baf f   libucrt:get_environment_from_os.obj
 0001:0002fc32       __recalloc                 10030c32 f   libucrt:recalloc.obj
 0001:0002fc3d       __recalloc_base            10030c3d f   libucrt:recalloc.obj
 0001:0002fcaa       ___acrt_execute_initializers 10030caa f   libucrt:shared_initialization.obj
 0001:0002fd2d       ___acrt_execute_uninitializers 10030d2d f   libucrt:shared_initialization.obj
 0001:0002fd7a       ?initialize@?$dual_state_global@PAU__crt_locale_data@@@__crt_state_management@@QAEXQAU__crt_locale_data@@@Z 10030d7a f i libucrt:initialization.obj
 0001:0002fd7a       ?initialize@?$dual_state_global@P6AXH@Z@__crt_state_management@@QAEXQ6AXH@Z@Z 10030d7a f i libucrt:signal.obj
 0001:0002fd7a       ?initialize@?$dual_state_global@P6AHI@Z@__crt_state_management@@QAEXQ6AHI@Z@Z 10030d7a f i libucrt:new_handler.obj
 0001:0002fd7a       ?initialize@?$dual_state_global@PAPAD@__crt_state_management@@QAEXQAPAD@Z 10030d7a f i libucrt:environment_initialization.obj
 0001:0002fd7a       ?initialize@?$dual_state_global@P6AHPAU_exception@@@Z@__crt_state_management@@QAEXQ6AHPAU_exception@@@Z@Z 10030d7a f i libucrt:matherr.obj
 0001:0002fd7a       ?initialize@?$dual_state_global@H@__crt_state_management@@QAEXH@Z 10030d7a f i libucrt:timeset.obj
 0001:0002fd7a       ?initialize@?$dual_state_global@J@__crt_state_management@@QAEXJ@Z 10030d7a f i libucrt:timeset.obj
 0001:0002fd7a       ?initialize@?$dual_state_global@P6AXPB_W00II@Z@__crt_state_management@@QAEXQ6AXPB_W00II@Z@Z 10030d7a f i libucrt:invalid_parameter.obj
 0001:0002fdab       ___acrt_has_user_matherr   10030dab f   libucrt:matherr.obj
 0001:0002fdc4       ___acrt_initialize_user_matherr 10030dc4 f   libucrt:matherr.obj
 0001:0002fdd8       ___acrt_invoke_user_matherr 10030dd8 f   libucrt:matherr.obj
 0001:0002fe21       ___acrt_add_locale_ref     10030e21 f   libucrt:locale_refcounting.obj
 0001:0002fe9e       ___acrt_free_locale        10030e9e f   libucrt:locale_refcounting.obj
 0001:0002ffe8       ___acrt_locale_add_lc_time_reference 10030fe8 f   libucrt:locale_refcounting.obj
 0001:00030011       ___acrt_locale_free_lc_time_if_unreferenced 10031011 f   libucrt:locale_refcounting.obj
 0001:00030041       ___acrt_locale_release_lc_time_reference 10031041 f   libucrt:locale_refcounting.obj
 0001:0003006a       ___acrt_release_locale_ref 1003106a f   libucrt:locale_refcounting.obj
 0001:000300eb       ___acrt_update_thread_locale_data 100310eb f   libucrt:locale_refcounting.obj
 0001:00030162       __updatetlocinfoEx_nolock  10031162 f   libucrt:locale_refcounting.obj
 0001:000301b2       ___acrt_fp_strflt_to_string 100311b2 f   libucrt:_fptostr.obj
 0001:0003026e       ??0scoped_fp_state_reset@?A0x48fbfdd4@@QAE@XZ 1003126e f i libucrt:cfout.obj
 0001:00030298       ___acrt_fltout             10031298 f   libucrt:cfout.obj
 0001:000316b5       __isatty                   100326b5 f   libucrt:isatty.obj
 0001:0003170b       ___acrt_locale_free_monetary 1003270b f   libucrt:initmon.obj
 0001:00031809       ___acrt_locale_initialize_monetary 10032809 f   libucrt:initmon.obj
 0001:00031bc5       ___acrt_locale_free_numeric 10032bc5 f   libucrt:initnum.obj
 0001:00031c2e       ___acrt_locale_initialize_numeric 10032c2e f   libucrt:initnum.obj
 0001:00032103       ___acrt_locale_free_time   10033103 f   libucrt:inittime.obj
 0001:000321e7       ___acrt_locale_initialize_time 100331e7 f   libucrt:inittime.obj
 0001:00032333       _wcsncpy_s                 10033333 f   libucrt:wcsncpy_s.obj
 0001:0003233e       _wcscspn                   1003333e f   libucrt:wcscspn.obj
 0001:0003238e       _wcsncmp                   1003338e f   libucrt:wcsncmp.obj
 0001:000323c8       _wcspbrk                   100333c8 f   libucrt:wcspbrk.obj
 0001:00032b0b       ___acrt_get_qualified_locale 10033b0b f   libucrt:get_qualified_locale.obj
 0001:00033443       ___acrt_get_qualified_locale_downlevel 10034443 f   libucrt:getqloc_downlevel.obj
 0001:0003364a       ___acrt_lowio_create_handle_array 1003464a f   libucrt:osfinfo.obj
 0001:000336c4       ___acrt_lowio_destroy_handle_array 100346c4 f   libucrt:osfinfo.obj
 0001:000336f9       ___acrt_lowio_ensure_fh_exists 100346f9 f   libucrt:osfinfo.obj
 0001:00033791       ___acrt_lowio_lock_fh      10034791 f   libucrt:osfinfo.obj
 0001:000337b4       ___acrt_lowio_unlock_fh    100347b4 f   libucrt:osfinfo.obj
 0001:000337d7       __free_osfhnd              100347d7 f   libucrt:osfinfo.obj
 0001:00033868       __get_osfhandle            10034868 f   libucrt:osfinfo.obj
 0001:0003398e       ___acrt_DownlevelLCIDToLocaleName 1003498e f   libucrt:lcidtoname_downlevel.obj
 0001:00033a38       ___acrt_DownlevelLocaleNameToLCID 10034a38 f   libucrt:lcidtoname_downlevel.obj
 0001:00033a64       __putwch_nolock            10034a64 f   libucrt:putwch.obj
 0001:00033f91       __read                     10034f91 f   libucrt:read.obj
 0001:000340a4       __read_nolock              100350a4 f   libucrt:read.obj
 0001:0003450a       _strncpy_s                 1003550a f   libucrt:strncpy_s.obj
 0001:00034515       ___libm_error_support      10035515 f   libucrt:libm_error.obj
 0001:0003472d       __87except                 1003572d f   libucrt:87except.obj
 0001:00034838       __frnd                     10035838 f   libucrt:frnd.obj
 0001:0003484e       __towlower_l               1003584e f   libucrt:towlower.obj
 0001:00034a00       _qsort                     10035a00 f   libucrt:qsort.obj
 0001:00034da0       _strpbrk                   10035da0 f   libucrt:strpbrk.obj
 0001:00034de0       __mbsdec                   10035de0 f   libucrt:mbsdec.obj
 0001:00034df7       __mbsdec_l                 10035df7 f   libucrt:mbsdec.obj
 0001:00034e93       _fegetenv                  10035e93 f   libucrt:fegetenv.obj
 0001:00034eb0       _fesetenv                  10035eb0 f   libucrt:fesetenv.obj
 0001:00034ef9       _feholdexcept              10035ef9 f   libucrt:feholdexcept.obj
 0001:00034f60       _log10                     10035f60 f   libucrt:log10.obj
 0001:00034fa0       __CIlog10                  10035fa0 f   libucrt:log10.obj
 0001:00034fdb       __CIlog10_default          10035fdb f   libucrt:log10.obj
 0001:00034fef       __log10_default            10035fef     libucrt:log10.obj
 0001:000350b0       _ceil                      100360b0 f   libucrt:ceil_pentium4.obj
 0001:000350f0       __ceil_pentium4            100360f0 f   libucrt:ceil_pentium4.obj
 0001:000351cd       __wcsnicmp                 100361cd f   libucrt:wcsnicmp.obj
 0001:00035285       __wcsnicmp_l               10036285 f   libucrt:wcsnicmp.obj
 0001:00035386       ___dcrt_lowio_initialize_console_output 10036386 f   libucrt:initcon.obj
 0001:000353a5       ___dcrt_terminate_console_output 100363a5 f   libucrt:initcon.obj
 0001:000353bc       ___acrt_LCMapStringW       100363bc f   libucrt:lcmapstringw.obj
 0001:000353fa       __clearfp                  100363fa f   libucrt:ieee87.obj
 0001:000354e0       __CIlog10_pentium4         100364e0 f   libucrt:log10_pentium4.obj
 0001:000354f8       __log10_pentium4           100364f8     libucrt:log10_pentium4.obj
 0001:00035770       __ceil_default             10036770 f   libucrt:ceil.obj
 0001:00035830       ___ascii_strnicmp          10036830 f   libucrt:_strnicm.obj
 0001:00035892       _IsProcessorFeaturePresent@4 10036892 f   kernel32:KERNEL32.dll
 0001:00035898       _RtlUnwind@16              10036898 f   kernel32:KERNEL32.dll
 0001:0003589e       ?DloadAcquireSectionWriteAccess@@YGXXZ 1003689e f i DelayImp:delayhlp.obj
 0001:000358d1       ?DloadGetSRWLockFunctionPointers@@YGEXZ 100368d1 f i DelayImp:delayhlp.obj
 0001:0003594c       ?DloadLock@@YGXXZ          1003694c f i DelayImp:delayhlp.obj
 0001:000359a9       ?DloadMakePermanentImageCommit@@YGXPAXK@Z 100369a9 f i DelayImp:delayhlp.obj
 0001:00035a1b       ?DloadObtainSection@@YGPAXPAK0@Z 10036a1b f i DelayImp:delayhlp.obj
 0001:00035a9e       ?DloadProtectSection@@YGXKPAK@Z 10036a9e f i DelayImp:delayhlp.obj
 0001:00035b0e       ?DloadReleaseSectionWriteAccess@@YGXXZ 10036b0e f i DelayImp:delayhlp.obj
 0001:00035b46       ?DloadUnlock@@YGXXZ        10036b46 f i DelayImp:delayhlp.obj
 0001:00035b90       ___delayLoadHelper2@8      10036b90 f   DelayImp:delayhlp.obj
 0001:00035e20       __FindPESection            10036e20 f   LIBCMT:pesect.obj
 0001:00035e70       __IsNonwritableInCurrentImage 10036e70 f   LIBCMT:pesect.obj
 0001:00035f30       __ValidateImageBase        10036f30 f   LIBCMT:pesect.obj
 0001:00035f70       __aulldvrm                 10036f70 f   LIBCMT:ulldvrm.obj
 0001:00036010       __allshl                   10037010 f   LIBCMT:llshl.obj
 0001:00036030       __aullshr                  10037030 f   LIBCMT:ullshr.obj
 0001:00036050       __SEH_prolog4_GS           10037050 f   LIBCMT:_sehprolg4gs_.obj
 0001:00036099       __SEH_epilog4_GS           10037099 f   LIBCMT:_sehprolg4gs_.obj
 0001:000360b0       __alldvrm                  100370b0 f   LIBCMT:lldvrm.obj
 0001:00036190       __alldiv                   10037190 f   LIBCMT:lldiv.obj
 0001:00036240       __ftol2_sse                10037240 f   LIBCMT:_ftol2_.obj
 0001:00036249       __ftol2_pentium4           10037249 f   LIBCMT:_ftol2_.obj
 0001:0003625c       __ftol2_sse_excpt          1003725c f   LIBCMT:_ftol2_.obj
 0001:00036280       __ftol2                    10037280 f   LIBCMT:_ftol2_.obj
 0001:00036300       _strrchr                   10037300 f   libvcruntime:strrchr.obj
 0001:00036440       _strchr                    10037440 f   libvcruntime:strchr.obj
 0001:000364ae       ___from_strstr_to_strchr   100374ae     libvcruntime:strchr.obj
 0001:0003656b       _wcschr                    1003756b f   libvcruntime:wcschr.obj
 0001:00036620       __libm_sse2_log_precise    10037620 f   libucrt:log_sse2_precise.obj
 0001:000368b0       __libm_sse2_pow_precise    100378b0 f   libucrt:pow_sse2_precise.obj
 0001:00037400       __libm_sse2_sqrt_precise   10038400 f   libucrt:sqrt_sse2_precise.obj
 0001:00037500       _log                       10038500 f   libucrt:log.obj
 0001:00037540       __CIlog                    10038540 f   libucrt:log.obj
 0001:0003757b       __CIlog_default            1003857b f   libucrt:log.obj
 0001:0003758f       __log_default              1003858f     libucrt:log.obj
 0001:00037650       __CIsqrt                   10038650 f   libucrt:sqrt.obj
 0001:00037664       _sqrt                      10038664     libucrt:sqrt.obj
 0001:00037710       __CIlog_pentium4           10038710 f   libucrt:log_pentium4.obj
 0001:00037728       __log_pentium4             10038728     libucrt:log_pentium4.obj
 0001:000398b0       ??__F_Static@?1???$_Immortalize@V_Iostream_error_category@std@@@std@@YAAAV_Iostream_error_category@0@XZ@YAXXZ 1003a8b0 f i pandamat.obj
 0002:00000000       __imp__GetModuleHandleA@4  1003b000     kernel32:KERNEL32.dll
 0002:00000004       __imp__WideCharToMultiByte@32 1003b004     kernel32:KERNEL32.dll
 0002:00000008       __imp__EnterCriticalSection@4 1003b008     kernel32:KERNEL32.dll
 0002:0000000c       __imp__LeaveCriticalSection@4 1003b00c     kernel32:KERNEL32.dll
 0002:00000010       __imp__DeleteCriticalSection@4 1003b010     kernel32:KERNEL32.dll
 0002:00000014       __imp__EncodePointer@4     1003b014     kernel32:KERNEL32.dll
 0002:00000018       __imp__DecodePointer@4     1003b018     kernel32:KERNEL32.dll
 0002:0000001c       __imp__MultiByteToWideChar@24 1003b01c     kernel32:KERNEL32.dll
 0002:00000020       __imp__SetLastError@4      1003b020     kernel32:KERNEL32.dll
 0002:00000024       __imp__InitializeCriticalSectionAndSpinCount@8 1003b024     kernel32:KERNEL32.dll
 0002:00000028       __imp__CreateEventW@16     1003b028     kernel32:KERNEL32.dll
 0002:0000002c       __imp__TlsAlloc@0          1003b02c     kernel32:KERNEL32.dll
 0002:00000030       __imp__TlsGetValue@4       1003b030     kernel32:KERNEL32.dll
 0002:00000034       __imp__TlsSetValue@8       1003b034     kernel32:KERNEL32.dll
 0002:00000038       __imp__TlsFree@4           1003b038     kernel32:KERNEL32.dll
 0002:0000003c       __imp__GetSystemTimeAsFileTime@4 1003b03c     kernel32:KERNEL32.dll
 0002:00000040       __imp__GetModuleHandleW@4  1003b040     kernel32:KERNEL32.dll
 0002:00000044       __imp__GetProcAddress@8    1003b044     kernel32:KERNEL32.dll
 0002:00000048       __imp__LCMapStringW@24     1003b048     kernel32:KERNEL32.dll
 0002:0000004c       __imp__GetLocaleInfoW@16   1003b04c     kernel32:KERNEL32.dll
 0002:00000050       __imp__GetStringTypeW@16   1003b050     kernel32:KERNEL32.dll
 0002:00000054       __imp__GetCPInfo@8         1003b054     kernel32:KERNEL32.dll
 0002:00000058       __imp__CloseHandle@4       1003b058     kernel32:KERNEL32.dll
 0002:0000005c       __imp__SetEvent@4          1003b05c     kernel32:KERNEL32.dll
 0002:00000060       __imp__ResetEvent@4        1003b060     kernel32:KERNEL32.dll
 0002:00000064       __imp__WaitForSingleObjectEx@12 1003b064     kernel32:KERNEL32.dll
 0002:00000068       __imp__UnhandledExceptionFilter@4 1003b068     kernel32:KERNEL32.dll
 0002:0000006c       __imp__SetUnhandledExceptionFilter@4 1003b06c     kernel32:KERNEL32.dll
 0002:00000070       __imp__GetCurrentProcess@0 1003b070     kernel32:KERNEL32.dll
 0002:00000074       __imp__TerminateProcess@8  1003b074     kernel32:KERNEL32.dll
 0002:00000078       __imp__IsProcessorFeaturePresent@4 1003b078     kernel32:KERNEL32.dll
 0002:0000007c       __imp__IsDebuggerPresent@0 1003b07c     kernel32:KERNEL32.dll
 0002:00000080       __imp__GetStartupInfoW@4   1003b080     kernel32:KERNEL32.dll
 0002:00000084       __imp__QueryPerformanceCounter@4 1003b084     kernel32:KERNEL32.dll
 0002:00000088       __imp__GetCurrentProcessId@0 1003b088     kernel32:KERNEL32.dll
 0002:0000008c       __imp__GetCurrentThreadId@0 1003b08c     kernel32:KERNEL32.dll
 0002:00000090       __imp__InitializeSListHead@4 1003b090     kernel32:KERNEL32.dll
 0002:00000094       __imp__RaiseException@16   1003b094     kernel32:KERNEL32.dll
 0002:00000098       __imp__RtlUnwind@16        1003b098     kernel32:KERNEL32.dll
 0002:0000009c       __imp__GetLastError@0      1003b09c     kernel32:KERNEL32.dll
 0002:000000a0       __imp__FreeLibrary@4       1003b0a0     kernel32:KERNEL32.dll
 0002:000000a4       __imp__LoadLibraryExW@12   1003b0a4     kernel32:KERNEL32.dll
 0002:000000a8       __imp__InterlockedFlushSList@4 1003b0a8     kernel32:KERNEL32.dll
 0002:000000ac       __imp__GetStdHandle@4      1003b0ac     kernel32:KERNEL32.dll
 0002:000000b0       __imp__GetFileType@4       1003b0b0     kernel32:KERNEL32.dll
 0002:000000b4       __imp__GetModuleFileNameA@12 1003b0b4     kernel32:KERNEL32.dll
 0002:000000b8       __imp__GetModuleFileNameW@12 1003b0b8     kernel32:KERNEL32.dll
 0002:000000bc       __imp__GetModuleHandleExW@12 1003b0bc     kernel32:KERNEL32.dll
 0002:000000c0       __imp__WriteConsoleW@20    1003b0c0     kernel32:KERNEL32.dll
 0002:000000c4       __imp__HeapAlloc@12        1003b0c4     kernel32:KERNEL32.dll
 0002:000000c8       __imp__HeapReAlloc@16      1003b0c8     kernel32:KERNEL32.dll
 0002:000000cc       __imp__HeapFree@12         1003b0cc     kernel32:KERNEL32.dll
 0002:000000d0       __imp__ExitProcess@4       1003b0d0     kernel32:KERNEL32.dll
 0002:000000d4       __imp__HeapSize@12         1003b0d4     kernel32:KERNEL32.dll
 0002:000000d8       __imp__GetACP@0            1003b0d8     kernel32:KERNEL32.dll
 0002:000000dc       __imp__WriteFile@20        1003b0dc     kernel32:KERNEL32.dll
 0002:000000e0       __imp__OutputDebugStringW@4 1003b0e0     kernel32:KERNEL32.dll
 0002:000000e4       __imp__CreateThread@24     1003b0e4     kernel32:KERNEL32.dll
 0002:000000e8       __imp__IsValidLocale@8     1003b0e8     kernel32:KERNEL32.dll
 0002:000000ec       __imp__GetUserDefaultLCID@0 1003b0ec     kernel32:KERNEL32.dll
 0002:000000f0       __imp__EnumSystemLocalesW@8 1003b0f0     kernel32:KERNEL32.dll
 0002:000000f4       __imp__FlushFileBuffers@4  1003b0f4     kernel32:KERNEL32.dll
 0002:000000f8       __imp__GetConsoleCP@0      1003b0f8     kernel32:KERNEL32.dll
 0002:000000fc       __imp__GetConsoleMode@8    1003b0fc     kernel32:KERNEL32.dll
 0002:00000100       __imp__ReadFile@20         1003b100     kernel32:KERNEL32.dll
 0002:00000104       __imp__SetFilePointerEx@20 1003b104     kernel32:KERNEL32.dll
 0002:00000108       __imp__GetProcessHeap@0    1003b108     kernel32:KERNEL32.dll
 0002:0000010c       __imp__FindClose@4         1003b10c     kernel32:KERNEL32.dll
 0002:00000110       __imp__FindFirstFileExA@24 1003b110     kernel32:KERNEL32.dll
 0002:00000114       __imp__FindNextFileA@8     1003b114     kernel32:KERNEL32.dll
 0002:00000118       __imp__IsValidCodePage@4   1003b118     kernel32:KERNEL32.dll
 0002:0000011c       __imp__GetOEMCP@0          1003b11c     kernel32:KERNEL32.dll
 0002:00000120       __imp__GetCommandLineA@0   1003b120     kernel32:KERNEL32.dll
 0002:00000124       __imp__GetCommandLineW@0   1003b124     kernel32:KERNEL32.dll
 0002:00000128       __imp__GetEnvironmentStringsW@0 1003b128     kernel32:KERNEL32.dll
 0002:0000012c       __imp__FreeEnvironmentStringsW@4 1003b12c     kernel32:KERNEL32.dll
 0002:00000130       __imp__SetStdHandle@8      1003b130     kernel32:KERNEL32.dll
 0002:00000134       __imp__ReadConsoleW@20     1003b134     kernel32:KERNEL32.dll
 0002:00000138       __imp__CreateFileW@28      1003b138     kernel32:KERNEL32.dll
 0002:0000013c       __imp__GetSystemInfo@4     1003b13c     kernel32:KERNEL32.dll
 0002:00000140       __imp__VirtualProtect@16   1003b140     kernel32:KERNEL32.dll
 0002:00000144       __imp__VirtualQuery@12     1003b144     kernel32:KERNEL32.dll
 0002:00000148       __imp__LoadLibraryExA@12   1003b148     kernel32:KERNEL32.dll
 0002:0000014c       \177KERNEL32_NULL_THUNK_DATA 1003b14c     kernel32:KERNEL32.dll
 0002:00000150       ___guard_check_icall_fptr  1003b150     LIBCMT:guard_support.obj
 0002:00000154       ___xc_a                    1003b154     LIBCMT:initializers.obj
 0002:0000051c       __register_pandamat_       1003b51c     addon.obj
 0002:00000520       ___xc_z                    1003b520     LIBCMT:initializers.obj
 0002:00000524       ___xi_a                    1003b524     LIBCMT:initializers.obj
 0002:00000530       ___acrt_stdio_initializer  1003b530     libucrt:stdio_initializer.obj
 0002:00000534       ___acrt_tran_sse2_initializer 1003b534     libucrt:sse2_initializer.obj
 0002:00000538       ___acrt_timeset_initializer 1003b538     libucrt:timeset_initializer.obj
 0002:0000053c       ___acrt_multibyte_initializer 1003b53c     libucrt:multibyte_initializer.obj
 0002:00000540       ___xi_z                    1003b540     LIBCMT:initializers.obj
 0002:00000544       ___xl_a                    1003b544     LIBCMT:tlssup.obj
 0002:00000548       ___xl_z                    1003b548     LIBCMT:tlssup.obj
 0002:0000054c       ___xp_a                    1003b54c     LIBCMT:initializers.obj
 0002:00000550       ___acrt_locale_terminator  1003b550     libucrt:locale_initializer.obj
 0002:00000554       ___dcrt_console_output_terminator 1003b554     libucrt:console_output_initializer.obj
 0002:00000558       ___acrt_stdio_terminator   1003b558     libucrt:stdio_initializer.obj
 0002:0000055c       ___xp_z                    1003b55c     LIBCMT:initializers.obj
 0002:00000560       ___xt_a                    1003b560     LIBCMT:initializers.obj
 0002:00000564       ___xt_z                    1003b564     LIBCMT:initializers.obj
 0002:00000570       __sz_node_exe              1003b570     node:node.exe
 0002:00000580       ??_7exception@std@@6B@     1003b580     libcpmt:cout.obj
 0002:00000588       ??_C@_0BC@EOODALEL@Unknown?5exception?$AA@ 1003b588     libcpmt:cout.obj
 0002:000005a0       ??_7runtime_error@std@@6B@ 1003b5a0     libcpmt:cout.obj
 0002:000005ac       ??_7bad_cast@std@@6B@      1003b5ac     libcpmt:cout.obj
 0002:000005b4       ??_C@_08EPJLHIJG@bad?5cast?$AA@ 1003b5b4     libcpmt:cout.obj
 0002:000005c4       ??_7_Facet_base@std@@6B@   1003b5c4     libcpmt:cout.obj
 0002:000005d4       ??_7?$ctype@D@std@@6B@     1003b5d4     libcpmt:cout.obj
 0002:00000604       ??_7error_category@std@@6B@ 1003b604     libcpmt:cout.obj
 0002:00000620       ??_7_System_error@std@@6B@ 1003b620     libcpmt:cout.obj
 0002:0000062c       ??_7system_error@std@@6B@  1003b62c     libcpmt:cout.obj
 0002:00000638       ??_7_Iostream_error_category@std@@6B@ 1003b638     libcpmt:cout.obj
 0002:00000654       ??_7failure@ios_base@std@@6B@ 1003b654     libcpmt:cout.obj
 0002:00000660       ??_7ios_base@std@@6B@      1003b660     libcpmt:cout.obj
 0002:00000668       ??_7?$basic_streambuf@DU?$char_traits@D@std@@@std@@6B@ 1003b668     libcpmt:cout.obj
 0002:000006a8       ??_7?$basic_filebuf@DU?$char_traits@D@std@@@std@@6B@ 1003b6a8     libcpmt:cout.obj
 0002:000006e8       ??_7?$basic_ios@DU?$char_traits@D@std@@@std@@6B@ 1003b6e8     libcpmt:cout.obj
 0002:000006f0       ??_7?$basic_ostream@DU?$char_traits@D@std@@@std@@6B@ 1003b6f0     libcpmt:cout.obj
 0002:000006f8       ??_7?$codecvt@DDU_Mbstatet@@@std@@6B@ 1003b6f8     libcpmt:cout.obj
 0002:00000724       ??_7_Locimp@locale@std@@6B@ 1003b724     libcpmt:locale0.obj
 0002:00000730       ??_C@_01NBENCBCI@?$CK?$AA@ 1003b730     libcpmt:locale0.obj
 0002:00000734       ??_C@_01GFHCPBMG@C?$AA@    1003b734     libcpmt:locale0.obj
 0002:0000073c       ??_7bad_alloc@std@@6B@     1003b73c     libcpmt:xthrow.obj
 0002:00000748       ??_7logic_error@std@@6B@   1003b748     libcpmt:xthrow.obj
 0002:00000754       ??_7length_error@std@@6B@  1003b754     libcpmt:xthrow.obj
 0002:00000760       ??_7out_of_range@std@@6B@  1003b760     libcpmt:xthrow.obj
 0002:00000768       ?_BADOFF@std@@3_JB         1003b768     libcpmt:ios.obj
 0002:00000770       ??_C@_0BD@JPHBMONG@identifier?5removed?$AA@ 1003b770     libcpmt:syserror.obj
 0002:00000784       ??_C@_0BG@CDNPAGJK@illegal?5byte?5sequence?$AA@ 1003b784     libcpmt:syserror.obj
 0002:0000079c       ??_C@_0CD@BNPLBMNA@inappropriate?5io?5control?5operati@ 1003b79c     libcpmt:syserror.obj
 0002:000007c0       ??_C@_0M@EGEKIIMP@interrupted?$AA@ 1003b7c0     libcpmt:syserror.obj
 0002:000007cc       ??_C@_0BB@FCMFBGOM@invalid?5argument?$AA@ 1003b7cc     libcpmt:syserror.obj
 0002:000007e0       ??_C@_0N@OHAFKDEK@invalid?5seek?$AA@ 1003b7e0     libcpmt:syserror.obj
 0002:000007f0       ??_C@_08GLNPIFBN@io?5error?$AA@ 1003b7f0     libcpmt:syserror.obj
 0002:000007fc       ??_C@_0P@FLLDBIDK@is?5a?5directory?$AA@ 1003b7fc     libcpmt:syserror.obj
 0002:0000080c       ??_C@_0N@IFLPBIOP@message?5size?$AA@ 1003b80c     libcpmt:syserror.obj
 0002:0000081c       ??_C@_0N@KIIEAAIO@network?5down?$AA@ 1003b81c     libcpmt:syserror.obj
 0002:0000082c       ??_C@_0O@FNPDBHEE@network?5reset?$AA@ 1003b82c     libcpmt:syserror.obj
 0002:0000083c       ??_C@_0BE@IFNCKGE@network?5unreachable?$AA@ 1003b83c     libcpmt:syserror.obj
 0002:00000850       ??_C@_0BA@PFFCAOFK@no?5buffer?5space?$AA@ 1003b850     libcpmt:syserror.obj
 0002:00000860       ??_C@_0BB@IEPBLJHK@no?5child?5process?$AA@ 1003b860     libcpmt:syserror.obj
 0002:00000874       ??_C@_07PLECNNKG@no?5link?$AA@ 1003b874     libcpmt:syserror.obj
 0002:0000087c       ??_C@_0BC@NJECKMKE@no?5lock?5available?$AA@ 1003b87c     libcpmt:syserror.obj
 0002:00000890       ??_C@_0BF@PBGGPKKE@no?5message?5available?$AA@ 1003b890     libcpmt:syserror.obj
 0002:000008a8       ??_C@_0L@EDOLMPAK@no?5message?$AA@ 1003b8a8     libcpmt:syserror.obj
 0002:000008b4       ??_C@_0BD@EAMBFIDF@no?5protocol?5option?$AA@ 1003b8b4     libcpmt:syserror.obj
 0002:000008c8       ??_C@_0BD@IJDJKDEA@no?5space?5on?5device?$AA@ 1003b8c8     libcpmt:syserror.obj
 0002:000008dc       ??_C@_0BE@MKFDAFMP@no?5stream?5resources?$AA@ 1003b8dc     libcpmt:syserror.obj
 0002:000008f0       ??_C@_0BK@IMCPHCBI@no?5such?5device?5or?5address?$AA@ 1003b8f0     libcpmt:syserror.obj
 0002:0000090c       ??_C@_0P@FDINDDOK@no?5such?5device?$AA@ 1003b90c     libcpmt:syserror.obj
 0002:0000091c       ??_C@_0BK@NDOCBPGE@no?5such?5file?5or?5directory?$AA@ 1003b91c     libcpmt:syserror.obj
 0002:00000938       ??_C@_0BA@ENLPPKBN@no?5such?5process?$AA@ 1003b938     libcpmt:syserror.obj
 0002:00000948       ??_C@_0BA@DOCPFFJG@not?5a?5directory?$AA@ 1003b948     libcpmt:syserror.obj
 0002:00000958       ??_C@_0N@POEIPGGF@not?5a?5socket?$AA@ 1003b958     libcpmt:syserror.obj
 0002:00000968       ??_C@_0N@LGAPMMPI@not?5a?5stream?$AA@ 1003b968     libcpmt:syserror.obj
 0002:00000978       ??_C@_0O@GLMIBBEG@not?5connected?$AA@ 1003b978     libcpmt:syserror.obj
 0002:00000988       ??_C@_0BC@ENOOLCNF@not?5enough?5memory?$AA@ 1003b988     libcpmt:syserror.obj
 0002:0000099c       ??_C@_0O@NHEDABJP@not?5supported?$AA@ 1003b99c     libcpmt:syserror.obj
 0002:000009ac       ??_C@_0BD@MOLBPMEA@operation?5canceled?$AA@ 1003b9ac     libcpmt:syserror.obj
 0002:000009c0       ??_C@_0BG@KDKHOPCO@operation?5in?5progress?$AA@ 1003b9c0     libcpmt:syserror.obj
 0002:000009d8       ??_C@_0BI@OHIEJAAB@operation?5not?5permitted?$AA@ 1003b9d8     libcpmt:syserror.obj
 0002:000009f0       ??_C@_0BI@LNEGIFLN@operation?5not?5supported?$AA@ 1003b9f0     libcpmt:syserror.obj
 0002:00000a08       ??_C@_0BG@OEMDKMEE@operation?5would?5block?$AA@ 1003ba08     libcpmt:syserror.obj
 0002:00000a20       ??_C@_0L@BLPOFLNJ@owner?5dead?$AA@ 1003ba20     libcpmt:syserror.obj
 0002:00000a2c       ??_C@_0BC@CIJDGCDI@permission?5denied?$AA@ 1003ba2c     libcpmt:syserror.obj
 0002:00000a40       ??_C@_0P@FNPOCJBE@protocol?5error?$AA@ 1003ba40     libcpmt:syserror.obj
 0002:00000a50       ??_C@_0BH@JPPPLHJB@protocol?5not?5supported?$AA@ 1003ba50     libcpmt:syserror.obj
 0002:00000a68       ??_C@_0BG@EICBIHDP@read?5only?5file?5system?$AA@ 1003ba68     libcpmt:syserror.obj
 0002:00000a80       ??_C@_0BO@BJBOMOEJ@resource?5deadlock?5would?5occur?$AA@ 1003ba80     libcpmt:syserror.obj
 0002:00000aa0       ??_C@_0BP@LKNGHENJ@resource?5unavailable?5try?5again?$AA@ 1003baa0     libcpmt:syserror.obj
 0002:00000ac0       ??_C@_0BE@GOIPJJHG@result?5out?5of?5range?$AA@ 1003bac0     libcpmt:syserror.obj
 0002:00000ad4       ??_C@_0BG@MPLKFPAE@state?5not?5recoverable?$AA@ 1003bad4     libcpmt:syserror.obj
 0002:00000aec       ??_C@_0P@DIIFGFCG@stream?5timeout?$AA@ 1003baec     libcpmt:syserror.obj
 0002:00000afc       ??_C@_0P@IPFDMIFL@text?5file?5busy?$AA@ 1003bafc     libcpmt:syserror.obj
 0002:00000b0c       ??_C@_09KJPPMAOI@timed?5out?$AA@ 1003bb0c     libcpmt:syserror.obj
 0002:00000b18       ??_C@_0BO@HACHBEKI@too?5many?5files?5open?5in?5system?$AA@ 1003bb18     libcpmt:syserror.obj
 0002:00000b38       ??_C@_0BE@GHAFMPAH@too?5many?5files?5open?$AA@ 1003bb38     libcpmt:syserror.obj
 0002:00000b4c       ??_C@_0P@HCOMKFCC@too?5many?5links?$AA@ 1003bb4c     libcpmt:syserror.obj
 0002:00000b5c       ??_C@_0BO@EFGOJEF@too?5many?5symbolic?5link?5levels?$AA@ 1003bb5c     libcpmt:syserror.obj
 0002:00000b7c       ??_C@_0BA@KGKGOOJA@value?5too?5large?$AA@ 1003bb7c     libcpmt:syserror.obj
 0002:00000b8c       ??_C@_0BE@MIEJDDNH@wrong?5protocol?5type?$AA@ 1003bb8c     libcpmt:syserror.obj
 0002:00001060       ??_C@_0BN@LKKBCCDB@address?5family?5not?5supported?$AA@ 1003c060     libcpmt:syserror.obj
 0002:00001080       ??_C@_0P@LDMLAFHI@address?5in?5use?$AA@ 1003c080     libcpmt:syserror.obj
 0002:00001090       ??_C@_0BG@DHPCNBJB@address?5not?5available?$AA@ 1003c090     libcpmt:syserror.obj
 0002:000010a8       ??_C@_0BC@DFIBIBIL@already?5connected?$AA@ 1003c0a8     libcpmt:syserror.obj
 0002:000010bc       ??_C@_0BH@CAKOHOMI@argument?5list?5too?5long?$AA@ 1003c0bc     libcpmt:syserror.obj
 0002:000010d4       ??_C@_0BH@CGIMPKIM@argument?5out?5of?5domain?$AA@ 1003c0d4     libcpmt:syserror.obj
 0002:000010ec       ??_C@_0M@KGHGGJGL@bad?5address?$AA@ 1003c0ec     libcpmt:syserror.obj
 0002:000010f8       ??_C@_0BE@MPJPGCEO@bad?5file?5descriptor?$AA@ 1003c0f8     libcpmt:syserror.obj
 0002:0000110c       ??_C@_0M@PMMIEFCP@bad?5message?$AA@ 1003c10c     libcpmt:syserror.obj
 0002:00001118       ??_C@_0M@KPHOFDBE@broken?5pipe?$AA@ 1003c118     libcpmt:syserror.obj
 0002:00001124       ??_C@_0BD@MGNDDEGM@connection?5aborted?$AA@ 1003c124     libcpmt:syserror.obj
 0002:00001138       ??_C@_0BP@KAIHPOGN@connection?5already?5in?5progress?$AA@ 1003c138     libcpmt:syserror.obj
 0002:00001158       ??_C@_0BD@PJLIIJEL@connection?5refused?$AA@ 1003c158     libcpmt:syserror.obj
 0002:0000116c       ??_C@_0BB@IECNJNOI@connection?5reset?$AA@ 1003c16c     libcpmt:syserror.obj
 0002:00001180       ??_C@_0BC@PPHBOELF@cross?5device?5link?$AA@ 1003c180     libcpmt:syserror.obj
 0002:00001194       ??_C@_0BN@KDMIFEIP@destination?5address?5required?$AA@ 1003c194     libcpmt:syserror.obj
 0002:000011b4       ??_C@_0BI@NGCEHDD@device?5or?5resource?5busy?$AA@ 1003c1b4     libcpmt:syserror.obj
 0002:000011cc       ??_C@_0BE@JIDOCPHM@directory?5not?5empty?$AA@ 1003c1cc     libcpmt:syserror.obj
 0002:000011e0       ??_C@_0BI@BNCLIGPB@executable?5format?5error?$AA@ 1003c1e0     libcpmt:syserror.obj
 0002:000011f8       ??_C@_0M@MIDIAGJP@file?5exists?$AA@ 1003c1f8     libcpmt:syserror.obj
 0002:00001204       ??_C@_0P@DNAJLBJK@file?5too?5large?$AA@ 1003c204     libcpmt:syserror.obj
 0002:00001214       ??_C@_0BC@EJHOMAAK@filename?5too?5long?$AA@ 1003c214     libcpmt:syserror.obj
 0002:00001228       ??_C@_0BH@KEFGLDAF@function?5not?5supported?$AA@ 1003c228     libcpmt:syserror.obj
 0002:00001240       ??_C@_0BB@DHFDFGDM@host?5unreachable?$AA@ 1003c240     libcpmt:syserror.obj
 0002:00001254       ??_C@_0O@BFJCFAAK@unknown?5error?$AA@ 1003c254     libcpmt:syserror.obj
 0002:00001268       ??_7?$num_put@DV?$ostreambuf_iterator@DU?$char_traits@D@std@@@std@@@std@@6B@ 1003c268     libcpmt:locale.obj
 0002:00001298       ??_7?$numpunct@D@std@@6B@  1003c298     libcpmt:locale.obj
 0002:000012b8       ??_C@_1BK@MGMFAEKH@?$AAk?$AAe?$AAr?$AAn?$AAe?$AAl?$AA3?$AA2?$AA?4?$AAd?$AAl?$AAl?$AA?$AA@ 1003c2b8     libcpmt:winapisupp.obj
 0002:000012d4       ??_C@_08KNHFBNJ@FlsAlloc?$AA@ 1003c2d4     libcpmt:winapisupp.obj
 0002:000012e0       ??_C@_07PEJMOBNF@FlsFree?$AA@ 1003c2e0     libcpmt:winapisupp.obj
 0002:000012e8       ??_C@_0M@GDNOONDI@FlsGetValue?$AA@ 1003c2e8     libcpmt:winapisupp.obj
 0002:000012f4       ??_C@_0M@JCPCPOEF@FlsSetValue?$AA@ 1003c2f4     libcpmt:winapisupp.obj
 0002:00001300       ??_C@_0BM@HCFOFFN@InitializeCriticalSectionEx?$AA@ 1003c300     libcpmt:winapisupp.obj
 0002:0000131c       ??_C@_0BE@GPLMMCMH@InitOnceExecuteOnce?$AA@ 1003c31c     libcpmt:winapisupp.obj
 0002:00001330       ??_C@_0P@DLHPPCNH@CreateEventExW?$AA@ 1003c330     libcpmt:winapisupp.obj
 0002:00001340       ??_C@_0BB@MEFPJLHN@CreateSemaphoreW?$AA@ 1003c340     libcpmt:winapisupp.obj
 0002:00001354       ??_C@_0BD@KIEEOEEH@CreateSemaphoreExW?$AA@ 1003c354     libcpmt:winapisupp.obj
 0002:00001368       ??_C@_0BG@OGFAJCKC@CreateThreadpoolTimer?$AA@ 1003c368     libcpmt:winapisupp.obj
 0002:00001380       ??_C@_0BD@LPLEMMDI@SetThreadpoolTimer?$AA@ 1003c380     libcpmt:winapisupp.obj
 0002:00001394       ??_C@_0CA@FMNJENH@WaitForThreadpoolTimerCallbacks?$AA@ 1003c394     libcpmt:winapisupp.obj
 0002:000013b4       ??_C@_0BF@DCFCCNOC@CloseThreadpoolTimer?$AA@ 1003c3b4     libcpmt:winapisupp.obj
 0002:000013cc       ??_C@_0BF@FLABGKKM@CreateThreadpoolWait?$AA@ 1003c3cc     libcpmt:winapisupp.obj
 0002:000013e4       ??_C@_0BC@MGCOHNA@SetThreadpoolWait?$AA@ 1003c3e4     libcpmt:winapisupp.obj
 0002:000013f8       ??_C@_0BE@OCIOMIMP@CloseThreadpoolWait?$AA@ 1003c3f8     libcpmt:winapisupp.obj
 0002:0000140c       ??_C@_0BJ@LKGHFHBO@FlushProcessWriteBuffers?$AA@ 1003c40c     libcpmt:winapisupp.obj
 0002:00001428       ??_C@_0BP@KALKKPMO@FreeLibraryWhenCallbackReturns?$AA@ 1003c428     libcpmt:winapisupp.obj
 0002:00001448       ??_C@_0BK@DFNBACLA@GetCurrentProcessorNumber?$AA@ 1003c448     libcpmt:winapisupp.obj
 0002:00001464       ??_C@_0BE@FKKLLFLM@CreateSymbolicLinkW?$AA@ 1003c464     libcpmt:winapisupp.obj
 0002:00001478       ??_C@_0BE@JOGNEJCI@GetCurrentPackageId?$AA@ 1003c478     libcpmt:winapisupp.obj
 0002:0000148c       ??_C@_0P@CDHHOHKP@GetTickCount64?$AA@ 1003c48c     libcpmt:winapisupp.obj
 0002:0000149c       ??_C@_0BN@NEEHBBPO@GetFileInformationByHandleEx?$AA@ 1003c49c     libcpmt:winapisupp.obj
 0002:000014bc       ??_C@_0BL@KBBHGKCM@SetFileInformationByHandle?$AA@ 1003c4bc     libcpmt:winapisupp.obj
 0002:000014d8       ??_C@_0BP@FPNJPEJC@GetSystemTimePreciseAsFileTime?$AA@ 1003c4d8     libcpmt:winapisupp.obj
 0002:000014f8       ??_C@_0BM@HLJJNPAH@InitializeConditionVariable?$AA@ 1003c4f8     libcpmt:winapisupp.obj
 0002:00001514       ??_C@_0BG@BFNILBLN@WakeConditionVariable?$AA@ 1003c514     libcpmt:winapisupp.obj
 0002:0000152c       ??_C@_0BJ@PGPPEPCC@WakeAllConditionVariable?$AA@ 1003c52c     libcpmt:winapisupp.obj
 0002:00001548       ??_C@_0BJ@JEBJOJFJ@SleepConditionVariableCS?$AA@ 1003c548     libcpmt:winapisupp.obj
 0002:00001564       ??_C@_0BC@MMLHEBPB@InitializeSRWLock?$AA@ 1003c564     libcpmt:winapisupp.obj
 0002:00001578       ??_C@_0BI@OMNLIJDB@AcquireSRWLockExclusive?$AA@ 1003c578     libcpmt:winapisupp.obj
 0002:00001590       ??_C@_0BL@OGHFEMNA@TryAcquireSRWLockExclusive?$AA@ 1003c590     libcpmt:winapisupp.obj
 0002:000015ac       ??_C@_0BI@HMIEPCNJ@ReleaseSRWLockExclusive?$AA@ 1003c5ac     libcpmt:winapisupp.obj
 0002:000015c4       ??_C@_0BK@LGACAGIC@SleepConditionVariableSRW?$AA@ 1003c5c4     libcpmt:winapisupp.obj
 0002:000015e0       ??_C@_0BF@GGPHFPJA@CreateThreadpoolWork?$AA@ 1003c5e0     libcpmt:winapisupp.obj
 0002:000015f8       ??_C@_0BF@NHDAIMMO@SubmitThreadpoolWork?$AA@ 1003c5f8     libcpmt:winapisupp.obj
 0002:00001610       ??_C@_0BE@NPHIPNPD@CloseThreadpoolWork?$AA@ 1003c610     libcpmt:winapisupp.obj
 0002:00001624       ??_C@_0BA@IHGNDAEB@CompareStringEx?$AA@ 1003c624     libcpmt:winapisupp.obj
 0002:00001634       ??_C@_0BA@ONOKGCMP@GetLocaleInfoEx?$AA@ 1003c634     libcpmt:winapisupp.obj
 0002:00001644       ??_C@_0O@KKBNKAPF@LCMapStringEx?$AA@ 1003c644     libcpmt:winapisupp.obj
 0002:00001654       ??_C@_11LOCGONAA@?$AA?$AA@ 1003c654     libcpmt:wlocale.obj
 0002:00001658       ??_C@_01JOAMLHOP@?9?$AA@   1003c658     libcpmt:wlocale.obj
 0002:00002540       ??_C@_15EMKDOKLE@?$AAa?$AAr?$AA?$AA@ 1003d540     libcpmt:winapinls.obj
 0002:00002548       ??_C@_15KNPADPLH@?$AAb?$AAg?$AA?$AA@ 1003d548     libcpmt:winapinls.obj
 0002:00002550       ??_C@_15EDMHLDMO@?$AAc?$AAa?$AA?$AA@ 1003d550     libcpmt:winapinls.obj
 0002:00002558       ??_C@_1O@BPEAJADD@?$AAz?$AAh?$AA?9?$AAC?$AAH?$AAS?$AA?$AA@ 1003d558     libcpmt:winapinls.obj
 0002:00002568       ??_C@_15LJNHCMNK@?$AAc?$AAs?$AA?$AA@ 1003d568     libcpmt:winapinls.obj
 0002:00002570       ??_C@_15FOMCIDHG@?$AAd?$AAa?$AA?$AA@ 1003d570     libcpmt:winapinls.obj
 0002:00002578       ??_C@_15NBKABECB@?$AAd?$AAe?$AA?$AA@ 1003d578     libcpmt:winapinls.obj
 0002:00002580       ??_C@_15GHPEIIAO@?$AAe?$AAl?$AA?$AA@ 1003d580     libcpmt:winapinls.obj
 0002:00002588       ??_C@_15MNPNEAIF@?$AAe?$AAn?$AA?$AA@ 1003d588     libcpmt:winapinls.obj
 0002:00002590       ??_C@_15GPIOMPMH@?$AAe?$AAs?$AA?$AA@ 1003d590     libcpmt:winapinls.obj
 0002:00002598       ??_C@_15NGLOAKJC@?$AAf?$AAi?$AA?$AA@ 1003d598     libcpmt:winapinls.obj
 0002:000025a0       ??_C@_15FBKGNKAM@?$AAf?$AAr?$AA?$AA@ 1003d5a0     libcpmt:winapinls.obj
 0002:000025a8       ??_C@_15KGGCNEFK@?$AAh?$AAe?$AA?$AA@ 1003d5a8     libcpmt:winapinls.obj
 0002:000025b0       ??_C@_15PGHLIDMF@?$AAh?$AAu?$AA?$AA@ 1003d5b0     libcpmt:winapinls.obj
 0002:000025b8       ??_C@_15BIEMAPLM@?$AAi?$AAs?$AA?$AA@ 1003d5b8     libcpmt:winapinls.obj
 0002:000025c0       ??_C@_15IFJLDHAF@?$AAi?$AAt?$AA?$AA@ 1003d5c0     libcpmt:winapinls.obj
 0002:000025c8       ??_C@_15GEMIOCAG@?$AAj?$AAa?$AA?$AA@ 1003d5c8     libcpmt:winapinls.obj
 0002:000025d0       ??_C@_15EPELEGJA@?$AAk?$AAo?$AA?$AA@ 1003d5d0     libcpmt:winapinls.obj
 0002:000025d8       ??_C@_15NDDHIMN@?$AAn?$AAl?$AA?$AA@ 1003d5d8     libcpmt:winapinls.obj
 0002:000025e0       ??_C@_15BPIGNHCD@?$AAn?$AAo?$AA?$AA@ 1003d5e0     libcpmt:winapinls.obj
 0002:000025e8       ??_C@_15DEOPBLCG@?$AAp?$AAl?$AA?$AA@ 1003d5e8     libcpmt:winapinls.obj
 0002:000025f0       ??_C@_15KBECGEFG@?$AAp?$AAt?$AA?$AA@ 1003d5f0     libcpmt:winapinls.obj
 0002:000025f8       ??_C@_15GLJCBFMD@?$AAr?$AAo?$AA?$AA@ 1003d5f8     libcpmt:winapinls.obj
 0002:00002600       ??_C@_15FEDGKCDI@?$AAr?$AAu?$AA?$AA@ 1003d600     libcpmt:winapinls.obj
 0002:00002608       ??_C@_15GLKMLLHM@?$AAh?$AAr?$AA?$AA@ 1003d608     libcpmt:winapinls.obj
 0002:00002610       ??_C@_15CPKMFBDB@?$AAs?$AAk?$AA?$AA@ 1003d610     libcpmt:winapinls.obj
 0002:00002618       ??_C@_15BAAIOGMK@?$AAs?$AAq?$AA?$AA@ 1003d618     libcpmt:winapinls.obj
 0002:00002620       ??_C@_15INNPNOHD@?$AAs?$AAv?$AA?$AA@ 1003d620     libcpmt:winapinls.obj
 0002:00002628       ??_C@_15CABMMOGH@?$AAt?$AAh?$AA?$AA@ 1003d628     libcpmt:winapinls.obj
 0002:00002630       ??_C@_15BPLIHJJM@?$AAt?$AAr?$AA?$AA@ 1003d630     libcpmt:winapinls.obj
 0002:00002638       ??_C@_15NEOEKKDJ@?$AAu?$AAr?$AA?$AA@ 1003d638     libcpmt:winapinls.obj
 0002:00002640       ??_C@_15NFICGAJK@?$AAi?$AAd?$AA?$AA@ 1003d640     libcpmt:winapinls.obj
 0002:00002648       ??_C@_15PJPFLCCM@?$AAu?$AAk?$AA?$AA@ 1003d648     libcpmt:winapinls.obj
 0002:00002650       ??_C@_15HPJPHDM@?$AAb?$AAe?$AA?$AA@ 1003d650     libcpmt:winapinls.obj
 0002:00002658       ??_C@_15LCHLGJII@?$AAs?$AAl?$AA?$AA@ 1003d658     libcpmt:winapinls.obj
 0002:00002660       ??_C@_15PCFJPHHO@?$AAe?$AAt?$AA?$AA@ 1003d660     libcpmt:winapinls.obj
 0002:00002668       ??_C@_15HPFPGODN@?$AAl?$AAv?$AA?$AA@ 1003d668     libcpmt:winapinls.obj
 0002:00002670       ??_C@_15NFFGKGLG@?$AAl?$AAt?$AA?$AA@ 1003d670     libcpmt:winapinls.obj
 0002:00002678       ??_C@_15BDAKCCHN@?$AAf?$AAa?$AA?$AA@ 1003d678     libcpmt:winapinls.obj
 0002:00002680       ??_C@_15NFGIAIAJ@?$AAv?$AAi?$AA?$AA@ 1003d680     libcpmt:winapinls.obj
 0002:00002688       ??_C@_15LMKNDMHN@?$AAh?$AAy?$AA?$AA@ 1003d688     libcpmt:winapinls.obj
 0002:00002690       ??_C@_15IJBHMCFL@?$AAa?$AAz?$AA?$AA@ 1003d690     libcpmt:winapinls.obj
 0002:00002698       ??_C@_15EKOFJABL@?$AAe?$AAu?$AA?$AA@ 1003d698     libcpmt:winapinls.obj
 0002:000026a0       ??_C@_15BGHADCNK@?$AAm?$AAk?$AA?$AA@ 1003d6a0     libcpmt:winapinls.obj
 0002:000026a8       ??_C@_15JDNICKHM@?$AAa?$AAf?$AA?$AA@ 1003d6a8     libcpmt:winapinls.obj
 0002:000026b0       ??_C@_15KPJEDBKD@?$AAk?$AAa?$AA?$AA@ 1003d6b0     libcpmt:winapinls.obj
 0002:000026b8       ??_C@_15PDNFFFEO@?$AAf?$AAo?$AA?$AA@ 1003d6b8     libcpmt:winapinls.obj
 0002:000026c0       ??_C@_15OMLEGLOC@?$AAh?$AAi?$AA?$AA@ 1003d6c0     libcpmt:winapinls.obj
 0002:000026c8       ??_C@_15IDNNENKK@?$AAm?$AAs?$AA?$AA@ 1003d6c8     libcpmt:winapinls.obj
 0002:000026d0       ??_C@_15MACJNBMH@?$AAk?$AAk?$AA?$AA@ 1003d6d0     libcpmt:winapinls.obj
 0002:000026d8       ??_C@_15DKDJEOND@?$AAk?$AAy?$AA?$AA@ 1003d6d8     libcpmt:winapinls.obj
 0002:000026e0       ??_C@_15DFGDLJBG@?$AAs?$AAw?$AA?$AA@ 1003d6e0     libcpmt:winapinls.obj
 0002:000026e8       ??_C@_15BBFAICNG@?$AAu?$AAz?$AA?$AA@ 1003d6e8     libcpmt:winapinls.obj
 0002:000026f0       ??_C@_15DKNDCGEA@?$AAt?$AAt?$AA?$AA@ 1003d6f0     libcpmt:winapinls.obj
 0002:000026f8       ??_C@_15MGIFMDPL@?$AAp?$AAa?$AA?$AA@ 1003d6f8     libcpmt:winapinls.obj
 0002:00002700       ??_C@_15HCNDBBA@?$AAg?$AAu?$AA?$AA@ 1003d700     libcpmt:winapinls.obj
 0002:00002708       ??_C@_15FNBEIBON@?$AAt?$AAa?$AA?$AA@ 1003d708     libcpmt:winapinls.obj
 0002:00002710       ??_C@_15NCHGBGLK@?$AAt?$AAe?$AA?$AA@ 1003d710     libcpmt:winapinls.obj
 0002:00002718       ??_C@_15PHPHCBPF@?$AAk?$AAn?$AA?$AA@ 1003d718     libcpmt:winapinls.obj
 0002:00002720       ??_C@_15DLGBCKMP@?$AAm?$AAr?$AA?$AA@ 1003d720     libcpmt:winapinls.obj
 0002:00002728       ??_C@_15EABBLBFF@?$AAs?$AAa?$AA?$AA@ 1003d728     libcpmt:winapinls.obj
 0002:00002730       ??_C@_15CBKOMCOI@?$AAm?$AAn?$AA?$AA@ 1003d730     libcpmt:winapinls.obj
 0002:00002738       ??_C@_15CKDMCJAF@?$AAg?$AAl?$AA?$AA@ 1003d738     libcpmt:winapinls.obj
 0002:00002740       ??_C@_17CNJFBPG@?$AAk?$AAo?$AAk?$AA?$AA@ 1003d740     libcpmt:winapinls.obj
 0002:00002748       ??_C@_17FFBJICPL@?$AAs?$AAy?$AAr?$AA?$AA@ 1003d748     libcpmt:winapinls.obj
 0002:00002750       ??_C@_17KPNDCPAF@?$AAd?$AAi?$AAv?$AA?$AA@ 1003d750     libcpmt:winapinls.obj
 0002:00002758       ??_C@_1M@OKAHONE@?$AAa?$AAr?$AA?9?$AAS?$AAA?$AA?$AA@ 1003d758     libcpmt:winapinls.obj
 0002:00002764       ??_C@_1M@FFFIGIGK@?$AAb?$AAg?$AA?9?$AAB?$AAG?$AA?$AA@ 1003d764     libcpmt:winapinls.obj
 0002:00002770       ??_C@_1M@BJNKEDC@?$AAc?$AAa?$AA?9?$AAE?$AAS?$AA?$AA@ 1003d770     libcpmt:winapinls.obj
 0002:0000277c       ??_C@_1M@CLNBBOPM@?$AAz?$AAh?$AA?9?$AAT?$AAW?$AA?$AA@ 1003d77c     libcpmt:winapinls.obj
 0002:00002788       ??_C@_1M@IJJHFJHA@?$AAc?$AAs?$AA?9?$AAC?$AAZ?$AA?$AA@ 1003d788     libcpmt:winapinls.obj
 0002:00002794       ??_C@_1M@CLPEOBGI@?$AAd?$AAa?$AA?9?$AAD?$AAK?$AA?$AA@ 1003d794     libcpmt:winapinls.obj
 0002:000027a0       ??_C@_1M@MCMADGCB@?$AAd?$AAe?$AA?9?$AAD?$AAE?$AA?$AA@ 1003d7a0     libcpmt:winapinls.obj
 0002:000027ac       ??_C@_1M@OOCKEMAM@?$AAe?$AAl?$AA?9?$AAG?$AAR?$AA?$AA@ 1003d7ac     libcpmt:winapinls.obj
 0002:000027b8       ??_C@_1M@BMHNFIME@?$AAe?$AAn?$AA?9?$AAU?$AAS?$AA?$AA@ 1003d7b8     libcpmt:winapinls.obj
 0002:000027c4       ??_C@_1M@DDNJFGID@?$AAf?$AAi?$AA?9?$AAF?$AAI?$AA?$AA@ 1003d7c4     libcpmt:winapinls.obj
 0002:000027d0       ??_C@_1M@GLIPPMAC@?$AAf?$AAr?$AA?9?$AAF?$AAR?$AA?$AA@ 1003d7d0     libcpmt:winapinls.obj
 0002:000027dc       ??_C@_1M@GFMCHPE@?$AAh?$AAe?$AA?9?$AAI?$AAL?$AA?$AA@ 1003d7dc     libcpmt:winapinls.obj
 0002:000027e8       ??_C@_1M@MHLPGNKM@?$AAh?$AAu?$AA?9?$AAH?$AAU?$AA?$AA@ 1003d7e8     libcpmt:winapinls.obj
 0002:000027f4       ??_C@_1M@LPDDNNPN@?$AAi?$AAs?$AA?9?$AAI?$AAS?$AA?$AA@ 1003d7f4     libcpmt:winapinls.obj
 0002:00002800       ??_C@_1M@MADIPODN@?$AAi?$AAt?$AA?9?$AAI?$AAT?$AA?$AA@ 1003d800     libcpmt:winapinls.obj
 0002:0000280c       ??_C@_1M@HPNHIDJI@?$AAj?$AAa?$AA?9?$AAJ?$AAP?$AA?$AA@ 1003d80c     libcpmt:winapinls.obj
 0002:00002818       ??_C@_1M@JLOOOEGK@?$AAk?$AAo?$AA?9?$AAK?$AAR?$AA?$AA@ 1003d818     libcpmt:winapinls.obj
 0002:00002824       ??_C@_1M@IHBJJGG@?$AAn?$AAl?$AA?9?$AAN?$AAL?$AA?$AA@ 1003d824     libcpmt:winapinls.obj
 0002:00002830       ??_C@_1M@EANAGDL@?$AAn?$AAb?$AA?9?$AAN?$AAO?$AA?$AA@ 1003d830     libcpmt:winapinls.obj
 0002:0000283c       ??_C@_1M@NEIEMEGP@?$AAp?$AAl?$AA?9?$AAP?$AAL?$AA?$AA@ 1003d83c     libcpmt:winapinls.obj
 0002:00002848       ??_C@_1M@BOCFIGEP@?$AAp?$AAt?$AA?9?$AAB?$AAR?$AA?$AA@ 1003d848     libcpmt:winapinls.obj
 0002:00002854       ??_C@_1M@IMPFOPBG@?$AAr?$AAo?$AA?9?$AAR?$AAO?$AA?$AA@ 1003d854     libcpmt:winapinls.obj
 0002:00002860       ??_C@_1M@IDNNEJMM@?$AAr?$AAu?$AA?9?$AAR?$AAU?$AA?$AA@ 1003d860     libcpmt:winapinls.obj
 0002:0000286c       ??_C@_1M@LILEEOGM@?$AAh?$AAr?$AA?9?$AAH?$AAR?$AA?$AA@ 1003d86c     libcpmt:winapinls.obj
 0002:00002878       ??_C@_1M@FKIFEHPB@?$AAs?$AAk?$AA?9?$AAS?$AAK?$AA?$AA@ 1003d878     libcpmt:winapinls.obj
 0002:00002884       ??_C@_1M@LJMAMNPJ@?$AAs?$AAq?$AA?9?$AAA?$AAL?$AA?$AA@ 1003d884     libcpmt:winapinls.obj
 0002:00002890       ??_C@_1M@GIAKDKJK@?$AAs?$AAv?$AA?9?$AAS?$AAE?$AA?$AA@ 1003d890     libcpmt:winapinls.obj
 0002:0000289c       ??_C@_1M@MKJKIKCL@?$AAt?$AAh?$AA?9?$AAT?$AAH?$AA?$AA@ 1003d89c     libcpmt:winapinls.obj
 0002:000028a8       ??_C@_1M@MFLCCMPB@?$AAt?$AAr?$AA?9?$AAT?$AAR?$AA?$AA@ 1003d8a8     libcpmt:winapinls.obj
 0002:000028b4       ??_C@_1M@OIJHDKJN@?$AAu?$AAr?$AA?9?$AAP?$AAK?$AA?$AA@ 1003d8b4     libcpmt:winapinls.obj
 0002:000028c0       ??_C@_1M@LHIPCIEK@?$AAi?$AAd?$AA?9?$AAI?$AAD?$AA?$AA@ 1003d8c0     libcpmt:winapinls.obj
 0002:000028cc       ??_C@_1M@MFMOBGI@?$AAu?$AAk?$AA?9?$AAU?$AAA?$AA?$AA@ 1003d8cc     libcpmt:winapinls.obj
 0002:000028d8       ??_C@_1M@OBGLJIPL@?$AAb?$AAe?$AA?9?$AAB?$AAY?$AA?$AA@ 1003d8d8     libcpmt:winapinls.obj
 0002:000028e4       ??_C@_1M@BCFAJEAD@?$AAs?$AAl?$AA?9?$AAS?$AAI?$AA?$AA@ 1003d8e4     libcpmt:winapinls.obj
 0002:000028f0       ??_C@_1M@FKFFEDDN@?$AAe?$AAt?$AA?9?$AAE?$AAE?$AA?$AA@ 1003d8f0     libcpmt:winapinls.obj
 0002:000028fc       ??_C@_1M@KGKKAACI@?$AAl?$AAv?$AA?9?$AAL?$AAV?$AA?$AA@ 1003d8fc     libcpmt:winapinls.obj
 0002:00002908       ??_C@_1M@IFGBIJO@?$AAl?$AAt?$AA?9?$AAL?$AAT?$AA?$AA@ 1003d908     libcpmt:winapinls.obj
 0002:00002914       ??_C@_1M@FGEAHEDM@?$AAf?$AAa?$AA?9?$AAI?$AAR?$AA?$AA@ 1003d914     libcpmt:winapinls.obj
 0002:00002920       ??_C@_1M@KBMAIBFN@?$AAv?$AAi?$AA?9?$AAV?$AAN?$AA?$AA@ 1003d920     libcpmt:winapinls.obj
 0002:0000292c       ??_C@_1M@GPCBKDJK@?$AAh?$AAy?$AA?9?$AAA?$AAM?$AA?$AA@ 1003d92c     libcpmt:winapinls.obj
 0002:00002938       ??_C@_1BG@BECMDDJB@?$AAa?$AAz?$AA?9?$AAA?$AAZ?$AA?9?$AAL?$AAa?$AAt?$AAn?$AA?$AA@ 1003d938     libcpmt:winapinls.obj
 0002:00002950       ??_C@_1M@MAOFCAEA@?$AAe?$AAu?$AA?9?$AAE?$AAS?$AA?$AA@ 1003d950     libcpmt:winapinls.obj
 0002:0000295c       ??_C@_1M@IGHABKPI@?$AAm?$AAk?$AA?9?$AAM?$AAK?$AA?$AA@ 1003d95c     libcpmt:winapinls.obj
 0002:00002968       ??_C@_1M@IAIGNEJG@?$AAt?$AAn?$AA?9?$AAZ?$AAA?$AA?$AA@ 1003d968     libcpmt:winapinls.obj
 0002:00002974       ??_C@_1M@IIJCOJFA@?$AAx?$AAh?$AA?9?$AAZ?$AAA?$AA?$AA@ 1003d974     libcpmt:winapinls.obj
 0002:00002980       ??_C@_1M@LGPJHNJH@?$AAz?$AAu?$AA?9?$AAZ?$AAA?$AA?$AA@ 1003d980     libcpmt:winapinls.obj
 0002:0000298c       ??_C@_1M@HOKAOIO@?$AAa?$AAf?$AA?9?$AAZ?$AAA?$AA?$AA@ 1003d98c     libcpmt:winapinls.obj
 0002:00002998       ??_C@_1M@DPCLHLIE@?$AAk?$AAa?$AA?9?$AAG?$AAE?$AA?$AA@ 1003d998     libcpmt:winapinls.obj
 0002:000029a4       ??_C@_1M@BLKMHJBI@?$AAf?$AAo?$AA?9?$AAF?$AAO?$AA?$AA@ 1003d9a4     libcpmt:winapinls.obj
 0002:000029b0       ??_C@_1M@LGGJAPPB@?$AAh?$AAi?$AA?9?$AAI?$AAN?$AA?$AA@ 1003d9b0     libcpmt:winapinls.obj
 0002:000029bc       ??_C@_1M@FIKPIHFE@?$AAm?$AAt?$AA?9?$AAM?$AAT?$AA?$AA@ 1003d9bc     libcpmt:winapinls.obj
 0002:000029c8       ??_C@_1M@HEGGPBFA@?$AAs?$AAe?$AA?9?$AAN?$AAO?$AA?$AA@ 1003d9c8     libcpmt:winapinls.obj
 0002:000029d4       ??_C@_1M@EIBJEEPA@?$AAm?$AAs?$AA?9?$AAM?$AAY?$AA?$AA@ 1003d9d4     libcpmt:winapinls.obj
 0002:000029e0       ??_C@_1M@FHLBGMPP@?$AAk?$AAk?$AA?9?$AAK?$AAZ?$AA?$AA@ 1003d9e0     libcpmt:winapinls.obj
 0002:000029ec       ??_C@_1M@NGJJLCGI@?$AAk?$AAy?$AA?9?$AAK?$AAG?$AA?$AA@ 1003d9ec     libcpmt:winapinls.obj
 0002:000029f8       ??_C@_1M@GIENNBFC@?$AAs?$AAw?$AA?9?$AAK?$AAE?$AA?$AA@ 1003d9f8     libcpmt:winapinls.obj
 0002:00002a04       ??_C@_1BG@NDGMJIMJ@?$AAu?$AAz?$AA?9?$AAU?$AAZ?$AA?9?$AAL?$AAa?$AAt?$AAn?$AA?$AA@ 1003da04     libcpmt:winapinls.obj
 0002:00002a1c       ??_C@_1M@IDCCIHBC@?$AAt?$AAt?$AA?9?$AAR?$AAU?$AA?$AA@ 1003da1c     libcpmt:winapinls.obj
 0002:00002a28       ??_C@_1M@LOICPMOJ@?$AAb?$AAn?$AA?9?$AAI?$AAN?$AA?$AA@ 1003da28     libcpmt:winapinls.obj
 0002:00002a34       ??_C@_1M@KPKKNEAH@?$AAp?$AAa?$AA?9?$AAI?$AAN?$AA?$AA@ 1003da34     libcpmt:winapinls.obj
 0002:00002a40       ??_C@_1M@PJGPPBOG@?$AAg?$AAu?$AA?9?$AAI?$AAN?$AA?$AA@ 1003da40     libcpmt:winapinls.obj
 0002:00002a4c       ??_C@_1M@KMKMOPHI@?$AAt?$AAa?$AA?9?$AAI?$AAN?$AA?$AA@ 1003da4c     libcpmt:winapinls.obj
 0002:00002a58       ??_C@_1M@KFEHEPAC@?$AAt?$AAe?$AA?9?$AAI?$AAN?$AA?$AA@ 1003da58     libcpmt:winapinls.obj
 0002:00002a64       ??_C@_1M@CDCLMGHI@?$AAk?$AAn?$AA?9?$AAI?$AAN?$AA?$AA@ 1003da64     libcpmt:winapinls.obj
 0002:00002a70       ??_C@_1M@MIODLDKF@?$AAm?$AAl?$AA?9?$AAI?$AAN?$AA?$AA@ 1003da70     libcpmt:winapinls.obj
 0002:00002a7c       ??_C@_1M@PBIEACPO@?$AAm?$AAr?$AA?9?$AAI?$AAN?$AA?$AA@ 1003da7c     libcpmt:winapinls.obj
 0002:00002a88       ??_C@_1M@NIDEAGPH@?$AAs?$AAa?$AA?9?$AAI?$AAN?$AA?$AA@ 1003da88     libcpmt:winapinls.obj
 0002:00002a94       ??_C@_1M@FHIHCBIO@?$AAm?$AAn?$AA?9?$AAM?$AAN?$AA?$AA@ 1003da94     libcpmt:winapinls.obj
 0002:00002aa0       ??_C@_1M@JAIJPENP@?$AAc?$AAy?$AA?9?$AAG?$AAB?$AA?$AA@ 1003daa0     libcpmt:winapinls.obj
 0002:00002aac       ??_C@_1M@PHGFBEPN@?$AAg?$AAl?$AA?9?$AAE?$AAS?$AA?$AA@ 1003daac     libcpmt:winapinls.obj
 0002:00002ab8       ??_C@_1O@KPIPDNCP@?$AAk?$AAo?$AAk?$AA?9?$AAI?$AAN?$AA?$AA@ 1003dab8     libcpmt:winapinls.obj
 0002:00002ac8       ??_C@_1O@KNHJLDJA@?$AAs?$AAy?$AAr?$AA?9?$AAS?$AAY?$AA?$AA@ 1003dac8     libcpmt:winapinls.obj
 0002:00002ad8       ??_C@_1O@MKEKBLAH@?$AAd?$AAi?$AAv?$AA?9?$AAM?$AAV?$AA?$AA@ 1003dad8     libcpmt:winapinls.obj
 0002:00002ae8       ??_C@_1O@OHDCKDDF@?$AAq?$AAu?$AAz?$AA?9?$AAB?$AAO?$AA?$AA@ 1003dae8     libcpmt:winapinls.obj
 0002:00002af8       ??_C@_1M@LEPJNLFD@?$AAn?$AAs?$AA?9?$AAZ?$AAA?$AA?$AA@ 1003daf8     libcpmt:winapinls.obj
 0002:00002b04       ??_C@_1M@OMLEIIJB@?$AAm?$AAi?$AA?9?$AAN?$AAZ?$AA?$AA@ 1003db04     libcpmt:winapinls.obj
 0002:00002b10       ??_C@_1M@PMPEAILG@?$AAa?$AAr?$AA?9?$AAI?$AAQ?$AA?$AA@ 1003db10     libcpmt:winapinls.obj
 0002:00002b1c       ??_C@_1M@BIBDDEMK@?$AAz?$AAh?$AA?9?$AAC?$AAN?$AA?$AA@ 1003db1c     libcpmt:winapinls.obj
 0002:00002b28       ??_C@_1M@CNKPNOEE@?$AAd?$AAe?$AA?9?$AAC?$AAH?$AA?$AA@ 1003db28     libcpmt:winapinls.obj
 0002:00002b34       ??_C@_1M@LKMGMLKO@?$AAe?$AAn?$AA?9?$AAG?$AAB?$AA?$AA@ 1003db34     libcpmt:winapinls.obj
 0002:00002b40       ??_C@_1M@PGKJFFGL@?$AAe?$AAs?$AA?9?$AAM?$AAX?$AA?$AA@ 1003db40     libcpmt:winapinls.obj
 0002:00002b4c       ??_C@_1M@DNNANBDC@?$AAf?$AAr?$AA?9?$AAB?$AAE?$AA?$AA@ 1003db4c     libcpmt:winapinls.obj
 0002:00002b58       ??_C@_1M@HLGMDFHM@?$AAi?$AAt?$AA?9?$AAC?$AAH?$AA?$AA@ 1003db58     libcpmt:winapinls.obj
 0002:00002b64       ??_C@_1M@CLLBGJH@?$AAn?$AAl?$AA?9?$AAB?$AAE?$AA?$AA@ 1003db64     libcpmt:winapinls.obj
 0002:00002b70       ??_C@_1M@BODBOGLF@?$AAn?$AAn?$AA?9?$AAN?$AAO?$AA?$AA@ 1003db70     libcpmt:winapinls.obj
 0002:00002b7c       ??_C@_1M@HFFAHKAD@?$AAp?$AAt?$AA?9?$AAP?$AAT?$AA?$AA@ 1003db7c     libcpmt:winapinls.obj
 0002:00002b88       ??_C@_1BG@LNOAKHIE@?$AAs?$AAr?$AA?9?$AAS?$AAP?$AA?9?$AAL?$AAa?$AAt?$AAn?$AA?$AA@ 1003db88     libcpmt:winapinls.obj
 0002:00002ba0       ??_C@_1M@HBMHBGAK@?$AAs?$AAv?$AA?9?$AAF?$AAI?$AA?$AA@ 1003dba0     libcpmt:winapinls.obj
 0002:00002bac       ??_C@_1BG@DGCJGJBE@?$AAa?$AAz?$AA?9?$AAA?$AAZ?$AA?9?$AAC?$AAy?$AAr?$AAl?$AA?$AA@ 1003dbac     libcpmt:winapinls.obj
 0002:00002bc4       ??_C@_1M@KEJDAAHB@?$AAs?$AAe?$AA?9?$AAS?$AAE?$AA?$AA@ 1003dbc4     libcpmt:winapinls.obj
 0002:00002bd0       ??_C@_1M@HEIBJJAD@?$AAm?$AAs?$AA?9?$AAB?$AAN?$AA?$AA@ 1003dbd0     libcpmt:winapinls.obj
 0002:00002bdc       ??_C@_1BG@PBGJMCEM@?$AAu?$AAz?$AA?9?$AAU?$AAZ?$AA?9?$AAC?$AAy?$AAr?$AAl?$AA?$AA@ 1003dbdc     libcpmt:winapinls.obj
 0002:00002bf4       ??_C@_1O@LAOBCMDF@?$AAq?$AAu?$AAz?$AA?9?$AAE?$AAC?$AA?$AA@ 1003dbf4     libcpmt:winapinls.obj
 0002:00002c04       ??_C@_1M@POEEMAIO@?$AAa?$AAr?$AA?9?$AAE?$AAG?$AA?$AA@ 1003dc04     libcpmt:winapinls.obj
 0002:00002c10       ??_C@_1M@EFAKDEDL@?$AAz?$AAh?$AA?9?$AAH?$AAK?$AA?$AA@ 1003dc10     libcpmt:winapinls.obj
 0002:00002c1c       ??_C@_1M@HKKIJHGI@?$AAd?$AAe?$AA?9?$AAA?$AAT?$AA?$AA@ 1003dc1c     libcpmt:winapinls.obj
 0002:00002c28       ??_C@_1M@KBFBEHJF@?$AAe?$AAn?$AA?9?$AAA?$AAU?$AA?$AA@ 1003dc28     libcpmt:winapinls.obj
 0002:00002c34       ??_C@_1M@MNPLFAAH@?$AAe?$AAs?$AA?9?$AAE?$AAS?$AA?$AA@ 1003dc34     libcpmt:winapinls.obj
 0002:00002c40       ??_C@_1M@HJOOJFMA@?$AAf?$AAr?$AA?9?$AAC?$AAA?$AA?$AA@ 1003dc40     libcpmt:winapinls.obj
 0002:00002c4c       ??_C@_1BG@JPOFPNAB@?$AAs?$AAr?$AA?9?$AAS?$AAP?$AA?9?$AAC?$AAy?$AAr?$AAl?$AA?$AA@ 1003dc4c     libcpmt:winapinls.obj
 0002:00002c64       ??_C@_1M@LNFOCMOB@?$AAs?$AAe?$AA?9?$AAF?$AAI?$AA?$AA@ 1003dc64     libcpmt:winapinls.obj
 0002:00002c70       ??_C@_1O@MGJBOAMB@?$AAq?$AAu?$AAz?$AA?9?$AAP?$AAE?$AA?$AA@ 1003dc70     libcpmt:winapinls.obj
 0002:00002c80       ??_C@_1M@GJINLBOK@?$AAa?$AAr?$AA?9?$AAL?$AAY?$AA?$AA@ 1003dc80     libcpmt:winapinls.obj
 0002:00002c8c       ??_C@_1M@GGMNHJNL@?$AAz?$AAh?$AA?9?$AAS?$AAG?$AA?$AA@ 1003dc8c     libcpmt:winapinls.obj
 0002:00002c98       ??_C@_1M@HOIKODND@?$AAd?$AAe?$AA?9?$AAL?$AAU?$AA?$AA@ 1003dc98     libcpmt:winapinls.obj
 0002:00002ca4       ??_C@_1M@DDOCCGFG@?$AAe?$AAn?$AA?9?$AAC?$AAA?$AA?$AA@ 1003dca4     libcpmt:winapinls.obj
 0002:00002cb0       ??_C@_1M@BNOEMJLF@?$AAe?$AAs?$AA?9?$AAG?$AAT?$AA?$AA@ 1003dcb0     libcpmt:winapinls.obj
 0002:00002cbc       ??_C@_1M@EOGNKEK@?$AAf?$AAr?$AA?9?$AAC?$AAH?$AA?$AA@ 1003dcbc     libcpmt:winapinls.obj
 0002:00002cc8       ??_C@_1M@FLIDJFHL@?$AAh?$AAr?$AA?9?$AAB?$AAA?$AA?$AA@ 1003dcc8     libcpmt:winapinls.obj
 0002:00002cd4       ??_C@_1O@FMCELNAJ@?$AAs?$AAm?$AAj?$AA?9?$AAN?$AAO?$AA?$AA@ 1003dcd4     libcpmt:winapinls.obj
 0002:00002ce4       ??_C@_1M@JHGLJMGJ@?$AAa?$AAr?$AA?9?$AAD?$AAZ?$AA?$AA@ 1003dce4     libcpmt:winapinls.obj
 0002:00002cf0       ??_C@_1M@JKKFDCNP@?$AAz?$AAh?$AA?9?$AAM?$AAO?$AA?$AA@ 1003dcf0     libcpmt:winapinls.obj
 0002:00002cfc       ??_C@_1M@GEEFALPE@?$AAd?$AAe?$AA?9?$AAL?$AAI?$AA?$AA@ 1003dcfc     libcpmt:winapinls.obj
 0002:00002d08       ??_C@_1M@IGEOFBG@?$AAe?$AAn?$AA?9?$AAN?$AAZ?$AA?$AA@ 1003dd08     libcpmt:winapinls.obj
 0002:00002d14       ??_C@_1M@KDBONEHP@?$AAe?$AAs?$AA?9?$AAC?$AAR?$AA?$AA@ 1003dd14     libcpmt:winapinls.obj
 0002:00002d20       ??_C@_1M@FHMDOHNN@?$AAf?$AAr?$AA?9?$AAL?$AAU?$AA?$AA@ 1003dd20     libcpmt:winapinls.obj
 0002:00002d2c       ??_C@_1BG@NFKKMAFG@?$AAb?$AAs?$AA?9?$AAB?$AAA?$AA?9?$AAL?$AAa?$AAt?$AAn?$AA?$AA@ 1003dd2c     libcpmt:winapinls.obj
 0002:00002d44       ??_C@_1O@IMNBEMCI@?$AAs?$AAm?$AAj?$AA?9?$AAS?$AAE?$AA?$AA@ 1003dd44     libcpmt:winapinls.obj
 0002:00002d54       ??_C@_1M@DHHMBNDP@?$AAa?$AAr?$AA?9?$AAM?$AAA?$AA?$AA@ 1003dd54     libcpmt:winapinls.obj
 0002:00002d60       ??_C@_1M@BNBLJCGH@?$AAe?$AAn?$AA?9?$AAI?$AAE?$AA?$AA@ 1003dd60     libcpmt:winapinls.obj
 0002:00002d6c       ??_C@_1M@GEPAFMDL@?$AAe?$AAs?$AA?9?$AAP?$AAA?$AA?$AA@ 1003dd6c     libcpmt:winapinls.obj
 0002:00002d78       ??_C@_1M@OJONDMDL@?$AAf?$AAr?$AA?9?$AAM?$AAC?$AA?$AA@ 1003dd78     libcpmt:winapinls.obj
 0002:00002d84       ??_C@_1BG@OBCNFJB@?$AAs?$AAr?$AA?9?$AAB?$AAA?$AA?9?$AAL?$AAa?$AAt?$AAn?$AA?$AA@ 1003dd84     libcpmt:winapinls.obj
 0002:00002d9c       ??_C@_1O@KEMEEGPO@?$AAs?$AAm?$AAa?$AA?9?$AAN?$AAO?$AA?$AA@ 1003dd9c     libcpmt:winapinls.obj
 0002:00002dac       ??_C@_1M@ELMGFODK@?$AAa?$AAr?$AA?9?$AAT?$AAN?$AA?$AA@ 1003ddac     libcpmt:winapinls.obj
 0002:00002db8       ??_C@_1M@BHDLHFAF@?$AAe?$AAn?$AA?9?$AAZ?$AAA?$AA?$AA@ 1003ddb8     libcpmt:winapinls.obj
 0002:00002dc4       ??_C@_1M@BMGIGLIF@?$AAe?$AAs?$AA?9?$AAD?$AAO?$AA?$AA@ 1003ddc4     libcpmt:winapinls.obj
 0002:00002dd0       ??_C@_1BG@CMBHIPBE@?$AAs?$AAr?$AA?9?$AAB?$AAA?$AA?9?$AAC?$AAy?$AAr?$AAl?$AA?$AA@ 1003ddd0     libcpmt:winapinls.obj
 0002:00002de8       ??_C@_1O@HEDBLHNP@?$AAs?$AAm?$AAa?$AA?9?$AAS?$AAE?$AA?$AA@ 1003dde8     libcpmt:winapinls.obj
 0002:00002df8       ??_C@_1M@DAGCADIM@?$AAa?$AAr?$AA?9?$AAO?$AAM?$AA?$AA@ 1003ddf8     libcpmt:winapinls.obj
 0002:00002e04       ??_C@_1M@FODLMICG@?$AAe?$AAn?$AA?9?$AAJ?$AAM?$AA?$AA@ 1003de04     libcpmt:winapinls.obj
 0002:00002e10       ??_C@_1M@DNMLCIHB@?$AAe?$AAs?$AA?9?$AAV?$AAE?$AA?$AA@ 1003de10     libcpmt:winapinls.obj
 0002:00002e1c       ??_C@_1O@EOKHMKJK@?$AAs?$AAm?$AAs?$AA?9?$AAF?$AAI?$AA?$AA@ 1003de1c     libcpmt:winapinls.obj
 0002:00002e2c       ??_C@_1M@CAFJMKOF@?$AAa?$AAr?$AA?9?$AAY?$AAE?$AA?$AA@ 1003de2c     libcpmt:winapinls.obj
 0002:00002e38       ??_C@_1M@CBFHIJLI@?$AAe?$AAn?$AA?9?$AAC?$AAB?$AA?$AA@ 1003de38     libcpmt:winapinls.obj
 0002:00002e44       ??_C@_1M@BGNFLDN@?$AAe?$AAs?$AA?9?$AAC?$AAO?$AA?$AA@ 1003de44     libcpmt:winapinls.obj
 0002:00002e50       ??_C@_1O@JMPHMAMC@?$AAs?$AAm?$AAn?$AA?9?$AAF?$AAI?$AA?$AA@ 1003de50     libcpmt:winapinls.obj
 0002:00002e60       ??_C@_1M@JLANABKE@?$AAa?$AAr?$AA?9?$AAS?$AAY?$AA?$AA@ 1003de60     libcpmt:winapinls.obj
 0002:00002e6c       ??_C@_1M@HPKGCFGN@?$AAe?$AAn?$AA?9?$AAB?$AAZ?$AA?$AA@ 1003de6c     libcpmt:winapinls.obj
 0002:00002e78       ??_C@_1M@OLJCMLGM@?$AAe?$AAs?$AA?9?$AAP?$AAE?$AA?$AA@ 1003de78     libcpmt:winapinls.obj
 0002:00002e84       ??_C@_1M@MKKGFKLE@?$AAa?$AAr?$AA?9?$AAJ?$AAO?$AA?$AA@ 1003de84     libcpmt:winapinls.obj
 0002:00002e90       ??_C@_1M@EKPGLDNI@?$AAe?$AAn?$AA?9?$AAT?$AAT?$AA?$AA@ 1003de90     libcpmt:winapinls.obj
 0002:00002e9c       ??_C@_1M@OONGHFHE@?$AAe?$AAs?$AA?9?$AAA?$AAR?$AA?$AA@ 1003de9c     libcpmt:winapinls.obj
 0002:00002ea8       ??_C@_1M@OOJFGBHE@?$AAa?$AAr?$AA?9?$AAL?$AAB?$AA?$AA@ 1003dea8     libcpmt:winapinls.obj
 0002:00002eb4       ??_C@_1M@GCEJHNEG@?$AAe?$AAn?$AA?9?$AAZ?$AAW?$AA?$AA@ 1003deb4     libcpmt:winapinls.obj
 0002:00002ec0       ??_C@_1M@JNOCAHJI@?$AAe?$AAs?$AA?9?$AAE?$AAC?$AA?$AA@ 1003dec0     libcpmt:winapinls.obj
 0002:00002ecc       ??_C@_1M@JEFHPGGB@?$AAa?$AAr?$AA?9?$AAK?$AAW?$AA?$AA@ 1003decc     libcpmt:winapinls.obj
 0002:00002ed8       ??_C@_1M@MLKIBJOJ@?$AAe?$AAn?$AA?9?$AAP?$AAH?$AA?$AA@ 1003ded8     libcpmt:winapinls.obj
 0002:00002ee4       ??_C@_1M@BDNIPEND@?$AAe?$AAs?$AA?9?$AAC?$AAL?$AA?$AA@ 1003dee4     libcpmt:winapinls.obj
 0002:00002ef0       ??_C@_1M@MPNMEKBD@?$AAa?$AAr?$AA?9?$AAA?$AAE?$AA?$AA@ 1003def0     libcpmt:winapinls.obj
 0002:00002efc       ??_C@_1M@KBJALCPI@?$AAe?$AAs?$AA?9?$AAU?$AAY?$AA?$AA@ 1003defc     libcpmt:winapinls.obj
 0002:00002f08       ??_C@_1M@LLCCOAGA@?$AAa?$AAr?$AA?9?$AAB?$AAH?$AA?$AA@ 1003df08     libcpmt:winapinls.obj
 0002:00002f14       ??_C@_1M@PBFNCDEL@?$AAe?$AAs?$AA?9?$AAP?$AAY?$AA?$AA@ 1003df14     libcpmt:winapinls.obj
 0002:00002f20       ??_C@_1M@EDGINPNP@?$AAa?$AAr?$AA?9?$AAQ?$AAA?$AA?$AA@ 1003df20     libcpmt:winapinls.obj
 0002:00002f2c       ??_C@_1M@MKDBIIJI@?$AAe?$AAs?$AA?9?$AAB?$AAO?$AA?$AA@ 1003df2c     libcpmt:winapinls.obj
 0002:00002f38       ??_C@_1M@CPKKEBLD@?$AAe?$AAs?$AA?9?$AAS?$AAV?$AA?$AA@ 1003df38     libcpmt:winapinls.obj
 0002:00002f44       ??_C@_1M@NDBGMMJL@?$AAe?$AAs?$AA?9?$AAH?$AAN?$AA?$AA@ 1003df44     libcpmt:winapinls.obj
 0002:00002f50       ??_C@_1M@JIJIBHDP@?$AAe?$AAs?$AA?9?$AAN?$AAI?$AA?$AA@ 1003df50     libcpmt:winapinls.obj
 0002:00002f5c       ??_C@_1M@CGFMKEEK@?$AAe?$AAs?$AA?9?$AAP?$AAR?$AA?$AA@ 1003df5c     libcpmt:winapinls.obj
 0002:00002f68       ??_C@_1O@ICJHKIIK@?$AAz?$AAh?$AA?9?$AAC?$AAH?$AAT?$AA?$AA@ 1003df68     libcpmt:winapinls.obj
 0002:00002f78       ??_C@_15CLNEJCE@?$AAs?$AAr?$AA?$AA@ 1003df78     libcpmt:winapinls.obj
 0002:00002f80       ??_C@_1M@KAHEKEIG@?$AAa?$AAf?$AA?9?$AAz?$AAa?$AA?$AA@ 1003df80     libcpmt:winapinls.obj
 0002:00002f8c       ??_C@_1M@GIECOABL@?$AAa?$AAr?$AA?9?$AAa?$AAe?$AA?$AA@ 1003df8c     libcpmt:winapinls.obj
 0002:00002f98       ??_C@_1M@BMLMEKGI@?$AAa?$AAr?$AA?9?$AAb?$AAh?$AA?$AA@ 1003df98     libcpmt:winapinls.obj
 0002:00002fa4       ??_C@_1M@DAPFDGGB@?$AAa?$AAr?$AA?9?$AAd?$AAz?$AA?$AA@ 1003dfa4     libcpmt:winapinls.obj
 0002:00002fb0       ??_C@_1M@FJNKGKIG@?$AAa?$AAr?$AA?9?$AAe?$AAg?$AA?$AA@ 1003dfb0     libcpmt:winapinls.obj
 0002:00002fbc       ??_C@_1M@FLGKKCLO@?$AAa?$AAr?$AA?9?$AAi?$AAq?$AA?$AA@ 1003dfbc     libcpmt:winapinls.obj
 0002:00002fc8       ??_C@_1M@GNDIPALM@?$AAa?$AAr?$AA?9?$AAj?$AAo?$AA?$AA@ 1003dfc8     libcpmt:winapinls.obj
 0002:00002fd4       ??_C@_1M@DDMJFMGJ@?$AAa?$AAr?$AA?9?$AAk?$AAw?$AA?$AA@ 1003dfd4     libcpmt:winapinls.obj
 0002:00002fe0       ??_C@_1M@EJALMLHM@?$AAa?$AAr?$AA?9?$AAl?$AAb?$AA?$AA@ 1003dfe0     libcpmt:winapinls.obj
 0002:00002fec       ??_C@_1M@MOBDBLOC@?$AAa?$AAr?$AA?9?$AAl?$AAy?$AA?$AA@ 1003dfec     libcpmt:winapinls.obj
 0002:00002ff8       ??_C@_1M@JAOCLHDH@?$AAa?$AAr?$AA?9?$AAm?$AAa?$AA?$AA@ 1003dff8     libcpmt:winapinls.obj
 0002:00003004       ??_C@_1M@JHPMKJIE@?$AAa?$AAr?$AA?9?$AAo?$AAm?$AA?$AA@ 1003e004     libcpmt:winapinls.obj
 0002:00003010       ??_C@_1M@OEPGHFNH@?$AAa?$AAr?$AA?9?$AAq?$AAa?$AA?$AA@ 1003e010     libcpmt:winapinls.obj
 0002:0000301c       ??_C@_1M@KJDONENM@?$AAa?$AAr?$AA?9?$AAs?$AAa?$AA?$AA@ 1003e01c     libcpmt:winapinls.obj
 0002:00003028       ??_C@_1M@DMJDKLKM@?$AAa?$AAr?$AA?9?$AAs?$AAy?$AA?$AA@ 1003e028     libcpmt:winapinls.obj
 0002:00003034       ??_C@_1M@OMFIPEDC@?$AAa?$AAr?$AA?9?$AAt?$AAn?$AA?$AA@ 1003e034     libcpmt:winapinls.obj
 0002:00003040       ??_C@_1M@IHMHGAON@?$AAa?$AAr?$AA?9?$AAy?$AAe?$AA?$AA@ 1003e040     libcpmt:winapinls.obj
 0002:0000304c       ??_C@_1BG@KDCPGJGB@?$AAa?$AAz?$AA?9?$AAa?$AAz?$AA?9?$AAc?$AAy?$AAr?$AAl?$AA?$AA@ 1003e04c     libcpmt:winapinls.obj
 0002:00003064       ??_C@_1BG@IBCKDDOE@?$AAa?$AAz?$AA?9?$AAa?$AAz?$AA?9?$AAl?$AAa?$AAt?$AAn?$AA?$AA@ 1003e064     libcpmt:winapinls.obj
 0002:0000307c       ??_C@_1M@EGPFDCPD@?$AAb?$AAe?$AA?9?$AAb?$AAy?$AA?$AA@ 1003e07c     libcpmt:winapinls.obj
 0002:00003088       ??_C@_1M@PCMGMCGC@?$AAb?$AAg?$AA?9?$AAb?$AAg?$AA?$AA@ 1003e088     libcpmt:winapinls.obj
 0002:00003094       ??_C@_1M@BJBMFGOB@?$AAb?$AAn?$AA?9?$AAi?$AAn?$AA?$AA@ 1003e094     libcpmt:winapinls.obj
 0002:000030a0       ??_C@_1BG@EAKMMACD@?$AAb?$AAs?$AA?9?$AAb?$AAa?$AA?9?$AAl?$AAa?$AAt?$AAn?$AA?$AA@ 1003e0a0     libcpmt:winapinls.obj
 0002:000030b8       ??_C@_1M@KGADAODK@?$AAc?$AAa?$AA?9?$AAe?$AAs?$AA?$AA@ 1003e0b8     libcpmt:winapinls.obj
 0002:000030c4       ??_C@_1M@COAJPDHI@?$AAc?$AAs?$AA?9?$AAc?$AAz?$AA?$AA@ 1003e0c4     libcpmt:winapinls.obj
 0002:000030d0       ??_C@_1M@DHBHFONH@?$AAc?$AAy?$AA?9?$AAg?$AAb?$AA?$AA@ 1003e0d0     libcpmt:winapinls.obj
 0002:000030dc       ??_C@_1M@IMGKELGA@?$AAd?$AAa?$AA?9?$AAd?$AAk?$AA?$AA@ 1003e0dc     libcpmt:winapinls.obj
 0002:000030e8       ??_C@_1M@NNDGDNGA@?$AAd?$AAe?$AA?9?$AAa?$AAt?$AA?$AA@ 1003e0e8     libcpmt:winapinls.obj
 0002:000030f4       ??_C@_1M@IKDBHEEM@?$AAd?$AAe?$AA?9?$AAc?$AAh?$AA?$AA@ 1003e0f4     libcpmt:winapinls.obj
 0002:00003100       ??_C@_1M@GFFOJMCJ@?$AAd?$AAe?$AA?9?$AAd?$AAe?$AA?$AA@ 1003e100     libcpmt:winapinls.obj
 0002:0000310c       ??_C@_1M@MDNLKBPM@?$AAd?$AAe?$AA?9?$AAl?$AAi?$AA?$AA@ 1003e10c     libcpmt:winapinls.obj
 0002:00003118       ??_C@_1M@NJBEEJNL@?$AAd?$AAe?$AA?9?$AAl?$AAu?$AA?$AA@ 1003e118     libcpmt:winapinls.obj
 0002:00003124       ??_C@_1O@GNNELBAP@?$AAd?$AAi?$AAv?$AA?9?$AAm?$AAv?$AA?$AA@ 1003e124     libcpmt:winapinls.obj
 0002:00003134       ??_C@_1M@EJLEOGAE@?$AAe?$AAl?$AA?9?$AAg?$AAr?$AA?$AA@ 1003e134     libcpmt:winapinls.obj
 0002:00003140       ??_C@_1M@GMPONJN@?$AAe?$AAn?$AA?9?$AAa?$AAu?$AA?$AA@ 1003e140     libcpmt:winapinls.obj
 0002:0000314c       ??_C@_1M@NIDIIPGF@?$AAe?$AAn?$AA?9?$AAb?$AAz?$AA?$AA@ 1003e14c     libcpmt:winapinls.obj
 0002:00003158       ??_C@_1M@JEHMIMFO@?$AAe?$AAn?$AA?9?$AAc?$AAa?$AA?$AA@ 1003e158     libcpmt:winapinls.obj
 0002:00003164       ??_C@_1M@IGMJCDLA@?$AAe?$AAn?$AA?9?$AAc?$AAb?$AA?$AA@ 1003e164     libcpmt:winapinls.obj
 0002:00003170       ??_C@_1M@BNFIGBKG@?$AAe?$AAn?$AA?9?$AAg?$AAb?$AA?$AA@ 1003e170     libcpmt:winapinls.obj
 0002:0000317c       ??_C@_1M@LKIFDIGP@?$AAe?$AAn?$AA?9?$AAi?$AAe?$AA?$AA@ 1003e17c     libcpmt:winapinls.obj
 0002:00003188       ??_C@_1M@PJKFGCCO@?$AAe?$AAn?$AA?9?$AAj?$AAm?$AA?$AA@ 1003e188     libcpmt:winapinls.obj
 0002:00003194       ??_C@_1M@KPPKEPBO@?$AAe?$AAn?$AA?9?$AAn?$AAz?$AA?$AA@ 1003e194     libcpmt:winapinls.obj
 0002:000031a0       ??_C@_1M@GMDGLDOB@?$AAe?$AAn?$AA?9?$AAp?$AAh?$AA?$AA@ 1003e1a0     libcpmt:winapinls.obj
 0002:000031ac       ??_C@_1M@ONGIBJNA@?$AAe?$AAn?$AA?9?$AAt?$AAt?$AA?$AA@ 1003e1ac     libcpmt:winapinls.obj
 0002:000031b8       ??_C@_1M@LLODPCMM@?$AAe?$AAn?$AA?9?$AAu?$AAs?$AA?$AA@ 1003e1b8     libcpmt:winapinls.obj
 0002:000031c4       ??_C@_1M@LAKFNPAN@?$AAe?$AAn?$AA?9?$AAz?$AAa?$AA?$AA@ 1003e1c4     libcpmt:winapinls.obj
 0002:000031d0       ??_C@_1M@MFNHNHEO@?$AAe?$AAn?$AA?9?$AAz?$AAw?$AA?$AA@ 1003e1d0     libcpmt:winapinls.obj
 0002:000031dc       ??_C@_1M@EJEINPHM@?$AAe?$AAs?$AA?9?$AAa?$AAr?$AA?$AA@ 1003e1dc     libcpmt:winapinls.obj
 0002:000031e8       ??_C@_1M@GNKPCCJA@?$AAe?$AAs?$AA?9?$AAb?$AAo?$AA?$AA@ 1003e1e8     libcpmt:winapinls.obj
 0002:000031f4       ??_C@_1M@LEEGFONL@?$AAe?$AAs?$AA?9?$AAc?$AAl?$AA?$AA@ 1003e1f4     libcpmt:winapinls.obj
 0002:00003200       ??_C@_1M@KGPDPBDF@?$AAe?$AAs?$AA?9?$AAc?$AAo?$AA?$AA@ 1003e200     libcpmt:winapinls.obj
 0002:0000320c       ??_C@_1M@EIAHOHH@?$AAe?$AAs?$AA?9?$AAc?$AAr?$AA?$AA@ 1003e20c     libcpmt:winapinls.obj
 0002:00003218       ??_C@_1M@LLPGMBIN@?$AAe?$AAs?$AA?9?$AAd?$AAo?$AA?$AA@ 1003e218     libcpmt:winapinls.obj
 0002:00003224       ??_C@_1M@DKHMKNJA@?$AAe?$AAs?$AA?9?$AAe?$AAc?$AA?$AA@ 1003e224     libcpmt:winapinls.obj
 0002:00003230       ??_C@_1M@GKGFPKAP@?$AAe?$AAs?$AA?9?$AAe?$AAs?$AA?$AA@ 1003e230     libcpmt:winapinls.obj
 0002:0000323c       ??_C@_1M@LKHKGDLN@?$AAe?$AAs?$AA?9?$AAg?$AAt?$AA?$AA@ 1003e23c     libcpmt:winapinls.obj
 0002:00003248       ??_C@_1M@HEIIGGJD@?$AAe?$AAs?$AA?9?$AAh?$AAn?$AA?$AA@ 1003e248     libcpmt:winapinls.obj
 0002:00003254       ??_C@_1M@FBDHPPGD@?$AAe?$AAs?$AA?9?$AAm?$AAx?$AA?$AA@ 1003e254     libcpmt:winapinls.obj
 0002:00003260       ??_C@_1M@DPAGLNDH@?$AAe?$AAs?$AA?9?$AAn?$AAi?$AA?$AA@ 1003e260     libcpmt:winapinls.obj
 0002:0000326c       ??_C@_1M@MDGOPGDD@?$AAe?$AAs?$AA?9?$AAp?$AAa?$AA?$AA@ 1003e26c     libcpmt:winapinls.obj
 0002:00003278       ??_C@_1M@EMAMGBGE@?$AAe?$AAs?$AA?9?$AAp?$AAe?$AA?$AA@ 1003e278     libcpmt:winapinls.obj
 0002:00003284       ??_C@_1M@IBMCAOEC@?$AAe?$AAs?$AA?9?$AAp?$AAr?$AA?$AA@ 1003e284     libcpmt:winapinls.obj
 0002:00003290       ??_C@_1M@FGMDIJED@?$AAe?$AAs?$AA?9?$AAp?$AAy?$AA?$AA@ 1003e290     libcpmt:winapinls.obj
 0002:0000329c       ??_C@_1M@IIDEOLLL@?$AAe?$AAs?$AA?9?$AAs?$AAv?$AA?$AA@ 1003e29c     libcpmt:winapinls.obj
 0002:000032a8       ??_C@_1M@GAOBIPA@?$AAe?$AAs?$AA?9?$AAu?$AAy?$AA?$AA@ 1003e2a8     libcpmt:winapinls.obj
 0002:000032b4       ??_C@_1M@JKFFICHJ@?$AAe?$AAs?$AA?9?$AAv?$AAe?$AA?$AA@ 1003e2b4     libcpmt:winapinls.obj
 0002:000032c0       ??_C@_1M@PNMLOJDF@?$AAe?$AAt?$AA?9?$AAe?$AAe?$AA?$AA@ 1003e2c0     libcpmt:winapinls.obj
 0002:000032cc       ??_C@_1M@GHHLIKEI@?$AAe?$AAu?$AA?9?$AAe?$AAs?$AA?$AA@ 1003e2cc     libcpmt:winapinls.obj
 0002:000032d8       ??_C@_1M@PBNONODE@?$AAf?$AAa?$AA?9?$AAi?$AAr?$AA?$AA@ 1003e2d8     libcpmt:winapinls.obj
 0002:000032e4       ??_C@_1M@JEEHPMIL@?$AAf?$AAi?$AA?9?$AAf?$AAi?$AA?$AA@ 1003e2e4     libcpmt:winapinls.obj
 0002:000032f0       ??_C@_1M@LMDCNDBA@?$AAf?$AAo?$AA?9?$AAf?$AAo?$AA?$AA@ 1003e2f0     libcpmt:winapinls.obj
 0002:000032fc       ??_C@_1M@JKEOHLDK@?$AAf?$AAr?$AA?9?$AAb?$AAe?$AA?$AA@ 1003e2fc     libcpmt:winapinls.obj
 0002:00003308       ??_C@_1M@NOHADPMI@?$AAf?$AAr?$AA?9?$AAc?$AAa?$AA?$AA@ 1003e308     libcpmt:winapinls.obj
 0002:00003314       ??_C@_1M@KDHIHAEC@?$AAf?$AAr?$AA?9?$AAc?$AAh?$AA?$AA@ 1003e314     libcpmt:winapinls.obj
 0002:00003320       ??_C@_1M@MMBBFGAK@?$AAf?$AAr?$AA?9?$AAf?$AAr?$AA?$AA@ 1003e320     libcpmt:winapinls.obj
 0002:0000332c       ??_C@_1M@PAFNENNF@?$AAf?$AAr?$AA?9?$AAl?$AAu?$AA?$AA@ 1003e32c     libcpmt:winapinls.obj
 0002:00003338       ??_C@_1M@EOHDJGDD@?$AAf?$AAr?$AA?9?$AAm?$AAc?$AA?$AA@ 1003e338     libcpmt:winapinls.obj
 0002:00003344       ??_C@_1M@FAPLLOPF@?$AAg?$AAl?$AA?9?$AAe?$AAs?$AA?$AA@ 1003e344     libcpmt:winapinls.obj
 0002:00003350       ??_C@_1M@FOPBFLOO@?$AAg?$AAu?$AA?9?$AAi?$AAn?$AA?$AA@ 1003e350     libcpmt:winapinls.obj
 0002:0000335c       ??_C@_1M@KBMCINPM@?$AAh?$AAe?$AA?9?$AAi?$AAl?$AA?$AA@ 1003e35c     libcpmt:winapinls.obj
 0002:00003368       ??_C@_1M@BBPHKFPJ@?$AAh?$AAi?$AA?9?$AAi?$AAn?$AA?$AA@ 1003e368     libcpmt:winapinls.obj
 0002:00003374       ??_C@_1M@PMBNDPHD@?$AAh?$AAr?$AA?9?$AAb?$AAa?$AA?$AA@ 1003e374     libcpmt:winapinls.obj
 0002:00003380       ??_C@_1M@BPCKOEGE@?$AAh?$AAr?$AA?9?$AAh?$AAr?$AA?$AA@ 1003e380     libcpmt:winapinls.obj
 0002:0000338c       ??_C@_1M@GACBMHKE@?$AAh?$AAu?$AA?9?$AAh?$AAu?$AA?$AA@ 1003e38c     libcpmt:winapinls.obj
 0002:00003398       ??_C@_1M@MILPAJJC@?$AAh?$AAy?$AA?9?$AAa?$AAm?$AA?$AA@ 1003e398     libcpmt:winapinls.obj
 0002:000033a4       ??_C@_1M@BABBICEC@?$AAi?$AAd?$AA?9?$AAi?$AAd?$AA?$AA@ 1003e3a4     libcpmt:winapinls.obj
 0002:000033b0       ??_C@_1M@BIKNHHPF@?$AAi?$AAs?$AA?9?$AAi?$AAs?$AA?$AA@ 1003e3b0     libcpmt:winapinls.obj
 0002:000033bc       ??_C@_1M@NMPCJPHE@?$AAi?$AAt?$AA?9?$AAc?$AAh?$AA?$AA@ 1003e3bc     libcpmt:winapinls.obj
 0002:000033c8       ??_C@_1M@GHKGFEDF@?$AAi?$AAt?$AA?9?$AAi?$AAt?$AA?$AA@ 1003e3c8     libcpmt:winapinls.obj
 0002:000033d4       ??_C@_1M@NIEJCJJA@?$AAj?$AAa?$AA?9?$AAj?$AAp?$AA?$AA@ 1003e3d4     libcpmt:winapinls.obj
 0002:000033e0       ??_C@_1M@JILFNBIM@?$AAk?$AAa?$AA?9?$AAg?$AAe?$AA?$AA@ 1003e3e0     libcpmt:winapinls.obj
 0002:000033ec       ??_C@_1M@PACPMGPH@?$AAk?$AAk?$AA?9?$AAk?$AAz?$AA?$AA@ 1003e3ec     libcpmt:winapinls.obj
 0002:000033f8       ??_C@_1M@IELFGMHA@?$AAk?$AAn?$AA?9?$AAi?$AAn?$AA?$AA@ 1003e3f8     libcpmt:winapinls.obj
 0002:00003404       ??_C@_1M@DMHAEOGC@?$AAk?$AAo?$AA?9?$AAk?$AAr?$AA?$AA@ 1003e404     libcpmt:winapinls.obj
 0002:00003410       ??_C@_1O@IBBJHCH@?$AAk?$AAo?$AAk?$AA?9?$AAi?$AAn?$AA?$AA@ 1003e410     libcpmt:winapinls.obj
 0002:00003420       ??_C@_1M@HBAHBIGA@?$AAk?$AAy?$AA?9?$AAk?$AAg?$AA?$AA@ 1003e420     libcpmt:winapinls.obj
 0002:0000342c       ??_C@_1M@KPMILCJG@?$AAl?$AAt?$AA?9?$AAl?$AAt?$AA?$AA@ 1003e42c     libcpmt:winapinls.obj
 0002:00003438       ??_C@_1M@BDEKKCA@?$AAl?$AAv?$AA?9?$AAl?$AAv?$AA?$AA@ 1003e438     libcpmt:winapinls.obj
 0002:00003444       ??_C@_1M@ELCKCCJJ@?$AAm?$AAi?$AA?9?$AAn?$AAz?$AA?$AA@ 1003e444     libcpmt:winapinls.obj
 0002:00003450       ??_C@_1M@CBOOLAPA@?$AAm?$AAk?$AA?9?$AAm?$AAk?$AA?$AA@ 1003e450     libcpmt:winapinls.obj
 0002:0000345c       ??_C@_1M@GPHNBJKN@?$AAm?$AAl?$AA?9?$AAi?$AAn?$AA?$AA@ 1003e45c     libcpmt:winapinls.obj
 0002:00003468       ??_C@_1M@PABJILIG@?$AAm?$AAn?$AA?9?$AAm?$AAn?$AA?$AA@ 1003e468     libcpmt:winapinls.obj
 0002:00003474       ??_C@_1M@FGBKKIPG@?$AAm?$AAr?$AA?9?$AAi?$AAn?$AA?$AA@ 1003e474     libcpmt:winapinls.obj
 0002:00003480       ??_C@_1M@NDBPDDAL@?$AAm?$AAs?$AA?9?$AAb?$AAn?$AA?$AA@ 1003e480     libcpmt:winapinls.obj
 0002:0000348c       ??_C@_1M@OPIHOOPI@?$AAm?$AAs?$AA?9?$AAm?$AAy?$AA?$AA@ 1003e48c     libcpmt:winapinls.obj
 0002:00003498       ??_C@_1M@PPDBCNFM@?$AAm?$AAt?$AA?9?$AAm?$AAt?$AA?$AA@ 1003e498     libcpmt:winapinls.obj
 0002:000034a4       ??_C@_1M@KDJDKMDD@?$AAn?$AAb?$AA?9?$AAn?$AAo?$AA?$AA@ 1003e4a4     libcpmt:winapinls.obj
 0002:000034b0       ??_C@_1M@KFCFLMJP@?$AAn?$AAl?$AA?9?$AAb?$AAe?$AA?$AA@ 1003e4b0     libcpmt:winapinls.obj
 0002:000034bc       ??_C@_1M@KPOPDDGO@?$AAn?$AAl?$AA?9?$AAn?$AAl?$AA?$AA@ 1003e4bc     libcpmt:winapinls.obj
 0002:000034c8       ??_C@_1M@LJKPEMLN@?$AAn?$AAn?$AA?9?$AAn?$AAo?$AA?$AA@ 1003e4c8     libcpmt:winapinls.obj
 0002:000034d4       ??_C@_1M@BDGHHBFL@?$AAn?$AAs?$AA?9?$AAz?$AAa?$AA?$AA@ 1003e4d4     libcpmt:winapinls.obj
 0002:000034e0       ??_C@_1M@IDEHOAP@?$AAp?$AAa?$AA?9?$AAi?$AAn?$AA?$AA@ 1003e4e0     libcpmt:winapinls.obj
 0002:000034ec       ??_C@_1M@HDBKGOGH@?$AAp?$AAl?$AA?9?$AAp?$AAl?$AA?$AA@ 1003e4ec     libcpmt:winapinls.obj
 0002:000034f8       ??_C@_1M@LJLLCMEH@?$AAp?$AAt?$AA?9?$AAb?$AAr?$AA?$AA@ 1003e4f8     libcpmt:winapinls.obj
 0002:00003504       ??_C@_1M@NCMONAAL@?$AAp?$AAt?$AA?9?$AAp?$AAt?$AA?$AA@ 1003e504     libcpmt:winapinls.obj
 0002:00003510       ??_C@_1O@EAKMAJDN@?$AAq?$AAu?$AAz?$AA?9?$AAb?$AAo?$AA?$AA@ 1003e510     libcpmt:winapinls.obj
 0002:00003520       ??_C@_1O@BHHPIGDN@?$AAq?$AAu?$AAz?$AA?9?$AAe?$AAc?$AA?$AA@ 1003e520     libcpmt:winapinls.obj
 0002:00003530       ??_C@_1O@GBAPEKMJ@?$AAq?$AAu?$AAz?$AA?9?$AAp?$AAe?$AA?$AA@ 1003e530     libcpmt:winapinls.obj
 0002:00003540       ??_C@_1M@CLGLEFBO@?$AAr?$AAo?$AA?9?$AAr?$AAo?$AA?$AA@ 1003e540     libcpmt:winapinls.obj
 0002:0000354c       ??_C@_1M@CEEDODME@?$AAr?$AAu?$AA?9?$AAr?$AAu?$AA?$AA@ 1003e54c     libcpmt:winapinls.obj
 0002:00003558       ??_C@_1M@HPKKKMPP@?$AAs?$AAa?$AA?9?$AAi?$AAn?$AA?$AA@ 1003e558     libcpmt:winapinls.obj
 0002:00003564       ??_C@_1M@BKMAIGOJ@?$AAs?$AAe?$AA?9?$AAf?$AAi?$AA?$AA@ 1003e564     libcpmt:winapinls.obj
 0002:00003570       ??_C@_1M@NDPIFLFI@?$AAs?$AAe?$AA?9?$AAn?$AAo?$AA?$AA@ 1003e570     libcpmt:winapinls.obj
 0002:0000357c       ??_C@_1M@DANKKHJ@?$AAs?$AAe?$AA?9?$AAs?$AAe?$AA?$AA@ 1003e57c     libcpmt:winapinls.obj
 0002:00003588       ??_C@_1M@PNBLONPJ@?$AAs?$AAk?$AA?9?$AAs?$AAk?$AA?$AA@ 1003e588     libcpmt:winapinls.obj
 0002:00003594       ??_C@_1M@LFMODOAL@?$AAs?$AAl?$AA?9?$AAs?$AAi?$AA?$AA@ 1003e594     libcpmt:winapinls.obj
 0002:000035a0       ??_C@_1O@DFKOMPG@?$AAs?$AAm?$AAa?$AA?9?$AAn?$AAo?$AA?$AA@ 1003e5a0     libcpmt:winapinls.obj
 0002:000035b0       ??_C@_1O@NDKPBNNH@?$AAs?$AAm?$AAa?$AA?9?$AAs?$AAe?$AA?$AA@ 1003e5b0     libcpmt:winapinls.obj
 0002:000035c0       ??_C@_1O@PLLKBHAB@?$AAs?$AAm?$AAj?$AA?9?$AAn?$AAo?$AA?$AA@ 1003e5c0     libcpmt:winapinls.obj
 0002:000035d0       ??_C@_1O@CLEPOGCA@?$AAs?$AAm?$AAj?$AA?9?$AAs?$AAe?$AA?$AA@ 1003e5d0     libcpmt:winapinls.obj
 0002:000035e0       ??_C@_1O@DLGJGKMK@?$AAs?$AAm?$AAn?$AA?9?$AAf?$AAi?$AA?$AA@ 1003e5e0     libcpmt:winapinls.obj
 0002:000035f0       ??_C@_1O@OJDJGAJC@?$AAs?$AAm?$AAs?$AA?9?$AAf?$AAi?$AA?$AA@ 1003e5f0     libcpmt:winapinls.obj
 0002:00003600       ??_C@_1M@BOFOGHPB@?$AAs?$AAq?$AA?9?$AAa?$AAl?$AA?$AA@ 1003e600     libcpmt:winapinls.obj
 0002:0000360c       ??_C@_1BG@LJBBIPGB@?$AAs?$AAr?$AA?9?$AAb?$AAa?$AA?9?$AAc?$AAy?$AAr?$AAl?$AA?$AA@ 1003e60c     libcpmt:winapinls.obj
 0002:00003624       ??_C@_1BG@JLBENFOE@?$AAs?$AAr?$AA?9?$AAb?$AAa?$AA?9?$AAl?$AAa?$AAt?$AAn?$AA?$AA@ 1003e624     libcpmt:winapinls.obj
 0002:0000363c       ??_C@_1BG@KODPNHE@?$AAs?$AAr?$AA?9?$AAs?$AAp?$AA?9?$AAc?$AAy?$AAr?$AAl?$AA?$AA@ 1003e63c     libcpmt:winapinls.obj
 0002:00003654       ??_C@_1BG@CIOGKHPB@?$AAs?$AAr?$AA?9?$AAs?$AAp?$AA?9?$AAl?$AAa?$AAt?$AAn?$AA?$AA@ 1003e654     libcpmt:winapinls.obj
 0002:0000366c       ??_C@_1M@NGFJLMAC@?$AAs?$AAv?$AA?9?$AAf?$AAi?$AA?$AA@ 1003e66c     libcpmt:winapinls.obj
 0002:00003678       ??_C@_1M@MPJEJAJC@?$AAs?$AAv?$AA?9?$AAs?$AAe?$AA?$AA@ 1003e678     libcpmt:winapinls.obj
 0002:00003684       ??_C@_1M@MPNDHLFK@?$AAs?$AAw?$AA?9?$AAk?$AAe?$AA?$AA@ 1003e684     libcpmt:winapinls.obj
 0002:00003690       ??_C@_1O@KOHBJJI@?$AAs?$AAy?$AAr?$AA?9?$AAs?$AAy?$AA?$AA@ 1003e690     libcpmt:winapinls.obj
 0002:000036a0       ??_C@_1M@LDCEFHA@?$AAt?$AAa?$AA?9?$AAi?$AAn?$AA?$AA@ 1003e6a0     libcpmt:winapinls.obj
 0002:000036ac       ??_C@_1M@CNJOFAK@?$AAt?$AAe?$AA?9?$AAi?$AAn?$AA?$AA@ 1003e6ac     libcpmt:winapinls.obj
 0002:000036b8       ??_C@_1M@GNAECACD@?$AAt?$AAh?$AA?9?$AAt?$AAh?$AA?$AA@ 1003e6b8     libcpmt:winapinls.obj
 0002:000036c4       ??_C@_1M@CHBIHOJO@?$AAt?$AAn?$AA?9?$AAz?$AAa?$AA?$AA@ 1003e6c4     libcpmt:winapinls.obj
 0002:000036d0       ??_C@_1M@GCCMIGPJ@?$AAt?$AAr?$AA?9?$AAt?$AAr?$AA?$AA@ 1003e6d0     libcpmt:winapinls.obj
 0002:000036dc       ??_C@_1M@CELMCNBK@?$AAt?$AAt?$AA?9?$AAr?$AAu?$AA?$AA@ 1003e6dc     libcpmt:winapinls.obj
 0002:000036e8       ??_C@_1M@KLMCELGA@?$AAu?$AAk?$AA?9?$AAu?$AAa?$AA?$AA@ 1003e6e8     libcpmt:winapinls.obj
 0002:000036f4       ??_C@_1M@EPAJJAJF@?$AAu?$AAr?$AA?9?$AAp?$AAk?$AA?$AA@ 1003e6f4     libcpmt:winapinls.obj
 0002:00003700       ??_C@_1BG@GEGPMCDJ@?$AAu?$AAz?$AA?9?$AAu?$AAz?$AA?9?$AAc?$AAy?$AAr?$AAl?$AA?$AA@ 1003e700     libcpmt:winapinls.obj
 0002:00003718       ??_C@_1BG@EGGKJILM@?$AAu?$AAz?$AA?9?$AAu?$AAz?$AA?9?$AAl?$AAa?$AAt?$AAn?$AA?$AA@ 1003e718     libcpmt:winapinls.obj
 0002:00003730       ??_C@_1M@GFOCLFF@?$AAv?$AAi?$AA?9?$AAv?$AAn?$AA?$AA@ 1003e730     libcpmt:winapinls.obj
 0002:0000373c       ??_C@_1M@CPAMEDFI@?$AAx?$AAh?$AA?9?$AAz?$AAa?$AA?$AA@ 1003e73c     libcpmt:winapinls.obj
 0002:00003748       ??_C@_1O@EBKIFIGN@?$AAz?$AAh?$AA?9?$AAc?$AAh?$AAs?$AA?$AA@ 1003e748     libcpmt:winapinls.obj
 0002:00003758       ??_C@_1O@NMHPGANE@?$AAz?$AAh?$AA?9?$AAc?$AAh?$AAt?$AA?$AA@ 1003e758     libcpmt:winapinls.obj
 0002:00003768       ??_C@_1M@LPINJOMC@?$AAz?$AAh?$AA?9?$AAc?$AAn?$AA?$AA@ 1003e768     libcpmt:winapinls.obj
 0002:00003774       ??_C@_1M@OCJEJODD@?$AAz?$AAh?$AA?9?$AAh?$AAk?$AA?$AA@ 1003e774     libcpmt:winapinls.obj
 0002:00003780       ??_C@_1M@DNDLJINH@?$AAz?$AAh?$AA?9?$AAm?$AAo?$AA?$AA@ 1003e780     libcpmt:winapinls.obj
 0002:0000378c       ??_C@_1M@MBFDNDND@?$AAz?$AAh?$AA?9?$AAs?$AAg?$AA?$AA@ 1003e78c     libcpmt:winapinls.obj
 0002:00003798       ??_C@_1M@IMEPLEPE@?$AAz?$AAh?$AA?9?$AAt?$AAw?$AA?$AA@ 1003e798     libcpmt:winapinls.obj
 0002:000037a4       ??_C@_1M@BBGHNHJP@?$AAz?$AAu?$AA?9?$AAz?$AAa?$AA?$AA@ 1003e7a4     libcpmt:winapinls.obj
 0002:000037b4       ??_7type_info@@6B@         1003e7b4     LIBCMT:std_type_info_static.obj
 0002:000037b8       __pDefaultRawDllMain       1003e7b8     LIBCMT:dll_dllmain.obj
 0002:000037b8       __pRawDllMain              1003e7b8     LIBCMT:dll_dllmain.obj
 0002:000037c8       ??_7bad_array_new_length@std@@6B@ 1003e7c8     LIBCMT:throw_bad_alloc.obj
 0002:000037d0       ??_C@_0BF@KINCDENJ@bad?5array?5new?5length?$AA@ 1003e7d0     LIBCMT:throw_bad_alloc.obj
 0002:000037e8       __pDestructExceptionObject 1003e7e8     libvcruntime:frame.obj
 0002:000037f0       ??_7bad_exception@std@@6B@ 1003e7f0     libvcruntime:frame.obj
 0002:000037f8       ??_C@_0O@DPKOEFFH@bad?5exception?$AA@ 1003e7f8     libvcruntime:frame.obj
 0002:00003838       ??_C@_1BC@DNHGCMLG@?$AAa?$AAd?$AAv?$AAa?$AAp?$AAi?$AA3?$AA2?$AA?$AA@ 1003e838     libvcruntime:winapi_downlevel.obj
 0002:0000384c       ??_C@_1DM@KHCHBNEB@?$AAa?$AAp?$AAi?$AA?9?$AAm?$AAs?$AA?9?$AAw?$AAi?$AAn?$AA?9?$AAc?$AAo?$AAr?$AAe?$AA?9?$AAf?$AAi?$AAb?$AAe?$AAr?$AAs?$AA?9?$AAl?$AA1?$AA?9?$AA1?$AA?9?$AA1?$AA?$AA@ 1003e84c     libvcruntime:winapi_downlevel.obj
 0002:00003888       ??_C@_1DK@LPPGFMPP@?$AAa?$AAp?$AAi?$AA?9?$AAm?$AAs?$AA?9?$AAw?$AAi?$AAn?$AA?9?$AAc?$AAo?$AAr?$AAe?$AA?9?$AAs?$AAy?$AAn?$AAc?$AAh?$AA?9?$AAl?$AA1?$AA?9?$AA2?$AA?9?$AA0?$AA?$AA@ 1003e888     libvcruntime:winapi_downlevel.obj
 0002:000038c4       ??_C@_1BC@GDMECMAK@?$AAk?$AAe?$AAr?$AAn?$AAe?$AAl?$AA3?$AA2?$AA?$AA@ 1003e8c4     libvcruntime:winapi_downlevel.obj
 0002:00003a90       ??_C@_08EHJDFFNH@__based?$CI?$AA@ 1003ea90     libvcruntime:undname.obj
 0002:00003a9c       ??_C@_07KOLFKCDI@__cdecl?$AA@ 1003ea9c     libvcruntime:undname.obj
 0002:00003aa4       ??_C@_08GHMPAG@__pascal?$AA@ 1003eaa4     libvcruntime:undname.obj
 0002:00003ab0       ??_C@_09IFJBGAPI@__stdcall?$AA@ 1003eab0     libvcruntime:undname.obj
 0002:00003abc       ??_C@_0L@NPHFGOKO@__thiscall?$AA@ 1003eabc     libvcruntime:undname.obj
 0002:00003ac8       ??_C@_0L@JMKHOMEK@__fastcall?$AA@ 1003eac8     libvcruntime:undname.obj
 0002:00003ad4       ??_C@_0N@BCKKPABJ@__vectorcall?$AA@ 1003ead4     libvcruntime:undname.obj
 0002:00003ae4       ??_C@_09HIJEGCPM@__clrcall?$AA@ 1003eae4     libvcruntime:undname.obj
 0002:00003af0       ??_C@_06GHPCKEAG@__eabi?$AA@ 1003eaf0     libvcruntime:undname.obj
 0002:00003af8       ??_C@_07JOMMBBKO@__ptr64?$AA@ 1003eaf8     libvcruntime:undname.obj
 0002:00003b00       ??_C@_0L@PILCLIHE@__restrict?$AA@ 1003eb00     libvcruntime:undname.obj
 0002:00003b0c       ??_C@_0M@GFIIJFMG@__unaligned?$AA@ 1003eb0c     libvcruntime:undname.obj
 0002:00003b18       ??_C@_09DHDLOLLB@restrict?$CI?$AA@ 1003eb18     libvcruntime:undname.obj
 0002:00003b24       ??_C@_04NIHEBCM@?5new?$AA@ 1003eb24     libvcruntime:undname.obj
 0002:00003b2c       ??_C@_07FPCDHGMM@?5delete?$AA@ 1003eb2c     libvcruntime:undname.obj
 0002:00003b34       ??_C@_01NEMOKFLO@?$DN?$AA@ 1003eb34     libvcruntime:undname.obj
 0002:00003b38       ??_C@_02GPIOPFAK@?$DO?$DO?$AA@ 1003eb38     libvcruntime:undname.obj
 0002:00003b3c       ??_C@_02FODMEDOG@?$DM?$DM?$AA@ 1003eb3c     libvcruntime:undname.obj
 0002:00003b40       ??_C@_01DCLJPIOD@?$CB?$AA@ 1003eb40     libvcruntime:undname.obj
 0002:00003b44       ??_C@_02EGOFBIJA@?$DN?$DN?$AA@ 1003eb44     libvcruntime:undname.obj
 0002:00003b48       ??_C@_02FDNJECIE@?$CB?$DN?$AA@ 1003eb48     libvcruntime:undname.obj
 0002:00003b4c       ??_C@_02GPECMEKF@?$FL?$FN?$AA@ 1003eb4c     libvcruntime:undname.obj
 0002:00003b50       ??_C@_08LHJFAFGD@operator?$AA@ 1003eb50     libvcruntime:undname.obj
 0002:00003b5c       ??_C@_02HBOOOICD@?9?$DO?$AA@ 1003eb5c     libvcruntime:undname.obj
 0002:00003b60       ??_C@_02ECNGHCIF@?$CL?$CL?$AA@ 1003eb60     libvcruntime:undname.obj
 0002:00003b64       ??_C@_02BAABKJLB@?9?9?$AA@ 1003eb64     libvcruntime:undname.obj
 0002:00003b68       ??_C@_01MIFGBAGJ@?$CL?$AA@ 1003eb68     libvcruntime:undname.obj
 0002:00003b6c       ??_C@_01HNPIGOCE@?$CG?$AA@ 1003eb6c     libvcruntime:undname.obj
 0002:00003b70       ??_C@_03MNHNFDLC@?9?$DO?$CK?$AA@ 1003eb70     libvcruntime:undname.obj
 0002:00003b74       ??_C@_01KMDKNFGN@?1?$AA@   1003eb74     libvcruntime:undname.obj
 0002:00003b78       ??_C@_01FGNFDNOH@?$CF?$AA@ 1003eb78     libvcruntime:undname.obj
 0002:00003b7c       ??_C@_01MNNFJEPP@?$DM?$AA@ 1003eb7c     libvcruntime:undname.obj
 0002:00003b80       ??_C@_02EHCHHCKH@?$DM?$DN?$AA@ 1003eb80     libvcruntime:undname.obj
 0002:00003b84       ??_C@_01PPODPGHN@?$DO?$AA@ 1003eb84     libvcruntime:undname.obj
 0002:00003b88       ??_C@_02EEKDKGMJ@?$DO?$DN?$AA@ 1003eb88     libvcruntime:undname.obj
 0002:00003b8c       ??_C@_01IHBHIGKO@?0?$AA@   1003eb8c     libvcruntime:undname.obj
 0002:00003b90       ??_C@_02HCKGKOFO@?$CI?$CJ?$AA@ 1003eb90     libvcruntime:undname.obj
 0002:00003b94       ??_C@_01PJKLJHI@?$HO?$AA@  1003eb94     libvcruntime:undname.obj
 0002:00003b98       ??_C@_01JKBOJNNK@?$FO?$AA@ 1003eb98     libvcruntime:undname.obj
 0002:00003b9c       ??_C@_01DNKMNLPK@?$HM?$AA@ 1003eb9c     libvcruntime:undname.obj
 0002:00003ba0       ??_C@_02PPKAJPJL@?$CG?$CG?$AA@ 1003eba0     libvcruntime:undname.obj
 0002:00003ba4       ??_C@_02NONPIBCD@?$HM?$HM?$AA@ 1003eba4     libvcruntime:undname.obj
 0002:00003ba8       ??_C@_02FPIMKNGF@?$CK?$DN?$AA@ 1003eba8     libvcruntime:undname.obj
 0002:00003bac       ??_C@_02FOEOMHFC@?$CL?$DN?$AA@ 1003ebac     libvcruntime:undname.obj
 0002:00003bb0       ??_C@_02FKMDLLOA@?9?$DN?$AA@ 1003ebb0     libvcruntime:undname.obj
 0002:00003bb4       ??_C@_02FJEHGPIO@?1?$DN?$AA@ 1003ebb4     libvcruntime:undname.obj
 0002:00003bb8       ??_C@_02FENAOKFI@?$CF?$DN?$AA@ 1003ebb8     libvcruntime:undname.obj
 0002:00003bbc       ??_C@_03IKFCCPFF@?$DO?$DO?$DN?$AA@ 1003ebbc     libvcruntime:undname.obj
 0002:00003bc0       ??_C@_03CDNPDDLA@?$DM?$DM?$DN?$AA@ 1003ebc0     libvcruntime:undname.obj
 0002:00003bc4       ??_C@_02FGJGFEAB@?$CG?$DN?$AA@ 1003ebc4     libvcruntime:undname.obj
 0002:00003bc8       ??_C@_02DHLNPPGH@?$HM?$DN?$AA@ 1003ebc8     libvcruntime:undname.obj
 0002:00003bcc       ??_C@_02MHEGNOJ@?$FO?$DN?$AA@ 1003ebcc     libvcruntime:undname.obj
 0002:00003bd0       ??_C@_09IFPLHPGF@?$GAvftable?8?$AA@ 1003ebd0     libvcruntime:undname.obj
 0002:00003bdc       ??_C@_09BLBHBJP@?$GAvbtable?8?$AA@ 1003ebdc     libvcruntime:undname.obj
 0002:00003be8       ??_C@_07FEEIOKP@?$GAvcall?8?$AA@ 1003ebe8     libvcruntime:undname.obj
 0002:00003bf0       ??_C@_08LLFFHHDJ@?$GAtypeof?8?$AA@ 1003ebf0     libvcruntime:undname.obj
 0002:00003bfc       ??_C@_0BF@KDPPACIK@?$GAlocal?5static?5guard?8?$AA@ 1003ebfc     libvcruntime:undname.obj
 0002:00003c14       ??_C@_08OBABFOLI@?$GAstring?8?$AA@ 1003ec14     libvcruntime:undname.obj
 0002:00003c20       ??_C@_0BD@JDLKDPAB@?$GAvbase?5destructor?8?$AA@ 1003ec20     libvcruntime:undname.obj
 0002:00003c34       ??_C@_0BN@DEGPLNFK@?$GAvector?5deleting?5destructor?8?$AA@ 1003ec34     libvcruntime:undname.obj
 0002:00003c54       ??_C@_0BO@OBMKPJIG@?$GAdefault?5constructor?5closure?8?$AA@ 1003ec54     libvcruntime:undname.obj
 0002:00003c74       ??_C@_0BN@IMDCHIKM@?$GAscalar?5deleting?5destructor?8?$AA@ 1003ec74     libvcruntime:undname.obj
 0002:00003c94       ??_C@_0BO@PFGOCPJJ@?$GAvector?5constructor?5iterator?8?$AA@ 1003ec94     libvcruntime:undname.obj
 0002:00003cb4       ??_C@_0BN@LFPFMEDL@?$GAvector?5destructor?5iterator?8?$AA@ 1003ecb4     libvcruntime:undname.obj
 0002:00003cd4       ??_C@_0CE@IKBNEHA@?$GAvector?5vbase?5constructor?5iterat@ 1003ecd4     libvcruntime:undname.obj
 0002:00003cf8       ??_C@_0BL@NILFHHPC@?$GAvirtual?5displacement?5map?8?$AA@ 1003ecf8     libvcruntime:undname.obj
 0002:00003d14       ??_C@_0CB@JONCMFFK@?$GAeh?5vector?5constructor?5iterator?8@ 1003ed14     libvcruntime:undname.obj
 0002:00003d38       ??_C@_0CA@GCEOPDGL@?$GAeh?5vector?5destructor?5iterator?8?$AA@ 1003ed38     libvcruntime:undname.obj
 0002:00003d58       ??_C@_0CH@OOJPLCPH@?$GAeh?5vector?5vbase?5constructor?5ite@ 1003ed58     libvcruntime:undname.obj
 0002:00003d80       ??_C@_0BL@LLKPOHJI@?$GAcopy?5constructor?5closure?8?$AA@ 1003ed80     libvcruntime:undname.obj
 0002:00003d9c       ??_C@_0BA@KBCDOMBN@?$GAudt?5returning?8?$AA@ 1003ed9c     libvcruntime:undname.obj
 0002:00003dac       ??_C@_03KLGMFNMG@?$GAEH?$AA@ 1003edac     libvcruntime:undname.obj
 0002:00003db0       ??_C@_05KHLCHHI@?$GARTTI?$AA@ 1003edb0     libvcruntime:undname.obj
 0002:00003db8       ??_C@_0BA@KKLDJDLB@?$GAlocal?5vftable?8?$AA@ 1003edb8     libvcruntime:undname.obj
 0002:00003dc8       ??_C@_0CE@IIHCMGGL@?$GAlocal?5vftable?5constructor?5closu@ 1003edc8     libvcruntime:undname.obj
 0002:00003dec       ??_C@_06FHBGPFGH@?5new?$FL?$FN?$AA@ 1003edec     libvcruntime:undname.obj
 0002:00003df4       ??_C@_09LBNFPBCA@?5delete?$FL?$FN?$AA@ 1003edf4     libvcruntime:undname.obj
 0002:00003e00       ??_C@_0P@HJKNJFNN@?$GAomni?5callsig?8?$AA@ 1003ee00     libvcruntime:undname.obj
 0002:00003e10       ??_C@_0BL@CNOONJFP@?$GAplacement?5delete?5closure?8?$AA@ 1003ee10     libvcruntime:undname.obj
 0002:00003e2c       ??_C@_0BN@CKNJLHMB@?$GAplacement?5delete?$FL?$FN?5closure?8?$AA@ 1003ee2c     libvcruntime:undname.obj
 0002:00003e4c       ??_C@_0CG@CFDHKGGD@?$GAmanaged?5vector?5constructor?5iter@ 1003ee4c     libvcruntime:undname.obj
 0002:00003e74       ??_C@_0CF@IMGKMJNO@?$GAmanaged?5vector?5destructor?5itera@ 1003ee74     libvcruntime:undname.obj
 0002:00003e9c       ??_C@_0CG@HLDDJMAG@?$GAeh?5vector?5copy?5constructor?5iter@ 1003ee9c     libvcruntime:undname.obj
 0002:00003ec4       ??_C@_0CM@FCBBDIGB@?$GAeh?5vector?5vbase?5copy?5constructo@ 1003eec4     libvcruntime:undname.obj
 0002:00003ef0       ??_C@_0BL@CLIPGLGB@?$GAdynamic?5initializer?5for?5?8?$AA@ 1003eef0     libvcruntime:undname.obj
 0002:00003f0c       ??_C@_0CB@PDBIFEP@?$GAdynamic?5atexit?5destructor?5for?5?8@ 1003ef0c     libvcruntime:undname.obj
 0002:00003f30       ??_C@_0CD@CGAJBKEJ@?$GAvector?5copy?5constructor?5iterato@ 1003ef30     libvcruntime:undname.obj
 0002:00003f54       ??_C@_0CJ@GJELGAMM@?$GAvector?5vbase?5copy?5constructor?5i@ 1003ef54     libvcruntime:undname.obj
 0002:00003f80       ??_C@_0CL@FGIJHLCE@?$GAmanaged?5vector?5copy?5constructor@ 1003ef80     libvcruntime:undname.obj
 0002:00003fac       ??_C@_0BM@PMGGMLDN@?$GAlocal?5static?5thread?5guard?8?$AA@ 1003efac     libvcruntime:undname.obj
 0002:00003fc8       ??_C@_0N@BDNMDMOL@operator?5?$CC?$CC?5?$AA@ 1003efc8     libvcruntime:undname.obj
 0002:00003fd8       ??_C@_0BC@DAFEJGAK@?5Type?5Descriptor?8?$AA@ 1003efd8     libvcruntime:undname.obj
 0002:00003fec       ??_C@_0BM@LDKODKLH@?5Base?5Class?5Descriptor?5at?5?$CI?$AA@ 1003efec     libvcruntime:undname.obj
 0002:00004008       ??_C@_0BD@LGICGFMM@?5Base?5Class?5Array?8?$AA@ 1003f008     libvcruntime:undname.obj
 0002:0000401c       ??_C@_0BN@MECKDCOJ@?5Class?5Hierarchy?5Descriptor?8?$AA@ 1003f01c     libvcruntime:undname.obj
 0002:0000403c       ??_C@_0BK@CFCOFLF@?5Complete?5Object?5Locator?8?$AA@ 1003f03c     libvcruntime:undname.obj
 0002:00004058       _standard_lookup_table     1003f058     libucrt:output.obj
 0002:000040b8       _format_validation_lookup_table 1003f0b8     libucrt:output.obj
 0002:00004114       ??_C@_06OJHGLDPL@?$CInull?$CJ?$AA@ 1003f114     libucrt:output.obj
 0002:0000411c       ??_C@_1O@CEDCILHN@?$AA?$CI?$AAn?$AAu?$AAl?$AAl?$AA?$CJ?$AA?$AA@ 1003f11c     libucrt:output.obj
 0002:00004130       __real@8000000000000000    1003f130     libucrt:frexp.obj
 0002:00004138       ??_C@_1EK@MBDPDCGA@?$AAM?$AAi?$AAc?$AAr?$AAo?$AAs?$AAo?$AAf?$AAt?$AA?5?$AAV?$AAi?$AAs?$AAu?$AAa?$AAl?$AA?5?$AAC?$AA?$CL?$AA?$CL?$AA?5?$AAR?$AAu?$AAn?$AAt?$AAi?$AAm?$AAe?$AA?5?$AAL?$AAi?$AAb@ 1003f138     libucrt:assert.obj
 0002:00004188       ??_C@_1FE@LHBLIKM@?$AAA?$AAs?$AAs?$AAe?$AAr?$AAt?$AAi?$AAo?$AAn?$AA?5?$AAf?$AAa?$AAi?$AAl?$AAe?$AAd?$AA?3?$AA?5?$AA?$CF?$AAT?$AAs?$AA?0?$AA?5?$AAf?$AAi?$AAl?$AAe?$AA?5?$AA?$CF?$AAT?$AAs?$AA?0@ 1003f188     libucrt:assert.obj
 0002:000041dc       ??_C@_1CE@OJBNHDMO@?$AAA?$AAs?$AAs?$AAe?$AAr?$AAt?$AAi?$AAo?$AAn?$AA?5?$AAf?$AAa?$AAi?$AAl?$AAe?$AAd?$AA?$CB?$AA?$AA@ 1003f1dc     libucrt:assert.obj
 0002:00004200       ??_C@_1BE@PHKBBGE@?$AAP?$AAr?$AAo?$AAg?$AAr?$AAa?$AAm?$AA?3?$AA?5?$AA?$AA@ 1003f200     libucrt:assert.obj
 0002:00004214       ??_C@_1O@HEMHKNDC@?$AAF?$AAi?$AAl?$AAe?$AA?3?$AA?5?$AA?$AA@ 1003f214     libucrt:assert.obj
 0002:00004224       ??_C@_1O@KCAFKHJE@?$AAL?$AAi?$AAn?$AAe?$AA?3?$AA?5?$AA?$AA@ 1003f224     libucrt:assert.obj
 0002:00004234       ??_C@_1BK@PEDCIPMA@?$AAE?$AAx?$AAp?$AAr?$AAe?$AAs?$AAs?$AAi?$AAo?$AAn?$AA?3?$AA?5?$AA?$AA@ 1003f234     libucrt:assert.obj
 0002:00004250       ??_C@_1OA@EGMLFBHJ@?$AAF?$AAo?$AAr?$AA?5?$AAi?$AAn?$AAf?$AAo?$AAr?$AAm?$AAa?$AAt?$AAi?$AAo?$AAn?$AA?5?$AAo?$AAn?$AA?5?$AAh?$AAo?$AAw?$AA?5?$AAy?$AAo?$AAu?$AAr?$AA?5?$AAp?$AAr?$AAo?$AAg@ 1003f250     libucrt:assert.obj
 0002:00004330       ??_C@_1HK@POCJMFGK@?$AA?$CI?$AAP?$AAr?$AAe?$AAs?$AAs?$AA?5?$AAR?$AAe?$AAt?$AAr?$AAy?$AA?5?$AAt?$AAo?$AA?5?$AAd?$AAe?$AAb?$AAu?$AAg?$AA?5?$AAt?$AAh?$AAe?$AA?5?$AAa?$AAp?$AAp?$AAl?$AAi?$AAc@ 1003f330     libucrt:assert.obj
 0002:000043ac       ??_C@_17LGKOMLJ@?$AA?4?$AA?4?$AA?4?$AA?$AA@ 1003f3ac     libucrt:assert.obj
 0002:000043b4       ??_C@_13LBAGMAIH@?$AA?6?$AA?$AA@ 1003f3b4     libucrt:assert.obj
 0002:000043b8       ??_C@_15IABLJNFO@?$AA?6?$AA?6?$AA?$AA@ 1003f3b8     libucrt:assert.obj
 0002:000043c0       ??_C@_1CO@EAEJAADC@?$AA?$DM?$AAp?$AAr?$AAo?$AAg?$AAr?$AAa?$AAm?$AA?5?$AAn?$AAa?$AAm?$AAe?$AA?5?$AAu?$AAn?$AAk?$AAn?$AAo?$AAw?$AAn?$AA?$DO?$AA?$AA@ 1003f3c0     libucrt:assert.obj
 0002:00004558       __wctype                   1003f558     libucrt:ctype.obj
 0002:00004760       ___newctype                1003f760     libucrt:ctype.obj
 0002:00004a60       ___newclmap                1003fa60     libucrt:ctype.obj
 0002:00004be0       ___newcumap                1003fbe0     libucrt:ctype.obj
 0002:00004d60       ?large_power_data@?1??multiply_by_power_of_ten@__crt_strtox@@YA_NAAUbig_integer@2@I@Z@4QBIB 1003fd60     libucrt:strtod.obj
 0002:00005668       ?large_power_indices@?1??multiply_by_power_of_ten@__crt_strtox@@YA_NAAUbig_integer@2@I@Z@4QBUunpack_index@?1??12@YA_N0I@Z@B 10040668     libucrt:strtod.obj
 0002:00005700       ?small_powers_of_ten@?6??multiply_by_power_of_ten@__crt_strtox@@YA_NAAUbig_integer@2@I@Z@4QBIB 10040700     libucrt:strtod.obj
 0002:00005734       __half                     10040734     libucrt:pow.obj
 0002:00005740       ___acrt_exception_action_table 10040740     libucrt:exception_filter.obj
 0002:000057d0       ___acrt_signal_action_table_count 100407d0     libucrt:exception_filter.obj
 0002:000057d4       ___acrt_signal_action_first_fpe_index 100407d4     libucrt:exception_filter.obj
 0002:000057d8       ___acrt_signal_action_fpe_count 100407d8     libucrt:exception_filter.obj
 0002:000057dc       ??_C@_1BI@BGOHAHKC@?$AAm?$AAs?$AAc?$AAo?$AAr?$AAe?$AAe?$AA?4?$AAd?$AAl?$AAl?$AA?$AA@ 100407dc     libucrt:exit.obj
 0002:000057f4       ??_C@_0P@MIGLKIOC@CorExitProcess?$AA@ 100407f4     libucrt:exit.obj
 0002:00005880       ??_C@_03OEIAHPBN@INF?$AA@  10040880     libucrt:cvt.obj
 0002:00005884       ??_C@_03OJHLLCGB@inf?$AA@  10040884     libucrt:cvt.obj
 0002:00005888       ??_C@_03LKNCIKJB@NAN?$AA@  10040888     libucrt:cvt.obj
 0002:0000588c       ??_C@_03LHCJEHON@nan?$AA@  1004088c     libucrt:cvt.obj
 0002:00005890       ??_C@_09OFJJIMPC@NAN?$CISNAN?$CJ?$AA@ 10040890     libucrt:cvt.obj
 0002:0000589c       ??_C@_09IPFBKMDL@nan?$CIsnan?$CJ?$AA@ 1004089c     libucrt:cvt.obj
 0002:000058a8       ??_C@_08IKHNHAJ@NAN?$CIIND?$CJ?$AA@ 100408a8     libucrt:cvt.obj
 0002:000058b4       ??_C@_08OFCDMILK@nan?$CIind?$CJ?$AA@ 100408b4     libucrt:cvt.obj
 0002:000058c0       ??_C@_05KLBDPFGC@e?$CL000?$AA@ 100408c0     libucrt:cvt.obj
 0002:000058c8       ___lc_category             100408c8     libucrt:wsetlocale.obj
 0002:00005910       ??_C@_1O@GIFLHMA@?$AAL?$AAC?$AA_?$AAA?$AAL?$AAL?$AA?$AA@ 10040910     libucrt:wsetlocale.obj
 0002:00005920       ??_C@_1BG@PPOMIBNJ@?$AAL?$AAC?$AA_?$AAC?$AAO?$AAL?$AAL?$AAA?$AAT?$AAE?$AA?$AA@ 10040920     libucrt:wsetlocale.obj
 0002:00005938       ??_C@_1BC@FFJGAPJM@?$AAL?$AAC?$AA_?$AAC?$AAT?$AAY?$AAP?$AAE?$AA?$AA@ 10040938     libucrt:wsetlocale.obj
 0002:0000594c       ??_C@_1BI@PCKFNJFB@?$AAL?$AAC?$AA_?$AAM?$AAO?$AAN?$AAE?$AAT?$AAA?$AAR?$AAY?$AA?$AA@ 1004094c     libucrt:wsetlocale.obj
 0002:00005964       ??_C@_1BG@ENIEDKID@?$AAL?$AAC?$AA_?$AAN?$AAU?$AAM?$AAE?$AAR?$AAI?$AAC?$AA?$AA@ 10040964     libucrt:wsetlocale.obj
 0002:0000597c       ??_C@_1BA@HAAOMIIG@?$AAL?$AAC?$AA_?$AAT?$AAI?$AAM?$AAE?$AA?$AA@ 1004097c     libucrt:wsetlocale.obj
 0002:00005a10       ??_C@_15NBPDDFIP@?$AA?$DN?$AA?$DL?$AA?$AA@ 10040a10     libucrt:wsetlocale.obj
 0002:00005a18       ??_C@_13PJJBFPED@?$AA?$DL?$AA?$AA@ 10040a18     libucrt:wsetlocale.obj
 0002:00005a1c       ??_C@_13NMPKAAJP@?$AA?$DN?$AA?$AA@ 10040a1c     libucrt:wsetlocale.obj
 0002:00005a20       ??_C@_13FHBKNHDA@?$AAC?$AA?$AA@ 10040a20     libucrt:wsetlocale.obj
 0002:00005a24       ??_C@_17MBJJLFDM@?$AA_?$AA?4?$AA?0?$AA?$AA@ 10040a24     libucrt:wsetlocale.obj
 0002:00005a2c       ??_C@_13ENNFDPBH@?$AA_?$AA?$AA@ 10040a2c     libucrt:wsetlocale.obj
 0002:00005a30       ??_C@_13JOFGPIOO@?$AA?4?$AA?$AA@ 10040a30     libucrt:wsetlocale.obj
 0002:00005a34       ??_C@_03KOEHGMDN@Sun?$AA@  10040a34     libucrt:nlsdata.obj
 0002:00005a38       ??_C@_03PDAGKDH@Mon?$AA@   10040a38     libucrt:nlsdata.obj
 0002:00005a3c       ??_C@_03NAGEINEP@Tue?$AA@  10040a3c     libucrt:nlsdata.obj
 0002:00005a40       ??_C@_03MHOMLAJA@Wed?$AA@  10040a40     libucrt:nlsdata.obj
 0002:00005a44       ??_C@_03IOFIKPDN@Thu?$AA@  10040a44     libucrt:nlsdata.obj
 0002:00005a48       ??_C@_03IDIOELNC@Fri?$AA@  10040a48     libucrt:nlsdata.obj
 0002:00005a4c       ??_C@_03FEFJNEK@Sat?$AA@   10040a4c     libucrt:nlsdata.obj
 0002:00005a50       ??_C@_06OOPIFAJ@Sunday?$AA@ 10040a50     libucrt:nlsdata.obj
 0002:00005a58       ??_C@_06JLEDEDGH@Monday?$AA@ 10040a58     libucrt:nlsdata.obj
 0002:00005a60       ??_C@_07BAAGCFCM@Tuesday?$AA@ 10040a60     libucrt:nlsdata.obj
 0002:00005a68       ??_C@_09DLIGFAKA@Wednesday?$AA@ 10040a68     libucrt:nlsdata.obj
 0002:00005a74       ??_C@_08HACCIKIA@Thursday?$AA@ 10040a74     libucrt:nlsdata.obj
 0002:00005a80       ??_C@_06JECMNKMI@Friday?$AA@ 10040a80     libucrt:nlsdata.obj
 0002:00005a88       ??_C@_08INBOOONO@Saturday?$AA@ 10040a88     libucrt:nlsdata.obj
 0002:00005a94       ??_C@_03JIHJHPIE@Jan?$AA@  10040a94     libucrt:nlsdata.obj
 0002:00005a98       ??_C@_03HJBDCHOM@Feb?$AA@  10040a98     libucrt:nlsdata.obj
 0002:00005a9c       ??_C@_03ODNJBKGA@Mar?$AA@  10040a9c     libucrt:nlsdata.obj
 0002:00005aa0       ??_C@_03LEOLGMJP@Apr?$AA@  10040aa0     libucrt:nlsdata.obj
 0002:00005aa4       ??_C@_03CNMDKL@May?$AA@    10040aa4     libucrt:nlsdata.obj
 0002:00005aa8       ??_C@_03IDFGHECI@Jun?$AA@  10040aa8     libucrt:nlsdata.obj
 0002:00005aac       ??_C@_03LBGABGKK@Jul?$AA@  10040aac     libucrt:nlsdata.obj
 0002:00005ab0       ??_C@_03IFJFEIGA@Aug?$AA@  10040ab0     libucrt:nlsdata.obj
 0002:00005ab4       ??_C@_03GGCAPAJC@Sep?$AA@  10040ab4     libucrt:nlsdata.obj
 0002:00005ab8       ??_C@_03BMAOKBAD@Oct?$AA@  10040ab8     libucrt:nlsdata.obj
 0002:00005abc       ??_C@_03JPJOFNIA@Nov?$AA@  10040abc     libucrt:nlsdata.obj
 0002:00005ac0       ??_C@_03MKABNOCG@Dec?$AA@  10040ac0     libucrt:nlsdata.obj
 0002:00005ac4       ??_C@_07CGJPFGJA@January?$AA@ 10040ac4     libucrt:nlsdata.obj
 0002:00005acc       ??_C@_08GNJGEPFN@February?$AA@ 10040acc     libucrt:nlsdata.obj
 0002:00005ad8       ??_C@_05HPCKOFNC@March?$AA@ 10040ad8     libucrt:nlsdata.obj
 0002:00005ae0       ??_C@_05DMJDNLEJ@April?$AA@ 10040ae0     libucrt:nlsdata.obj
 0002:00005ae8       ??_C@_04CNLMGBGM@June?$AA@ 10040ae8     libucrt:nlsdata.obj
 0002:00005af0       ??_C@_04MIEPOIFP@July?$AA@ 10040af0     libucrt:nlsdata.obj
 0002:00005af8       ??_C@_06LBBHFDDG@August?$AA@ 10040af8     libucrt:nlsdata.obj
 0002:00005b00       ??_C@_09BHHEALKD@September?$AA@ 10040b00     libucrt:nlsdata.obj
 0002:00005b0c       ??_C@_07JJNFCEND@October?$AA@ 10040b0c     libucrt:nlsdata.obj
 0002:00005b14       ??_C@_08HCHEGEOA@November?$AA@ 10040b14     libucrt:nlsdata.obj
 0002:00005b20       ??_C@_08EDHMEBNP@December?$AA@ 10040b20     libucrt:nlsdata.obj
 0002:00005b2c       ??_C@_02DEDBPAFC@AM?$AA@   10040b2c     libucrt:nlsdata.obj
 0002:00005b30       ??_C@_02CJNFDJBF@PM?$AA@   10040b30     libucrt:nlsdata.obj
 0002:00005b34       ??_C@_08BPBNCDIB@MM?1dd?1yy?$AA@ 10040b34     libucrt:nlsdata.obj
 0002:00005b40       ??_C@_0BE@CKGJFCPC@dddd?0?5MMMM?5dd?0?5yyyy?$AA@ 10040b40     libucrt:nlsdata.obj
 0002:00005b54       ??_C@_08JCCMCCIL@HH?3mm?3ss?$AA@ 10040b54     libucrt:nlsdata.obj
 0002:00005b60       ??_C@_17MBGCMIPB@?$AAS?$AAu?$AAn?$AA?$AA@ 10040b60     libucrt:nlsdata.obj
 0002:00005b68       ??_C@_17KBOMKBF@?$AAM?$AAo?$AAn?$AA?$AA@ 10040b68     libucrt:nlsdata.obj
 0002:00005b70       ??_C@_17BMKGEGOJ@?$AAT?$AAu?$AAe?$AA?$AA@ 10040b70     libucrt:nlsdata.obj
 0002:00005b78       ??_C@_17CJEDCEPE@?$AAW?$AAe?$AAd?$AA?$AA@ 10040b78     libucrt:nlsdata.obj
 0002:00005b80       ??_C@_17PDPHAADD@?$AAT?$AAh?$AAu?$AA?$AA@ 10040b80     libucrt:nlsdata.obj
 0002:00005b88       ??_C@_17HFOLPPLP@?$AAF?$AAr?$AAi?$AA?$AA@ 10040b88     libucrt:nlsdata.obj
 0002:00005b90       ??_C@_17GGIBDPIH@?$AAS?$AAa?$AAt?$AA?$AA@ 10040b90     libucrt:nlsdata.obj
 0002:00005b98       ??_C@_1O@IHNHDHPB@?$AAS?$AAu?$AAn?$AAd?$AAa?$AAy?$AA?$AA@ 10040b98     libucrt:nlsdata.obj
 0002:00005ba8       ??_C@_1O@MMNBFLIA@?$AAM?$AAo?$AAn?$AAd?$AAa?$AAy?$AA?$AA@ 10040ba8     libucrt:nlsdata.obj
 0002:00005bb8       ??_C@_1BA@ENFBFFEK@?$AAT?$AAu?$AAe?$AAs?$AAd?$AAa?$AAy?$AA?$AA@ 10040bb8     libucrt:nlsdata.obj
 0002:00005bc8       ??_C@_1BE@EBOGMDOH@?$AAW?$AAe?$AAd?$AAn?$AAe?$AAs?$AAd?$AAa?$AAy?$AA?$AA@ 10040bc8     libucrt:nlsdata.obj
 0002:00005bdc       ??_C@_1BC@HHMNLIHE@?$AAT?$AAh?$AAu?$AAr?$AAs?$AAd?$AAa?$AAy?$AA?$AA@ 10040bdc     libucrt:nlsdata.obj
 0002:00005bf0       ??_C@_1O@PDICJHAG@?$AAF?$AAr?$AAi?$AAd?$AAa?$AAy?$AA?$AA@ 10040bf0     libucrt:nlsdata.obj
 0002:00005c00       ??_C@_1BC@ENMNNPAJ@?$AAS?$AAa?$AAt?$AAu?$AAr?$AAd?$AAa?$AAy?$AA?$AA@ 10040c00     libucrt:nlsdata.obj
 0002:00005c14       ??_C@_17DKNBKCHM@?$AAJ?$AAa?$AAn?$AA?$AA@ 10040c14     libucrt:nlsdata.obj
 0002:00005c1c       ??_C@_17LMDJEKJN@?$AAF?$AAe?$AAb?$AA?$AA@ 10040c1c     libucrt:nlsdata.obj
 0002:00005c24       ??_C@_17CKNLEDEC@?$AAM?$AAa?$AAr?$AA?$AA@ 10040c24     libucrt:nlsdata.obj
 0002:00005c2c       ??_C@_17LFPOIHDD@?$AAA?$AAp?$AAr?$AA?$AA@ 10040c2c     libucrt:nlsdata.obj
 0002:00005c34       ??_C@_17PNNKMEED@?$AAM?$AAa?$AAy?$AA?$AA@ 10040c34     libucrt:nlsdata.obj
 0002:00005c3c       ??_C@_17KCJGOCPB@?$AAJ?$AAu?$AAn?$AA?$AA@ 10040c3c     libucrt:nlsdata.obj
 0002:00005c44       ??_C@_17IJPCKHK@?$AAJ?$AAu?$AAl?$AA?$AA@ 10040c44     libucrt:nlsdata.obj
 0002:00005c4c       ??_C@_17ICPELBCN@?$AAA?$AAu?$AAg?$AA?$AA@ 10040c4c     libucrt:nlsdata.obj
 0002:00005c54       ??_C@_17HCHCOKMG@?$AAS?$AAe?$AAp?$AA?$AA@ 10040c54     libucrt:nlsdata.obj
 0002:00005c5c       ??_C@_17FNLKOI@?$AAO?$AAc?$AAt?$AA?$AA@ 10040c5c     libucrt:nlsdata.obj
 0002:00005c64       ??_C@_17BBDMLCIG@?$AAN?$AAo?$AAv?$AA?$AA@ 10040c64     libucrt:nlsdata.obj
 0002:00005c6c       ??_C@_17EGKACKIF@?$AAD?$AAe?$AAc?$AA?$AA@ 10040c6c     libucrt:nlsdata.obj
 0002:00005c74       ??_C@_1BA@EFMEIEBA@?$AAJ?$AAa?$AAn?$AAu?$AAa?$AAr?$AAy?$AA?$AA@ 10040c74     libucrt:nlsdata.obj
 0002:00005c84       ??_C@_1BC@JGDDFFAM@?$AAF?$AAe?$AAb?$AAr?$AAu?$AAa?$AAr?$AAy?$AA?$AA@ 10040c84     libucrt:nlsdata.obj
 0002:00005c98       ??_C@_1M@IKEENEDF@?$AAM?$AAa?$AAr?$AAc?$AAh?$AA?$AA@ 10040c98     libucrt:nlsdata.obj
 0002:00005ca4       ??_C@_1M@GJNLMHFD@?$AAA?$AAp?$AAr?$AAi?$AAl?$AA?$AA@ 10040ca4     libucrt:nlsdata.obj
 0002:00005cb0       ??_C@_19EPFLPGAP@?$AAJ?$AAu?$AAn?$AAe?$AA?$AA@ 10040cb0     libucrt:nlsdata.obj
 0002:00005cbc       ??_C@_19BIFMLPCD@?$AAJ?$AAu?$AAl?$AAy?$AA?$AA@ 10040cbc     libucrt:nlsdata.obj
 0002:00005cc8       ??_C@_1O@PAHLKOAC@?$AAA?$AAu?$AAg?$AAu?$AAs?$AAt?$AA?$AA@ 10040cc8     libucrt:nlsdata.obj
 0002:00005cd8       ??_C@_1BE@DKAAMBJL@?$AAS?$AAe?$AAp?$AAt?$AAe?$AAm?$AAb?$AAe?$AAr?$AA?$AA@ 10040cd8     libucrt:nlsdata.obj
 0002:00005cec       ??_C@_1BA@EPANDLNG@?$AAO?$AAc?$AAt?$AAo?$AAb?$AAe?$AAr?$AA?$AA@ 10040cec     libucrt:nlsdata.obj
 0002:00005cfc       ??_C@_1BC@BGLIFPF@?$AAN?$AAo?$AAv?$AAe?$AAm?$AAb?$AAe?$AAr?$AA?$AA@ 10040cfc     libucrt:nlsdata.obj
 0002:00005d10       ??_C@_1BC@FEMKIFH@?$AAD?$AAe?$AAc?$AAe?$AAm?$AAb?$AAe?$AAr?$AA?$AA@ 10040d10     libucrt:nlsdata.obj
 0002:00005d24       ??_C@_15ODEHAHHF@?$AAA?$AAM?$AA?$AA@ 10040d24     libucrt:nlsdata.obj
 0002:00005d2c       ??_C@_15CLMNNGEL@?$AAP?$AAM?$AA?$AA@ 10040d2c     libucrt:nlsdata.obj
 0002:00005d34       ??_C@_1BC@IEBCMHCM@?$AAM?$AAM?$AA?1?$AAd?$AAd?$AA?1?$AAy?$AAy?$AA?$AA@ 10040d34     libucrt:nlsdata.obj
 0002:00005d48       ??_C@_1CI@KNAKOEBC@?$AAd?$AAd?$AAd?$AAd?$AA?0?$AA?5?$AAM?$AAM?$AAM?$AAM?$AA?5?$AAd?$AAd?$AA?0?$AA?5?$AAy?$AAy?$AAy?$AAy?$AA?$AA@ 10040d48     libucrt:nlsdata.obj
 0002:00005d70       ??_C@_1BC@GDGBMEMK@?$AAH?$AAH?$AA?3?$AAm?$AAm?$AA?3?$AAs?$AAs?$AA?$AA@ 10040d70     libucrt:nlsdata.obj
 0002:00005d88       ___lc_time_c               10040d88     libucrt:nlsdata.obj
 0002:00005eec       ??_C@_04FJHINJAO@tanh?$AA@ 10040eec     libucrt:fpexcept.obj
 0002:00005ef4       ??_C@_04FIHNOPOL@asin?$AA@ 10040ef4     libucrt:fpexcept.obj
 0002:00005efc       ??_C@_04PDIFKINK@acos?$AA@ 10040efc     libucrt:fpexcept.obj
 0002:00005f04       ??_C@_04MLLJIGOK@atan?$AA@ 10040f04     libucrt:fpexcept.obj
 0002:00005f0c       ??_C@_05KNGEOGJB@atan2?$AA@ 10040f0c     libucrt:fpexcept.obj
 0002:00005f14       ??_C@_04EIAKFFMI@sqrt?$AA@ 10040f14     libucrt:fpexcept.obj
 0002:00005f1c       ??_C@_03BLEJJJBH@sin?$AA@  10040f1c     libucrt:fpexcept.obj
 0002:00005f20       ??_C@_03LALBNOCG@cos?$AA@  10040f20     libucrt:fpexcept.obj
 0002:00005f24       ??_C@_03IIINPABG@tan?$AA@  10040f24     libucrt:fpexcept.obj
 0002:00005f28       ??_C@_04GFPJNGEK@ceil?$AA@ 10040f28     libucrt:fpexcept.obj
 0002:00005f30       ??_C@_05PBJFFIGL@floor?$AA@ 10040f30     libucrt:fpexcept.obj
 0002:00005f38       ??_C@_04ODHECPBC@fabs?$AA@ 10040f38     libucrt:fpexcept.obj
 0002:00005f40       ??_C@_04EHEDPDJG@modf?$AA@ 10040f40     libucrt:fpexcept.obj
 0002:00005f48       ??_C@_05CEJMAHNP@ldexp?$AA@ 10040f48     libucrt:fpexcept.obj
 0002:00005f50       ??_C@_05KBKMEMPO@_cabs?$AA@ 10040f50     libucrt:fpexcept.obj
 0002:00005f58       ??_C@_06MEIMCGCF@_hypot?$AA@ 10040f58     libucrt:fpexcept.obj
 0002:00005f60       ??_C@_04KEPJIHGP@fmod?$AA@ 10040f60     libucrt:fpexcept.obj
 0002:00005f68       ??_C@_05GKKHEGJL@frexp?$AA@ 10040f68     libucrt:fpexcept.obj
 0002:00005f70       ??_C@_03MJLDFKDL@_y0?$AA@  10040f70     libucrt:fpexcept.obj
 0002:00005f74       ??_C@_03NAKIGLHK@_y1?$AA@  10040f74     libucrt:fpexcept.obj
 0002:00005f78       ??_C@_03ONILCKOB@_yn?$AA@  10040f78     libucrt:fpexcept.obj
 0002:00005f7c       ??_C@_05JGDBENOH@_logb?$AA@ 10040f7c     libucrt:fpexcept.obj
 0002:00005f84       ??_C@_0L@KDOEJCKC@_nextafter?$AA@ 10040f84     libucrt:fpexcept.obj
 0002:00006078       ??_C@_03KHJOGHMM@exp?$AA@  10041078     libucrt:fpexcept.obj
 0002:0000607c       ??_C@_03JGHBODFD@pow?$AA@  1004107c     libucrt:fpexcept.obj
 0002:00006080       ??_C@_03MGHMBJCF@log?$AA@  10041080     libucrt:fpexcept.obj
 0002:00006084       ??_C@_05HGHHAHAP@log10?$AA@ 10041084     libucrt:fpexcept.obj
 0002:0000608c       ??_C@_04COOMCNPB@sinh?$AA@ 1004108c     libucrt:fpexcept.obj
 0002:00006094       ??_C@_04HPJJNFIM@cosh?$AA@ 10041094     libucrt:fpexcept.obj
 0002:000060a0       __d_inf                    100410a0     libucrt:util.obj
 0002:000060a8       __d_max                    100410a8     libucrt:util.obj
 0002:000060b0       __d_mzero                  100410b0     libucrt:util.obj
 0002:00006120       ??_C@_1EG@CNNIPFIM@?$AAa?$AAp?$AAi?$AA?9?$AAm?$AAs?$AA?9?$AAw?$AAi?$AAn?$AA?9?$AAa?$AAp?$AAp?$AAm?$AAo?$AAd?$AAe?$AAl?$AA?9?$AAr?$AAu?$AAn?$AAt?$AAi?$AAm?$AAe?$AA?9?$AAl?$AA1?$AA?9?$AA1@ 10041120     libucrt:winapi_thunks.obj
 0002:00006168       ??_C@_1EA@JGEFHKEI@?$AAa?$AAp?$AAi?$AA?9?$AAm?$AAs?$AA?9?$AAw?$AAi?$AAn?$AA?9?$AAc?$AAo?$AAr?$AAe?$AA?9?$AAd?$AAa?$AAt?$AAe?$AAt?$AAi?$AAm?$AAe?$AA?9?$AAl?$AA1?$AA?9?$AA1?$AA?9?$AA1?$AA?$AA@ 10041168     libucrt:winapi_thunks.obj
 0002:000061a8       ??_C@_1DI@GCIAAENM@?$AAa?$AAp?$AAi?$AA?9?$AAm?$AAs?$AA?9?$AAw?$AAi?$AAn?$AA?9?$AAc?$AAo?$AAr?$AAe?$AA?9?$AAf?$AAi?$AAl?$AAe?$AA?9?$AAl?$AA2?$AA?9?$AA1?$AA?9?$AA1?$AA?$AA@ 100411a8     libucrt:winapi_thunks.obj
 0002:000061e0       ??_C@_1EI@MPIAOHOC@?$AAa?$AAp?$AAi?$AA?9?$AAm?$AAs?$AA?9?$AAw?$AAi?$AAn?$AA?9?$AAc?$AAo?$AAr?$AAe?$AA?9?$AAl?$AAo?$AAc?$AAa?$AAl?$AAi?$AAz?$AAa?$AAt?$AAi?$AAo?$AAn?$AA?9?$AAl?$AA1?$AA?9@ 100411e0     libucrt:winapi_thunks.obj
 0002:00006228       ??_C@_1FK@FPHCKFIE@?$AAa?$AAp?$AAi?$AA?9?$AAm?$AAs?$AA?9?$AAw?$AAi?$AAn?$AA?9?$AAc?$AAo?$AAr?$AAe?$AA?9?$AAl?$AAo?$AAc?$AAa?$AAl?$AAi?$AAz?$AAa?$AAt?$AAi?$AAo?$AAn?$AA?9?$AAo?$AAb?$AAs@ 10041228     libucrt:winapi_thunks.obj
 0002:00006288       ??_C@_1EM@DILCGIIO@?$AAa?$AAp?$AAi?$AA?9?$AAm?$AAs?$AA?9?$AAw?$AAi?$AAn?$AA?9?$AAc?$AAo?$AAr?$AAe?$AA?9?$AAp?$AAr?$AAo?$AAc?$AAe?$AAs?$AAs?$AAt?$AAh?$AAr?$AAe?$AAa?$AAd?$AAs?$AA?9?$AAl@ 10041288     libucrt:winapi_thunks.obj
 0002:000062d4       ??_C@_1DM@LNCGDDPN@?$AAa?$AAp?$AAi?$AA?9?$AAm?$AAs?$AA?9?$AAw?$AAi?$AAn?$AA?9?$AAc?$AAo?$AAr?$AAe?$AA?9?$AAs?$AAt?$AAr?$AAi?$AAn?$AAg?$AA?9?$AAl?$AA1?$AA?9?$AA1?$AA?9?$AA0?$AA?$AA@ 100412d4     libucrt:winapi_thunks.obj
 0002:00006310       ??_C@_1DO@FPAPJEMD@?$AAa?$AAp?$AAi?$AA?9?$AAm?$AAs?$AA?9?$AAw?$AAi?$AAn?$AA?9?$AAc?$AAo?$AAr?$AAe?$AA?9?$AAs?$AAy?$AAs?$AAi?$AAn?$AAf?$AAo?$AA?9?$AAl?$AA1?$AA?9?$AA2?$AA?9?$AA1?$AA?$AA@ 10041310     libucrt:winapi_thunks.obj
 0002:00006350       ??_C@_1DK@NDHNAHIO@?$AAa?$AAp?$AAi?$AA?9?$AAm?$AAs?$AA?9?$AAw?$AAi?$AAn?$AA?9?$AAc?$AAo?$AAr?$AAe?$AA?9?$AAw?$AAi?$AAn?$AAr?$AAt?$AA?9?$AAl?$AA1?$AA?9?$AA1?$AA?9?$AA0?$AA?$AA@ 10041350     libucrt:winapi_thunks.obj
 0002:0000638c       ??_C@_1DM@KGHDGBCM@?$AAa?$AAp?$AAi?$AA?9?$AAm?$AAs?$AA?9?$AAw?$AAi?$AAn?$AA?9?$AAc?$AAo?$AAr?$AAe?$AA?9?$AAx?$AAs?$AAt?$AAa?$AAt?$AAe?$AA?9?$AAl?$AA2?$AA?9?$AA1?$AA?9?$AA0?$AA?$AA@ 1004138c     libucrt:winapi_thunks.obj
 0002:000063c8       ??_C@_1EO@IJIOEFOH@?$AAa?$AAp?$AAi?$AA?9?$AAm?$AAs?$AA?9?$AAw?$AAi?$AAn?$AA?9?$AAr?$AAt?$AAc?$AAo?$AAr?$AAe?$AA?9?$AAn?$AAt?$AAu?$AAs?$AAe?$AAr?$AA?9?$AAw?$AAi?$AAn?$AAd?$AAo?$AAw?$AA?9@ 100413c8     libucrt:winapi_thunks.obj
 0002:00006418       ??_C@_1FG@HHGEKANL@?$AAa?$AAp?$AAi?$AA?9?$AAm?$AAs?$AA?9?$AAw?$AAi?$AAn?$AA?9?$AAs?$AAe?$AAc?$AAu?$AAr?$AAi?$AAt?$AAy?$AA?9?$AAs?$AAy?$AAs?$AAt?$AAe?$AAm?$AAf?$AAu?$AAn?$AAc?$AAt?$AAi@ 10041418     libucrt:winapi_thunks.obj
 0002:00006470       ??_C@_1FG@NCKKOLKO@?$AAe?$AAx?$AAt?$AA?9?$AAm?$AAs?$AA?9?$AAw?$AAi?$AAn?$AA?9?$AAk?$AAe?$AAr?$AAn?$AAe?$AAl?$AA3?$AA2?$AA?9?$AAp?$AAa?$AAc?$AAk?$AAa?$AAg?$AAe?$AA?9?$AAc?$AAu?$AAr?$AAr@ 10041470     libucrt:winapi_thunks.obj
 0002:000064c8       ??_C@_1EG@DBIOJECG@?$AAe?$AAx?$AAt?$AA?9?$AAm?$AAs?$AA?9?$AAw?$AAi?$AAn?$AA?9?$AAn?$AAt?$AAu?$AAs?$AAe?$AAr?$AA?9?$AAd?$AAi?$AAa?$AAl?$AAo?$AAg?$AAb?$AAo?$AAx?$AA?9?$AAl?$AA1?$AA?9?$AA1@ 100414c8     libucrt:winapi_thunks.obj
 0002:00006510       ??_C@_1EO@FIHMJCLF@?$AAe?$AAx?$AAt?$AA?9?$AAm?$AAs?$AA?9?$AAw?$AAi?$AAn?$AA?9?$AAn?$AAt?$AAu?$AAs?$AAe?$AAr?$AA?9?$AAw?$AAi?$AAn?$AAd?$AAo?$AAw?$AAs?$AAt?$AAa?$AAt?$AAi?$AAo?$AAn?$AA?9@ 10041510     libucrt:winapi_thunks.obj
 0002:00006560       ??_C@_1O@BCCLBEOE@?$AAu?$AAs?$AAe?$AAr?$AA3?$AA2?$AA?$AA@ 10041560     libucrt:winapi_thunks.obj
 0002:00006580       ??_C@_0BE@LJANKFHF@EnumSystemLocalesEx?$AA@ 10041580     libucrt:winapi_thunks.obj
 0002:000065bc       ??_C@_0BA@HNOPNCHB@GetActiveWindow?$AA@ 100415bc     libucrt:winapi_thunks.obj
 0002:000065dc       ??_C@_0BD@HHGDFDBJ@GetLastActivePopup?$AA@ 100415dc     libucrt:winapi_thunks.obj
 0002:00006600       ??_C@_0BI@DFKBFLJE@GetProcessWindowStation?$AA@ 10041600     libucrt:winapi_thunks.obj
 0002:00006620       ??_C@_0BJ@PBCCBIPI@GetUserDefaultLocaleName?$AA@ 10041620     libucrt:winapi_thunks.obj
 0002:00006644       ??_C@_0BK@DEKFELLI@GetUserObjectInformationW?$AA@ 10041644     libucrt:winapi_thunks.obj
 0002:00006670       ??_C@_0BC@CELBKLLA@IsValidLocaleName?$AA@ 10041670     libucrt:winapi_thunks.obj
 0002:00006694       ??_C@_0BB@CDHDDLLP@LCIDToLocaleName?$AA@ 10041694     libucrt:winapi_thunks.obj
 0002:000066b0       ??_C@_0BB@HBDEELFH@LocaleNameToLCID?$AA@ 100416b0     libucrt:winapi_thunks.obj
 0002:000066cc       ??_C@_0M@CHKKJDAI@MessageBoxA?$AA@ 100416cc     libucrt:winapi_thunks.obj
 0002:000066e0       ??_C@_0M@DLDCCGNP@MessageBoxW?$AA@ 100416e0     libucrt:winapi_thunks.obj
 0002:000067b0       __infinity                 100417b0     libucrt:87tran.obj
 0002:000067ba       __minfinity                100417ba     libucrt:87tran.obj
 0002:000067c4       __logemax                  100417c4     libucrt:87tran.obj
 0002:000067ea       __OP_EXPjmptab             100417ea     libucrt:87tran.obj
 0002:00006810       __indefinite               10041810     libucrt:87disp.obj
 0002:0000681a       __piby2                    1004181a     libucrt:87disp.obj
 0002:00006824       __piby4                    10041824     libucrt:87disp.obj
 0002:00006858       __DEFAULT_CW_in_mem        10041858     libucrt:common.obj
 0002:0000685a       __pi_by_2_to_61            1004185a     libucrt:common.obj
 0002:000068a4       ??_C@_01GBGANLPD@0?$AA@    100418a4     libucrt:cfout.obj
 0002:000068a8       ??_C@_05DNEBIAHO@1?$CDINF?$AA@ 100418a8     libucrt:cfout.obj
 0002:000068b0       ??_C@_06IMKFLFPG@1?$CDQNAN?$AA@ 100418b0     libucrt:cfout.obj
 0002:000068b8       ??_C@_06PGGFOGJG@1?$CDSNAN?$AA@ 100418b8     libucrt:cfout.obj
 0002:000068c0       ??_C@_05PHHOCPM@1?$CDIND?$AA@ 100418c0     libucrt:cfout.obj
 0002:000068c8       ??_C@_1BC@LLOKLNP@?$AAa?$AAm?$AAe?$AAr?$AAi?$AAc?$AAa?$AAn?$AA?$AA@ 100418c8     libucrt:get_qualified_locale.obj
 0002:000068dc       ??_C@_1CC@HEIGCDGG@?$AAa?$AAm?$AAe?$AAr?$AAi?$AAc?$AAa?$AAn?$AA?5?$AAe?$AAn?$AAg?$AAl?$AAi?$AAs?$AAh?$AA?$AA@ 100418dc     libucrt:get_qualified_locale.obj
 0002:00006900       ??_C@_1CC@IHCNOMIN@?$AAa?$AAm?$AAe?$AAr?$AAi?$AAc?$AAa?$AAn?$AA?9?$AAe?$AAn?$AAg?$AAl?$AAi?$AAs?$AAh?$AA?$AA@ 10041900     libucrt:get_qualified_locale.obj
 0002:00006924       ??_C@_1BG@GKAGPCGG@?$AAa?$AAu?$AAs?$AAt?$AAr?$AAa?$AAl?$AAi?$AAa?$AAn?$AA?$AA@ 10041924     libucrt:get_qualified_locale.obj
 0002:0000693c       ??_C@_1BA@GMENCENF@?$AAb?$AAe?$AAl?$AAg?$AAi?$AAa?$AAn?$AA?$AA@ 1004193c     libucrt:get_qualified_locale.obj
 0002:0000694c       ??_C@_1BC@PJMIIAAN@?$AAc?$AAa?$AAn?$AAa?$AAd?$AAi?$AAa?$AAn?$AA?$AA@ 1004194c     libucrt:get_qualified_locale.obj
 0002:00006960       ??_C@_17NOIMNFBF@?$AAc?$AAh?$AAh?$AA?$AA@ 10041960     libucrt:get_qualified_locale.obj
 0002:00006968       ??_C@_17GGDALCHA@?$AAc?$AAh?$AAi?$AA?$AA@ 10041968     libucrt:get_qualified_locale.obj
 0002:00006970       ??_C@_1BA@NPNJKIBL@?$AAc?$AAh?$AAi?$AAn?$AAe?$AAs?$AAe?$AA?$AA@ 10041970     libucrt:get_qualified_locale.obj
 0002:00006980       ??_C@_1CC@DINBAMMJ@?$AAc?$AAh?$AAi?$AAn?$AAe?$AAs?$AAe?$AA?9?$AAh?$AAo?$AAn?$AAg?$AAk?$AAo?$AAn?$AAg?$AA?$AA@ 10041980     libucrt:get_qualified_locale.obj
 0002:000069a4       ??_C@_1CG@IOBJPACO@?$AAc?$AAh?$AAi?$AAn?$AAe?$AAs?$AAe?$AA?9?$AAs?$AAi?$AAm?$AAp?$AAl?$AAi?$AAf?$AAi?$AAe?$AAd?$AA?$AA@ 100419a4     libucrt:get_qualified_locale.obj
 0002:000069cc       ??_C@_1CE@GAJNDCKG@?$AAc?$AAh?$AAi?$AAn?$AAe?$AAs?$AAe?$AA?9?$AAs?$AAi?$AAn?$AAg?$AAa?$AAp?$AAo?$AAr?$AAe?$AA?$AA@ 100419cc     libucrt:get_qualified_locale.obj
 0002:000069f0       ??_C@_1CI@PAJPIOOD@?$AAc?$AAh?$AAi?$AAn?$AAe?$AAs?$AAe?$AA?9?$AAt?$AAr?$AAa?$AAd?$AAi?$AAt?$AAi?$AAo?$AAn?$AAa?$AAl?$AA?$AA@ 100419f0     libucrt:get_qualified_locale.obj
 0002:00006a18       ??_C@_1BM@NILJBMMD@?$AAd?$AAu?$AAt?$AAc?$AAh?$AA?9?$AAb?$AAe?$AAl?$AAg?$AAi?$AAa?$AAn?$AA?$AA@ 10041a18     libucrt:get_qualified_locale.obj
 0002:00006a34       ??_C@_1CC@OOJPJNEJ@?$AAe?$AAn?$AAg?$AAl?$AAi?$AAs?$AAh?$AA?9?$AAa?$AAm?$AAe?$AAr?$AAi?$AAc?$AAa?$AAn?$AA?$AA@ 10041a34     libucrt:get_qualified_locale.obj
 0002:00006a58       ??_C@_1BI@IOLFEEM@?$AAe?$AAn?$AAg?$AAl?$AAi?$AAs?$AAh?$AA?9?$AAa?$AAu?$AAs?$AA?$AA@ 10041a58     libucrt:get_qualified_locale.obj
 0002:00006a70       ??_C@_1BO@HFFNLENJ@?$AAe?$AAn?$AAg?$AAl?$AAi?$AAs?$AAh?$AA?9?$AAb?$AAe?$AAl?$AAi?$AAz?$AAe?$AA?$AA@ 10041a70     libucrt:get_qualified_locale.obj
 0002:00006a90       ??_C@_1BI@HAPKJMPO@?$AAe?$AAn?$AAg?$AAl?$AAi?$AAs?$AAh?$AA?9?$AAc?$AAa?$AAn?$AA?$AA@ 10041a90     libucrt:get_qualified_locale.obj
 0002:00006aa8       ??_C@_1CE@HLNDMIOJ@?$AAe?$AAn?$AAg?$AAl?$AAi?$AAs?$AAh?$AA?9?$AAc?$AAa?$AAr?$AAi?$AAb?$AAb?$AAe?$AAa?$AAn?$AA?$AA@ 10041aa8     libucrt:get_qualified_locale.obj
 0002:00006acc       ??_C@_1BI@LDHJHHAC@?$AAe?$AAn?$AAg?$AAl?$AAi?$AAs?$AAh?$AA?9?$AAi?$AAr?$AAe?$AA?$AA@ 10041acc     libucrt:get_qualified_locale.obj
 0002:00006ae4       ??_C@_1CA@NJMMCFOC@?$AAe?$AAn?$AAg?$AAl?$AAi?$AAs?$AAh?$AA?9?$AAj?$AAa?$AAm?$AAa?$AAi?$AAc?$AAa?$AA?$AA@ 10041ae4     libucrt:get_qualified_locale.obj
 0002:00006b04       ??_C@_1BG@BHJEBBGG@?$AAe?$AAn?$AAg?$AAl?$AAi?$AAs?$AAh?$AA?9?$AAn?$AAz?$AA?$AA@ 10041b04     libucrt:get_qualified_locale.obj
 0002:00006b1c       ??_C@_1CK@FGOEJJCO@?$AAe?$AAn?$AAg?$AAl?$AAi?$AAs?$AAh?$AA?9?$AAs?$AAo?$AAu?$AAt?$AAh?$AA?5?$AAa?$AAf?$AAr?$AAi?$AAc?$AAa?$AA?$AA@ 10041b1c     libucrt:get_qualified_locale.obj
 0002:00006b48       ??_C@_1DE@PDBJPCJ@?$AAe?$AAn?$AAg?$AAl?$AAi?$AAs?$AAh?$AA?9?$AAt?$AAr?$AAi?$AAn?$AAi?$AAd?$AAa?$AAd?$AA?5?$AAy?$AA?5?$AAt?$AAo?$AAb?$AAa?$AAg?$AAo?$AA?$AA@ 10041b48     libucrt:get_qualified_locale.obj
 0002:00006b7c       ??_C@_1BG@JGCANDME@?$AAe?$AAn?$AAg?$AAl?$AAi?$AAs?$AAh?$AA?9?$AAu?$AAk?$AA?$AA@ 10041b7c     libucrt:get_qualified_locale.obj
 0002:00006b94       ??_C@_1BG@DINKMLE@?$AAe?$AAn?$AAg?$AAl?$AAi?$AAs?$AAh?$AA?9?$AAu?$AAs?$AA?$AA@ 10041b94     libucrt:get_qualified_locale.obj
 0002:00006bac       ??_C@_1BI@NMFDBHJE@?$AAe?$AAn?$AAg?$AAl?$AAi?$AAs?$AAh?$AA?9?$AAu?$AAs?$AAa?$AA?$AA@ 10041bac     libucrt:get_qualified_locale.obj
 0002:00006bc4       ??_C@_1BO@OIHKJKII@?$AAf?$AAr?$AAe?$AAn?$AAc?$AAh?$AA?9?$AAb?$AAe?$AAl?$AAg?$AAi?$AAa?$AAn?$AA?$AA@ 10041bc4     libucrt:get_qualified_locale.obj
 0002:00006be4       ??_C@_1CA@NKAELJKI@?$AAf?$AAr?$AAe?$AAn?$AAc?$AAh?$AA?9?$AAc?$AAa?$AAn?$AAa?$AAd?$AAi?$AAa?$AAn?$AA?$AA@ 10041be4     libucrt:get_qualified_locale.obj
 0002:00006c04       ??_C@_1CE@MGKCNLGN@?$AAf?$AAr?$AAe?$AAn?$AAc?$AAh?$AA?9?$AAl?$AAu?$AAx?$AAe?$AAm?$AAb?$AAo?$AAu?$AAr?$AAg?$AA?$AA@ 10041c04     libucrt:get_qualified_locale.obj
 0002:00006c28       ??_C@_1BK@CEGEAILM@?$AAf?$AAr?$AAe?$AAn?$AAc?$AAh?$AA?9?$AAs?$AAw?$AAi?$AAs?$AAs?$AA?$AA@ 10041c28     libucrt:get_qualified_locale.obj
 0002:00006c44       ??_C@_1CA@PAFKEOCC@?$AAg?$AAe?$AAr?$AAm?$AAa?$AAn?$AA?9?$AAa?$AAu?$AAs?$AAt?$AAr?$AAi?$AAa?$AAn?$AA?$AA@ 10041c44     libucrt:get_qualified_locale.obj
 0002:00006c64       ??_C@_1CI@HCFHGOFD@?$AAg?$AAe?$AAr?$AAm?$AAa?$AAn?$AA?9?$AAl?$AAi?$AAc?$AAh?$AAt?$AAe?$AAn?$AAs?$AAt?$AAe?$AAi?$AAn?$AA?$AA@ 10041c64     libucrt:get_qualified_locale.obj
 0002:00006c8c       ??_C@_1CE@FEDDNPDG@?$AAg?$AAe?$AAr?$AAm?$AAa?$AAn?$AA?9?$AAl?$AAu?$AAx?$AAe?$AAm?$AAb?$AAo?$AAu?$AAr?$AAg?$AA?$AA@ 10041c8c     libucrt:get_qualified_locale.obj
 0002:00006cb0       ??_C@_1BK@LIMINNMN@?$AAg?$AAe?$AAr?$AAm?$AAa?$AAn?$AA?9?$AAs?$AAw?$AAi?$AAs?$AAs?$AA?$AA@ 10041cb0     libucrt:get_qualified_locale.obj
 0002:00006ccc       ??_C@_1BM@LGMDBEPD@?$AAi?$AAr?$AAi?$AAs?$AAh?$AA?9?$AAe?$AAn?$AAg?$AAl?$AAi?$AAs?$AAh?$AA?$AA@ 10041ccc     libucrt:get_qualified_locale.obj
 0002:00006ce8       ??_C@_1BM@NNCFBAEE@?$AAi?$AAt?$AAa?$AAl?$AAi?$AAa?$AAn?$AA?9?$AAs?$AAw?$AAi?$AAs?$AAs?$AA?$AA@ 10041ce8     libucrt:get_qualified_locale.obj
 0002:00006d04       ??_C@_1BE@FEDJNPIB@?$AAn?$AAo?$AAr?$AAw?$AAe?$AAg?$AAi?$AAa?$AAn?$AA?$AA@ 10041d04     libucrt:get_qualified_locale.obj
 0002:00006d18       ??_C@_1CC@CILKDEIE@?$AAn?$AAo?$AAr?$AAw?$AAe?$AAg?$AAi?$AAa?$AAn?$AA?9?$AAb?$AAo?$AAk?$AAm?$AAa?$AAl?$AA?$AA@ 10041d18     libucrt:get_qualified_locale.obj
 0002:00006d3c       ??_C@_1CE@DHMMHEPL@?$AAn?$AAo?$AAr?$AAw?$AAe?$AAg?$AAi?$AAa?$AAn?$AA?9?$AAn?$AAy?$AAn?$AAo?$AAr?$AAs?$AAk?$AA?$AA@ 10041d3c     libucrt:get_qualified_locale.obj
 0002:00006d60       ??_C@_1CK@OPNMHECD@?$AAp?$AAo?$AAr?$AAt?$AAu?$AAg?$AAu?$AAe?$AAs?$AAe?$AA?9?$AAb?$AAr?$AAa?$AAz?$AAi?$AAl?$AAi?$AAa?$AAn?$AA?$AA@ 10041d60     libucrt:get_qualified_locale.obj
 0002:00006d8c       ??_C@_1CE@KEEHCDB@?$AAs?$AAp?$AAa?$AAn?$AAi?$AAs?$AAh?$AA?9?$AAa?$AAr?$AAg?$AAe?$AAn?$AAt?$AAi?$AAn?$AAa?$AA?$AA@ 10041d8c     libucrt:get_qualified_locale.obj
 0002:00006db0       ??_C@_1CA@GIAOLHJD@?$AAs?$AAp?$AAa?$AAn?$AAi?$AAs?$AAh?$AA?9?$AAb?$AAo?$AAl?$AAi?$AAv?$AAi?$AAa?$AA?$AA@ 10041db0     libucrt:get_qualified_locale.obj
 0002:00006dd0       ??_C@_1BM@OJNDFNPD@?$AAs?$AAp?$AAa?$AAn?$AAi?$AAs?$AAh?$AA?9?$AAc?$AAh?$AAi?$AAl?$AAe?$AA?$AA@ 10041dd0     libucrt:get_qualified_locale.obj
 0002:00006dec       ??_C@_1CC@OCOLPALL@?$AAs?$AAp?$AAa?$AAn?$AAi?$AAs?$AAh?$AA?9?$AAc?$AAo?$AAl?$AAo?$AAm?$AAb?$AAi?$AAa?$AA?$AA@ 10041dec     libucrt:get_qualified_locale.obj
 0002:00006e10       ??_C@_1CG@BPOFMKBB@?$AAs?$AAp?$AAa?$AAn?$AAi?$AAs?$AAh?$AA?9?$AAc?$AAo?$AAs?$AAt?$AAa?$AA?5?$AAr?$AAi?$AAc?$AAa?$AA?$AA@ 10041e10     libucrt:get_qualified_locale.obj
 0002:00006e38       ??_C@_1DG@IGOBAPBB@?$AAs?$AAp?$AAa?$AAn?$AAi?$AAs?$AAh?$AA?9?$AAd?$AAo?$AAm?$AAi?$AAn?$AAi?$AAc?$AAa?$AAn?$AA?5?$AAr?$AAe?$AAp?$AAu?$AAb?$AAl?$AAi?$AAc?$AA?$AA@ 10041e38     libucrt:get_qualified_locale.obj
 0002:00006e70       ??_C@_1CA@JHAPGEGI@?$AAs?$AAp?$AAa?$AAn?$AAi?$AAs?$AAh?$AA?9?$AAe?$AAc?$AAu?$AAa?$AAd?$AAo?$AAr?$AA?$AA@ 10041e70     libucrt:get_qualified_locale.obj
 0002:00006e90       ??_C@_1CI@LAPALJPP@?$AAs?$AAp?$AAa?$AAn?$AAi?$AAs?$AAh?$AA?9?$AAe?$AAl?$AA?5?$AAs?$AAa?$AAl?$AAv?$AAa?$AAd?$AAo?$AAr?$AA?$AA@ 10041e90     libucrt:get_qualified_locale.obj
 0002:00006eb8       ??_C@_1CE@PDGBOFOM@?$AAs?$AAp?$AAa?$AAn?$AAi?$AAs?$AAh?$AA?9?$AAg?$AAu?$AAa?$AAt?$AAe?$AAm?$AAa?$AAl?$AAa?$AA?$AA@ 10041eb8     libucrt:get_qualified_locale.obj
 0002:00006edc       ??_C@_1CC@NBEBAODI@?$AAs?$AAp?$AAa?$AAn?$AAi?$AAs?$AAh?$AA?9?$AAh?$AAo?$AAn?$AAd?$AAu?$AAr?$AAa?$AAs?$AA?$AA@ 10041edc     libucrt:get_qualified_locale.obj
 0002:00006f00       ??_C@_1CA@LLKGHBMF@?$AAs?$AAp?$AAa?$AAn?$AAi?$AAs?$AAh?$AA?9?$AAm?$AAe?$AAx?$AAi?$AAc?$AAa?$AAn?$AA?$AA@ 10041f00     libucrt:get_qualified_locale.obj
 0002:00006f20       ??_C@_1BO@LKNDOIGD@?$AAs?$AAp?$AAa?$AAn?$AAi?$AAs?$AAh?$AA?9?$AAm?$AAo?$AAd?$AAe?$AAr?$AAn?$AA?$AA@ 10041f20     libucrt:get_qualified_locale.obj
 0002:00006f40       ??_C@_1CE@NMDMOEEB@?$AAs?$AAp?$AAa?$AAn?$AAi?$AAs?$AAh?$AA?9?$AAn?$AAi?$AAc?$AAa?$AAr?$AAa?$AAg?$AAu?$AAa?$AA?$AA@ 10041f40     libucrt:get_qualified_locale.obj
 0002:00006f64       ??_C@_1BO@LLCBEJGB@?$AAs?$AAp?$AAa?$AAn?$AAi?$AAs?$AAh?$AA?9?$AAp?$AAa?$AAn?$AAa?$AAm?$AAa?$AA?$AA@ 10041f64     libucrt:get_qualified_locale.obj
 0002:00006f84       ??_C@_1CC@FKPGGIHO@?$AAs?$AAp?$AAa?$AAn?$AAi?$AAs?$AAh?$AA?9?$AAp?$AAa?$AAr?$AAa?$AAg?$AAu?$AAa?$AAy?$AA?$AA@ 10041f84     libucrt:get_qualified_locale.obj
 0002:00006fa8       ??_C@_1BK@CDEIHOOP@?$AAs?$AAp?$AAa?$AAn?$AAi?$AAs?$AAh?$AA?9?$AAp?$AAe?$AAr?$AAu?$AA?$AA@ 10041fa8     libucrt:get_qualified_locale.obj
 0002:00006fc4       ??_C@_1CI@GAHAKKGP@?$AAs?$AAp?$AAa?$AAn?$AAi?$AAs?$AAh?$AA?9?$AAp?$AAu?$AAe?$AAr?$AAt?$AAo?$AA?5?$AAr?$AAi?$AAc?$AAo?$AA?$AA@ 10041fc4     libucrt:get_qualified_locale.obj
 0002:00006fec       ??_C@_1CA@NKJBCAGP@?$AAs?$AAp?$AAa?$AAn?$AAi?$AAs?$AAh?$AA?9?$AAu?$AAr?$AAu?$AAg?$AAu?$AAa?$AAy?$AA?$AA@ 10041fec     libucrt:get_qualified_locale.obj
 0002:0000700c       ??_C@_1CE@ODILCONM@?$AAs?$AAp?$AAa?$AAn?$AAi?$AAs?$AAh?$AA?9?$AAv?$AAe?$AAn?$AAe?$AAz?$AAu?$AAe?$AAl?$AAa?$AA?$AA@ 1004200c     libucrt:get_qualified_locale.obj
 0002:00007030       ??_C@_1CA@OBNMCGFO@?$AAs?$AAw?$AAe?$AAd?$AAi?$AAs?$AAh?$AA?9?$AAf?$AAi?$AAn?$AAl?$AAa?$AAn?$AAd?$AA?$AA@ 10042030     libucrt:get_qualified_locale.obj
 0002:00007050       ??_C@_1M@PIPDDPPI@?$AAs?$AAw?$AAi?$AAs?$AAs?$AA?$AA@ 10042050     libucrt:get_qualified_locale.obj
 0002:0000705c       ??_C@_15GMFIMNFM@?$AAu?$AAs?$AA?$AA@ 1004205c     libucrt:get_qualified_locale.obj
 0002:00007064       ??_C@_17HAEBFAGL@?$AAu?$AAs?$AAa?$AA?$AA@ 10042064     libucrt:get_qualified_locale.obj
 0002:0000706c       ??_C@_1BA@DPFJEPHB@?$AAa?$AAm?$AAe?$AAr?$AAi?$AAc?$AAa?$AA?$AA@ 1004206c     libucrt:get_qualified_locale.obj
 0002:0000707c       ??_C@_1BA@ELOGGFK@?$AAb?$AAr?$AAi?$AAt?$AAa?$AAi?$AAn?$AA?$AA@ 1004207c     libucrt:get_qualified_locale.obj
 0002:0000708c       ??_C@_1M@GHBGIGDA@?$AAc?$AAh?$AAi?$AAn?$AAa?$AA?$AA@ 1004208c     libucrt:get_qualified_locale.obj
 0002:00007098       ??_C@_1M@NCHEJOPO@?$AAc?$AAz?$AAe?$AAc?$AAh?$AA?$AA@ 10042098     libucrt:get_qualified_locale.obj
 0002:000070a4       ??_C@_1BA@BKPAPBLA@?$AAe?$AAn?$AAg?$AAl?$AAa?$AAn?$AAd?$AA?$AA@ 100420a4     libucrt:get_qualified_locale.obj
 0002:000070b4       ??_C@_1BM@HKBCKIPC@?$AAg?$AAr?$AAe?$AAa?$AAt?$AA?5?$AAb?$AAr?$AAi?$AAt?$AAa?$AAi?$AAn?$AA?$AA@ 100420b4     libucrt:get_qualified_locale.obj
 0002:000070d0       ??_C@_1BA@PPCHPGJB@?$AAh?$AAo?$AAl?$AAl?$AAa?$AAn?$AAd?$AA?$AA@ 100420d0     libucrt:get_qualified_locale.obj
 0002:000070e0       ??_C@_1BE@JBMPEGDG@?$AAh?$AAo?$AAn?$AAg?$AA?9?$AAk?$AAo?$AAn?$AAg?$AA?$AA@ 100420e0     libucrt:get_qualified_locale.obj
 0002:000070f4       ??_C@_1BI@KOELBBPJ@?$AAn?$AAe?$AAw?$AA?9?$AAz?$AAe?$AAa?$AAl?$AAa?$AAn?$AAd?$AA?$AA@ 100420f4     libucrt:get_qualified_locale.obj
 0002:0000710c       ??_C@_15HIEBHAIO@?$AAn?$AAz?$AA?$AA@ 1004210c     libucrt:get_qualified_locale.obj
 0002:00007114       ??_C@_1BC@CHBCPFPI@?$AAp?$AAr?$AA?5?$AAc?$AAh?$AAi?$AAn?$AAa?$AA?$AA@ 10042114     libucrt:get_qualified_locale.obj
 0002:00007128       ??_C@_1BC@JAOIIFKD@?$AAp?$AAr?$AA?9?$AAc?$AAh?$AAi?$AAn?$AAa?$AA?$AA@ 10042128     libucrt:get_qualified_locale.obj
 0002:0000713c       ??_C@_1BI@BEHPPHKC@?$AAp?$AAu?$AAe?$AAr?$AAt?$AAo?$AA?9?$AAr?$AAi?$AAc?$AAo?$AA?$AA@ 1004213c     libucrt:get_qualified_locale.obj
 0002:00007154       ??_C@_1O@PAEOFKDI@?$AAs?$AAl?$AAo?$AAv?$AAa?$AAk?$AA?$AA@ 10042154     libucrt:get_qualified_locale.obj
 0002:00007164       ??_C@_1BK@FIHMCKAM@?$AAs?$AAo?$AAu?$AAt?$AAh?$AA?5?$AAa?$AAf?$AAr?$AAi?$AAc?$AAa?$AA?$AA@ 10042164     libucrt:get_qualified_locale.obj
 0002:00007180       ??_C@_1BI@NAEOODKB@?$AAs?$AAo?$AAu?$AAt?$AAh?$AA?5?$AAk?$AAo?$AAr?$AAe?$AAa?$AA?$AA@ 10042180     libucrt:get_qualified_locale.obj
 0002:00007198       ??_C@_1BK@FBDGGIFF@?$AAs?$AAo?$AAu?$AAt?$AAh?$AA?9?$AAa?$AAf?$AAr?$AAi?$AAc?$AAa?$AA?$AA@ 10042198     libucrt:get_qualified_locale.obj
 0002:000071b4       ??_C@_1BI@GHLEJDPK@?$AAs?$AAo?$AAu?$AAt?$AAh?$AA?9?$AAk?$AAo?$AAr?$AAe?$AAa?$AA?$AA@ 100421b4     libucrt:get_qualified_locale.obj
 0002:000071cc       ??_C@_1CE@PLHLOMJF@?$AAt?$AAr?$AAi?$AAn?$AAi?$AAd?$AAa?$AAd?$AA?5?$AA?$CG?$AA?5?$AAt?$AAo?$AAb?$AAa?$AAg?$AAo?$AA?$AA@ 100421cc     libucrt:get_qualified_locale.obj
 0002:000071f0       ??_C@_1BO@MODIMHHI@?$AAu?$AAn?$AAi?$AAt?$AAe?$AAd?$AA?9?$AAk?$AAi?$AAn?$AAg?$AAd?$AAo?$AAm?$AA?$AA@ 100421f0     libucrt:get_qualified_locale.obj
 0002:00007210       ??_C@_1BM@FFHJONBJ@?$AAu?$AAn?$AAi?$AAt?$AAe?$AAd?$AA?9?$AAs?$AAt?$AAa?$AAt?$AAe?$AAs?$AA?$AA@ 10042210     libucrt:get_qualified_locale.obj
 0002:00007230       ___acrt_rg_language        10042230     libucrt:get_qualified_locale.obj
 0002:0000753c       ___acrt_rg_language_count  1004253c     libucrt:get_qualified_locale.obj
 0002:00007540       ___acrt_rg_country         10042540     libucrt:get_qualified_locale.obj
 0002:00007654       ___acrt_rg_country_count   10042654     libucrt:get_qualified_locale.obj
 0002:00007658       ??_C@_17DNCLJFIF@?$AAA?$AAC?$AAP?$AA?$AA@ 10042658     libucrt:get_qualified_locale.obj
 0002:00007660       ??_C@_17CIKBIHLH@?$AAO?$AAC?$AAP?$AA?$AA@ 10042660     libucrt:get_qualified_locale.obj
 0002:00007668       ___rglangidNotDefault      10042668     libucrt:getqloc_downlevel.obj
 0002:000084c0       ___acrt_pow_rcp_t1         100434c0     libucrt:pow_tables.obj
 0002:000088d0       ___acrt_pow_log2_t1        100438d0     libucrt:pow_tables.obj
 0002:000090e0       ___acrt_pow_rcp_t2         100440e0     libucrt:pow_tables.obj
 0002:000094f0       ___acrt_pow_log2_t2        100444f0     libucrt:pow_tables.obj
 0002:00009d00       ___acrt_pow_rcp_t3         10044d00     libucrt:pow_tables.obj
 0002:0000a510       ___acrt_pow_log2_t3        10045510     libucrt:pow_tables.obj
 0002:0000b520       ___acrt_pow_clv            10046520     libucrt:pow_tables.obj
 0002:0000b540       ___acrt_pow_exp2_tbl       10046540     libucrt:pow_tables.obj
 0002:0000bd98       ??_C@_1BA@BALFACEM@?$AAC?$AAO?$AAN?$AAO?$AAU?$AAT?$AA$?$AA?$AA@ 10046d98     libucrt:initcon.obj
 0002:0000beb0       ___acrt_log10_table_t      10046eb0     libucrt:log10_tables.obj
 0002:0000c2c0       ___acrt_log10_table_cb     100472c0     libucrt:log10_tables.obj
 0002:0000c6d0       ??_C@_1BK@DBDEIDLH@?$AAK?$AAE?$AAR?$AAN?$AAE?$AAL?$AA3?$AA2?$AA?4?$AAD?$AAL?$AAL?$AA?$AA@ 100476d0     DelayImp:delayhlp.obj
 0002:0000c6ec       ___pfnDliFailureHook2      100476ec     DelayImp:delayhk1.obj
 0002:0000c6f0       __load_config_used         100476f0     LIBCMT:loadcfg.obj
 0002:0000c74c       ??_C@_07FLMNHPPG@exports?$AA@ 1004774c     addon.obj
 0002:0000c754       ??_C@_0M@PJKEEBIC@?4?4?2addon?4cc?$AA@ 10047754     addon.obj
 0002:0000c760       ??_C@_08NCKAJOJD@pandamat?$AA@ 10047760     addon.obj
 0002:0000c76c       ??_C@_0BC@BDKFLDHL@unknown?5exception?$AA@ 1004776c     pandamat.obj
 0002:0000c780       ??_C@_0BA@ELKIONDK@bad?5locale?5name?$AA@ 10047780     pandamat.obj
 0002:0000c790       ??_C@_05LAPONLG@false?$AA@ 10047790     pandamat.obj
 0002:0000c798       ??_C@_04LOAJBDKD@true?$AA@ 10047798     pandamat.obj
 0002:0000c79d       ??_C@_00CNPNBAHC@?$AA@     1004779d     pandamat.obj
 0002:0000c7a0       ??_C@_02LMMGGCAJ@?3?5?$AA@ 100477a0     pandamat.obj
 0002:0000c7a4       ??_C@_08LLGCOLLL@iostream?$AA@ 100477a4     pandamat.obj
 0002:0000c7b0       ??_C@_0BG@PADBLCHM@iostream?5stream?5error?$AA@ 100477b0     pandamat.obj
 0002:0000c7c8       ??_C@_0BF@PHHKMMFD@ios_base?3?3badbit?5set?$AA@ 100477c8     pandamat.obj
 0002:0000c7e0       ??_C@_0BG@FMKFHCIL@ios_base?3?3failbit?5set?$AA@ 100477e0     pandamat.obj
 0002:0000c7f8       ??_C@_0BF@OOHOMBOF@ios_base?3?3eofbit?5set?$AA@ 100477f8     pandamat.obj
 0002:0000c810       ??_C@_1II@CJICBGKA@?$AAC?$AA?3?$AA?2?$AAU?$AAs?$AAe?$AAr?$AAs?$AA?2?$AAC?$AAh?$AAu?$AAf?$AAa?$AAn?$AA?4?$AAL?$AAa?$AAi?$AA?2?$AA?4?$AAn?$AAo?$AAd?$AAe?$AA?9?$AAg?$AAy?$AAp?$AA?2?$AA6?$AA?4@ 10047810     pandamat.obj
 0002:0000c898       ??_C@_1DG@OKCGPKIB@?$AAp?$AAe?$AAr?$AAs?$AAi?$AAs?$AAt?$AAe?$AAn?$AAt?$AA?$CI?$AA?$CJ?$AA?4?$AAI?$AAs?$AAN?$AAe?$AAa?$AAr?$AAD?$AAe?$AAa?$AAt?$AAh?$AA?$CI?$AA?$CJ?$AA?$AA@ 10047898     pandamat.obj
 0002:0000c8d0       ??_C@_1CO@EGNPJLKI@?$AAp?$AAe?$AAr?$AAs?$AAi?$AAs?$AAt?$AAe?$AAn?$AAt?$AA?$CI?$AA?$CJ?$AA?4?$AAI?$AAs?$AAE?$AAm?$AAp?$AAt?$AAy?$AA?$CI?$AA?$CJ?$AA?$AA@ 100478d0     pandamat.obj
 0002:0000c900       ??_C@_1EC@NOLNIHNJ@?$AAh?$AAa?$AAn?$AAd?$AAl?$AAe?$AA?9?$AA?$DO?$AAI?$AAn?$AAt?$AAe?$AAr?$AAn?$AAa?$AAl?$AAF?$AAi?$AAe?$AAl?$AAd?$AAC?$AAo?$AAu?$AAn?$AAt?$AA?$CI?$AA?$CJ?$AA?5?$AA?$DO?$AA?5?$AA0@ 10047900     pandamat.obj
 0002:0000c944       ??_C@_1DA@FBGAEOIO@?$AA?$CB?$AAp?$AAe?$AAr?$AAs?$AAi?$AAs?$AAt?$AAe?$AAn?$AAt?$AA?$CI?$AA?$CJ?$AA?4?$AAI?$AAs?$AAE?$AAm?$AAp?$AAt?$AAy?$AA?$CI?$AA?$CJ?$AA?$AA@ 10047944     pandamat.obj
 0002:0000c974       ??_C@_1CO@JCKLEFMA@?$AA?$CB?$AAp?$AAe?$AAr?$AAs?$AAi?$AAs?$AAt?$AAe?$AAn?$AAt?$AA?$CI?$AA?$CJ?$AA?4?$AAI?$AAs?$AAW?$AAe?$AAa?$AAk?$AA?$CI?$AA?$CJ?$AA?$AA@ 10047974     pandamat.obj
 0002:0000c9a4       ??_C@_1BE@GMLLOIPJ@?$AAr?$AAe?$AAf?$AAs?$AA_?$AA?5?$AA?$DO?$AA?5?$AA0?$AA?$AA@ 100479a4     pandamat.obj
 0002:0000c9b8       ??_C@_1CC@GBFLAAPF@?$AAw?$AAr?$AAa?$AAp?$AA?9?$AA?$DO?$AAr?$AAe?$AAf?$AAs?$AA_?$AA?5?$AA?$DN?$AA?$DN?$AA?5?$AA0?$AA?$AA@ 100479b8     pandamat.obj
 0002:0000c9dc       ??_C@_05HDBKIDE@state?$AA@ 100479dc     pandamat.obj
 0002:0000c9e4       ??_C@_07ONPBMBOP@message?$AA@ 100479e4     pandamat.obj
 0002:0000c9ec       ??_C@_06KJFADLGN@result?$AA@ 100479ec     pandamat.obj
 0002:0000c9f4       ??_C@_0BL@INECCCDB@Operation?5command?5missing?$CB?$AA@ 100479f4     pandamat.obj
 0002:0000ca10       ??_C@_0BI@NIMMHLGP@Variable?5names?5missing?$CB?$AA@ 10047a10     pandamat.obj
 0002:0000ca28       ??_C@_05OAKNMNI@equal?$AA@ 10047a28     pandamat.obj
 0002:0000ca30       ??_C@_0O@OABNDIFK@Data?5missing?$CB?$AA@ 10047a30     pandamat.obj
 0002:0000ca40       ??_C@_0BH@KJFGNFAB@Variable?5name?5missing?$CB?$AA@ 10047a40     pandamat.obj
 0002:0000ca58       ??_C@_08PAGDLDAO@PandaMat?$AA@ 10047a58     pandamat.obj
 0002:0000ca64       ??_C@_03HNAFFKGA@get?$AA@  10047a64     pandamat.obj
 0002:0000ca68       ??_C@_04EMMDIJJL@save?$AA@ 10047a68     pandamat.obj
 0002:0000ca70       ??_C@_06LEMKAMD@remove?$AA@ 10047a70     pandamat.obj
 0002:0000ca78       ??_C@_07GMLNKAOE@operate?$AA@ 10047a78     pandamat.obj
 0002:0000ca80       ??_C@_02BBAHNLBA@?$CFp?$AA@ 10047a80     pandamat.obj
 0002:0000ca84       ??_C@_02CLHGNPPK@Lu?$AA@   10047a84     pandamat.obj
 0002:0000ca88       ??_C@_02HIKPPMOK@Ld?$AA@   10047a88     pandamat.obj
 0002:0000ca8c       ??_C@_02BDDLJJBK@lu?$AA@   10047a8c     pandamat.obj
 0002:0000ca90       ??_C@_02EAOCLKAK@ld?$AA@   10047a90     pandamat.obj
 0002:0000ca94       ??_C@_02MDKMJEGG@eE?$AA@   10047a94     pandamat.obj
 0002:0000ca98       ??_C@_02OOPEBDOJ@pP?$AA@   10047a98     pandamat.obj
 0002:0000ca9c       ??_C@_0BA@JFNIOLAK@string?5too?5long?$AA@ 10047a9c     pandamat.obj
 0002:0000caac       ??_C@_0BI@CFPLBAOH@invalid?5string?5position?$AA@ 10047aac     pandamat.obj
 0002:0000cac4       ??_C@_1CE@IAEMMFJ@?$AA?$CB?$AAh?$AAa?$AAn?$AAd?$AAl?$AAe?$AA?4?$AAI?$AAs?$AAE?$AAm?$AAp?$AAt?$AAy?$AA?$CI?$AA?$CJ?$AA?$AA@ 10047ac4     pandamat.obj
 0002:0000cae8       ??_7ObjectWrap@node@@6B@   10047ae8     pandamat.obj
 0002:0000caf4       ??_7PandaMat@@6B@          10047af4     pandamat.obj
 0002:0000cb00       ??_7?$basic_ostringstream@DU?$char_traits@D@std@@V?$allocator@D@2@@std@@6B@ 10047b00     pandamat.obj
 0002:0000cb04       ??_7exception@stdext@@6B@  10047b04     pandamat.obj
 0002:0000cb10       ??_7?$basic_stringbuf@DU?$char_traits@D@std@@V?$allocator@D@2@@std@@6B@ 10047b10     pandamat.obj
 0002:0000cb4c       ??_8?$basic_ostream@DU?$char_traits@D@std@@@std@@7B@ 10047b4c     pandamat.obj
 0002:0000cb54       ??_8?$basic_ostringstream@DU?$char_traits@D@std@@V?$allocator@D@2@@std@@7B@ 10047b54     pandamat.obj
 0002:0000cb5c       ??_7bad_alloc@stdext@@6B@  10047b5c     pandapool.obj
 0002:0000cb6c       ___pfnDliNotifyHook2       10047b6c     win_delay_load_hook.obj
 0002:0000cb70       ??_C@_0P@GHFPNOJB@bad?5allocation?$AA@ 10047b70     pandapool.obj
 0002:0000cb80       ??_C@_08HANHBGDP@Success?$CB?$AA@ 10047b80     pandapool.obj
 0002:0000cb8c       ??_C@_0N@IHMEPOD@Type?5error?3?5?$AA@ 10047b8c     pandapool.obj
 0002:0000cb9c       ??_C@_0BC@MOMNOEFH@Operation?5error?3?5?$AA@ 10047b9c     pandapool.obj
 0002:0000cbb0       ??_C@_0BC@MGMJEGEG@Parameter?5error?3?5?$AA@ 10047bb0     pandapool.obj
 0002:0000cbc4       ??_C@_0BA@FICOIBAG@Command?5error?3?5?$AA@ 10047bc4     pandapool.obj
 0002:0000cbd4       ??_C@_0M@NJKKOEO@NaN?5error?3?5?$AA@ 10047bd4     pandapool.obj
 0002:0000cbe0       ??_C@_0BA@DKMDJDHF@Unknown?5error?3?5?$AA@ 10047be0     pandapool.obj
 0002:0000cbf0       ??_C@_0BI@IGCKDAEF@Unrecognized?5data?5type?$CB?$AA@ 10047bf0     pandapool.obj
 0002:0000cc08       ??_C@_09OPEKKBKJ@?5missing?$CB?$AA@ 10047c08     pandapool.obj
 0002:0000cc14       ??_C@_09JJAOPGLK@Variable?5?$AA@ 10047c14     pandapool.obj
 0002:0000cc20       ??_C@_0BA@IMENMNBE@Result?5missing?$CB?$AA@ 10047c20     pandapool.obj
 0002:0000cc30       ??_C@_0M@NCCCKNOE@?5not?5found?$CB?$AA@ 10047c30     pandapool.obj
 0002:0000cc3c       ??_C@_03ELNIMDKD@?8?8?5?$AA@ 10047c3c     pandapool.obj
 0002:0000cc40       ??_C@_0BI@KPGGPIPI@Wrong?5parameter?5type?3?5?8?$AA@ 10047c40     pandapool.obj
 0002:0000cc58       ??_C@_0BD@GEDEFJPM@?$CJ?5is?5not?5a?5number?$CB?$AA@ 10047c58     pandapool.obj
 0002:0000cc6c       ??_C@_02KEGNLNML@?0?5?$AA@ 10047c6c     pandapool.obj
 0002:0000cc70       ??_C@_09FDKNCCGD@Element?5?$CI?$AA@ 10047c70     pandapool.obj
 0002:0000cc7c       ??_C@_0BG@BBKNOMOH@invalid?5map?$DMK?0?5T?$DO?5key?$AA@ 10047c7c     pandapool.obj
 0002:0000cc94       ??_C@_0CF@BEKENCOP@Mat?3?3operator?$CI?$CJ?3?5index?5out?5of?5bo@ 10047c94     pandapool.obj
 0002:0000ccbc       ??_C@_08EPOCGOLH@?6error?3?5?$AA@ 10047cbc     pandapool.obj
 0002:0000ccc8       ??_C@_0GF@OEEMAJG@Mat?3?3init?$CI?$CJ?3?5requested?5size?5is?5t@ 10047cc8     pandapool.obj
 0002:0000cd30       ??_C@_0DH@GLEADCBI@Mat?3?3init?$CI?$CJ?3?5size?5is?5fixed?5and?5h@ 10047d30     pandapool.obj
 0002:0000cd68       ??_C@_0EI@BGDFEIGH@Mat?3?3init?$CI?$CJ?3?5requested?5size?5is?5n@ 10047d68     pandapool.obj
 0002:0000cdb0       ??_C@_0EF@PNLFGPIP@Mat?3?3init?$CI?$CJ?3?5requested?5size?5is?5n@ 10047db0     pandapool.obj
 0002:0000cdf8       ??_C@_0EK@KPIONPMN@Mat?3?3init?$CI?$CJ?3?5mismatch?5between?5si@ 10047df8     pandapool.obj
 0002:0000ce44       ??_C@_0DF@FKAMDGGG@arma?3?3memory?3?3acquire?$CI?$CJ?3?5request@ 10047e44     pandapool.obj
 0002:0000ce7c       ??_C@_0CH@KGHOBGAB@arma?3?3memory?3?3acquire?$CI?$CJ?3?5out?5of?5@ 10047e7c     pandapool.obj
 0002:0000cea4       ??_C@_0BE@JONHPENG@map?1set?$DMT?$DO?5too?5long?$AA@ 10047ea4     pandapool.obj
 0002:0000ceb8       ??_C@_03BDGOHNNK@add?$AA@  10047eb8     opercollection.obj
 0002:0000cebc       ??_C@_03GCCHHAFI@dot?$AA@  10047ebc     opercollection.obj
 0002:0000cec0       ??_C@_05JIFNPOFN@trans?$AA@ 10047ec0     opercollection.obj
 0002:0000cec8       ??_C@_09MMDNNKKJ@normalize?$AA@ 10047ec8     opercollection.obj
 0002:0000ced4       ??_C@_08KNNPCHGB@sqrtDist?$AA@ 10047ed4     opercollection.obj
 0002:0000cee0       ??_C@_0BD@KPIMGLPF@Command?5not?5found?$CB?$AA@ 10047ee0     opercollection.obj
 0002:0000cef4       ??_7Transpose@@6B@         10047ef4     opercollection.obj
 0002:0000cef8       ??_7Add@@6B@               10047ef8     opercollection.obj
 0002:0000cefc       ??_7SqrtDist@@6B@          10047efc     opercollection.obj
 0002:0000cf00       ??_7Dot@@6B@               10047f00     opercollection.obj
 0002:0000cf04       ??_7Operation@@6B@         10047f04     opercollection.obj
 0002:0000cf08       ??_7Normalize@@6B@         10047f08     opercollection.obj
 0002:0000cf0c       ??_C@_0BC@BKOGNEGN@Variable?5missing?$CB?$AA@ 10047f0c     operationdata.obj
 0002:0000cf20       ??_C@_0BL@IPJACLBB@Mismatched?5parameter?5type?$CB?$AA@ 10047f20     operationdata.obj
 0002:0000cf3c       ??_C@_0BF@HELDCGBM@operation?5not?5found?$CB?$AA@ 10047f3c     operation.obj
 0002:0000cf54       ??_C@_08KEMENCCB@addition?$AA@ 10047f54     add.obj
 0002:0000cf60       ??_C@_05OMGAMCPJ@?5and?5?$AA@ 10047f60     add.obj
 0002:0000cf68       ??_C@_0CD@IDHHKHIP@?3?5incompatible?5matrix?5dimensions@ 10047f68     add.obj
 0002:0000cf8c       ??_C@_0CA@MMGLJDIP@Matrices?5are?5in?5different?5size?$CB?$AA@ 10047f8c     add.obj
 0002:0000cfac       ??_8?$basic_stringstream@DU?$char_traits@D@std@@V?$allocator@D@2@@std@@7B?$basic_ostream@DU?$char_traits@D@std@@@1@@ 10047fac     add.obj
 0002:0000cfb4       ??_7?$basic_iostream@DU?$char_traits@D@std@@@std@@6B@ 10047fb4     add.obj
 0002:0000cfb8       ??_7?$basic_stringstream@DU?$char_traits@D@std@@V?$allocator@D@2@@std@@6B@ 10047fb8     add.obj
 0002:0000cfbc       ??_7?$basic_istream@DU?$char_traits@D@std@@@std@@6B@ 10047fbc     add.obj
 0002:0000cfc0       ??_8?$basic_stringstream@DU?$char_traits@D@std@@V?$allocator@D@2@@std@@7B?$basic_istream@DU?$char_traits@D@std@@@1@@ 10047fc0     add.obj
 0002:0000cfc8       ??_C@_0BJ@HKHFFDD@Matrices?5are?5mismatched?$CB?$AA@ 10047fc8     dot.obj
 0002:0000cfe4       ??_C@_0BG@FMJNJBDO@matrix?5multiplication?$AA@ 10047fe4     dot.obj
 0002:0000cffc       ??_C@_0M@JPILEKEL@subtraction?$AA@ 10047ffc     normalize.obj
 0002:0000d008       ??_C@_0CH@KBFOGKHP@mean?$CI?$CJ?3?5parameter?5?8dim?8?5must?5be?5@ 10048008     normalize.obj
 0002:0000d030       ??_C@_0DF@OGGCEJON@normalise?$CI?$CJ?3?5parameter?5?8p?8?5must?5@ 10048030     normalize.obj
 0002:0000d068       ??_C@_0CM@MKDOAAJB@normalise?$CI?$CJ?3?5parameter?5?8dim?8?5mus@ 10048068     normalize.obj
 0002:0000d094       ??_C@_0CA@MODCLBAF@Mat?3?3row?$CI?$CJ?3?5index?5out?5of?5bounds?$AA@ 10048094     normalize.obj
 0002:0000d0b4       ??_C@_0CA@LPDLADJL@Mat?3?3col?$CI?$CJ?3?5index?5out?5of?5bounds?$AA@ 100480b4     normalize.obj
 0002:0000d0d4       ??_C@_0CE@NFILOOB@norm?$CI?$CJ?3?5k?5must?5be?5greater?5than?5z@ 100480d4     normalize.obj
 0002:0000d0f8       ??_C@_0BE@CHBFFBAB@copy?5into?5submatrix?$AA@ 100480f8     normalize.obj
 0002:0000d10c       ??_C@_08HCOMDCCD@iojs?4exe?$AA@ 1004810c     win_delay_load_hook.obj
 0002:0000d118       ??_C@_08JDDNMFDB@node?4exe?$AA@ 10048118     win_delay_load_hook.obj
 0002:0000d128       __real@0000000000000000    10048128     normalize.obj
 0002:0000d130       __real@3fe0000000000000    10048130     sqrtdist.obj
 0002:0000d138       __real@3ff0000000000000    10048138     dot.obj
 0002:0000d140       __real@41efffffffe00000    10048140     pandapool.obj
 0002:0000d148       __real@4202a05f20000000    10048148     pandamat.obj
 0002:0000d150       __real@7fefffffffffffff    10048150     normalize.obj
 0002:0000d158       __real@ffefffffffffffff    10048158     normalize.obj
 0002:0000d160       __real@fff0000000000000    10048160     normalize.obj
 0002:0000d170       __xmm@41f00000000000000000000000000000 10048170     normalize.obj
 0002:0000d180       __xmm@7fffffffffffffff7fffffffffffffff 10048180     dot.obj
 0002:0000d340       ___acrt_log_table_b        10048340     libucrt:log_tables.obj
 0002:0000d750       ___acrt_log_table_t        10048750     libucrt:log_tables.obj
 0002:0000dca4       __tls_used                 10048ca4     LIBCMT:tlssup.obj
 0002:0000dcbc       ??_R4exception@std@@6B@    10048cbc     libcpmt:cout.obj
 0002:0000dcd0       ??_R3exception@std@@8      10048cd0     libcpmt:cout.obj
 0002:0000dce0       ??_R2exception@std@@8      10048ce0     libcpmt:cout.obj
 0002:0000dce8       ??_R1A@?0A@EA@exception@std@@8 10048ce8     libcpmt:cout.obj
 0002:0000dd04       ??_R4ios_base@std@@6B@     10048d04     libcpmt:cout.obj
 0002:0000dd18       ??_R3ios_base@std@@8       10048d18     libcpmt:cout.obj
 0002:0000dd28       ??_R2ios_base@std@@8       10048d28     libcpmt:cout.obj
 0002:0000dd34       ??_R1A@?0A@EA@ios_base@std@@8 10048d34     libcpmt:cout.obj
 0002:0000dd50       ??_R17?0A@EA@?$_Iosb@H@std@@8 10048d50     libcpmt:cout.obj
 0002:0000dd6c       ??_R3?$_Iosb@H@std@@8      10048d6c     libcpmt:cout.obj
 0002:0000dd7c       ??_R2?$_Iosb@H@std@@8      10048d7c     libcpmt:cout.obj
 0002:0000dd84       ??_R1A@?0A@EA@?$_Iosb@H@std@@8 10048d84     libcpmt:cout.obj
 0002:0000dda0       ??_R4?$basic_ios@DU?$char_traits@D@std@@@std@@6B@ 10048da0     libcpmt:cout.obj
 0002:0000ddb4       ??_R3?$basic_ios@DU?$char_traits@D@std@@@std@@8 10048db4     libcpmt:cout.obj
 0002:0000ddc4       ??_R2?$basic_ios@DU?$char_traits@D@std@@@std@@8 10048dc4     libcpmt:cout.obj
 0002:0000ddd4       ??_R1A@?0A@EA@?$basic_ios@DU?$char_traits@D@std@@@std@@8 10048dd4     libcpmt:cout.obj
 0002:0000ddf0       ??_R4?$basic_streambuf@DU?$char_traits@D@std@@@std@@6B@ 10048df0     libcpmt:cout.obj
 0002:0000de04       ??_R3?$basic_streambuf@DU?$char_traits@D@std@@@std@@8 10048e04     libcpmt:cout.obj
 0002:0000de14       ??_R2?$basic_streambuf@DU?$char_traits@D@std@@@std@@8 10048e14     libcpmt:cout.obj
 0002:0000de1c       ??_R1A@?0A@EA@?$basic_streambuf@DU?$char_traits@D@std@@@std@@8 10048e1c     libcpmt:cout.obj
 0002:0000de38       ??_R1A@A@3FA@?$basic_ios@DU?$char_traits@D@std@@@std@@8 10048e38     libcpmt:cout.obj
 0002:0000de54       ??_R1A@A@3EA@ios_base@std@@8 10048e54     libcpmt:cout.obj
 0002:0000de70       ??_R17A@3EA@?$_Iosb@H@std@@8 10048e70     libcpmt:cout.obj
 0002:0000de8c       ??_R4?$basic_ostream@DU?$char_traits@D@std@@@std@@6B@ 10048e8c     libcpmt:cout.obj
 0002:0000dea0       ??_R3?$basic_ostream@DU?$char_traits@D@std@@@std@@8 10048ea0     libcpmt:cout.obj
 0002:0000deb0       ??_R2?$basic_ostream@DU?$char_traits@D@std@@@std@@8 10048eb0     libcpmt:cout.obj
 0002:0000dec4       ??_R1A@?0A@EA@?$basic_ostream@DU?$char_traits@D@std@@@std@@8 10048ec4     libcpmt:cout.obj
 0002:0000dee0       ??_R4?$basic_filebuf@DU?$char_traits@D@std@@@std@@6B@ 10048ee0     libcpmt:cout.obj
 0002:0000def4       ??_R3?$basic_filebuf@DU?$char_traits@D@std@@@std@@8 10048ef4     libcpmt:cout.obj
 0002:0000df04       ??_R2?$basic_filebuf@DU?$char_traits@D@std@@@std@@8 10048f04     libcpmt:cout.obj
 0002:0000df10       ??_R1A@?0A@EA@?$basic_filebuf@DU?$char_traits@D@std@@@std@@8 10048f10     libcpmt:cout.obj
 0002:0000df2c       ??_R4runtime_error@std@@6B@ 10048f2c     libcpmt:cout.obj
 0002:0000df40       ??_R3runtime_error@std@@8  10048f40     libcpmt:cout.obj
 0002:0000df50       ??_R2runtime_error@std@@8  10048f50     libcpmt:cout.obj
 0002:0000df5c       ??_R1A@?0A@EA@runtime_error@std@@8 10048f5c     libcpmt:cout.obj
 0002:0000df78       ??_R4bad_cast@std@@6B@     10048f78     libcpmt:cout.obj
 0002:0000df8c       ??_R3bad_cast@std@@8       10048f8c     libcpmt:cout.obj
 0002:0000df9c       ??_R2bad_cast@std@@8       10048f9c     libcpmt:cout.obj
 0002:0000dfa8       ??_R1A@?0A@EA@bad_cast@std@@8 10048fa8     libcpmt:cout.obj
 0002:0000dfc4       ??_R4_Facet_base@std@@6B@  10048fc4     libcpmt:cout.obj
 0002:0000dfd8       ??_R3_Facet_base@std@@8    10048fd8     libcpmt:cout.obj
 0002:0000dfe8       ??_R2_Facet_base@std@@8    10048fe8     libcpmt:cout.obj
 0002:0000dff0       ??_R1A@?0A@EA@_Facet_base@std@@8 10048ff0     libcpmt:cout.obj
 0002:0000e00c       ??_R1A@?0A@EA@facet@locale@std@@8 1004900c     libcpmt:cout.obj
 0002:0000e028       ??_R3facet@locale@std@@8   10049028     libcpmt:cout.obj
 0002:0000e038       ??_R2facet@locale@std@@8   10049038     libcpmt:cout.obj
 0002:0000e048       ??_R13?0A@EA@_Crt_new_delete@std@@8 10049048     libcpmt:cout.obj
 0002:0000e064       ??_R3_Crt_new_delete@std@@8 10049064     libcpmt:cout.obj
 0002:0000e074       ??_R2_Crt_new_delete@std@@8 10049074     libcpmt:cout.obj
 0002:0000e07c       ??_R1A@?0A@EA@_Crt_new_delete@std@@8 1004907c     libcpmt:cout.obj
 0002:0000e098       ??_R3codecvt_base@std@@8   10049098     libcpmt:cout.obj
 0002:0000e0a8       ??_R2codecvt_base@std@@8   100490a8     libcpmt:cout.obj
 0002:0000e0bc       ??_R1A@?0A@EA@codecvt_base@std@@8 100490bc     libcpmt:cout.obj
 0002:0000e0d8       ??_R3ctype_base@std@@8     100490d8     libcpmt:cout.obj
 0002:0000e0e8       ??_R2ctype_base@std@@8     100490e8     libcpmt:cout.obj
 0002:0000e0fc       ??_R1A@?0A@EA@ctype_base@std@@8 100490fc     libcpmt:cout.obj
 0002:0000e118       ??_R4?$ctype@D@std@@6B@    10049118     libcpmt:cout.obj
 0002:0000e12c       ??_R3?$ctype@D@std@@8      1004912c     libcpmt:cout.obj
 0002:0000e13c       ??_R2?$ctype@D@std@@8      1004913c     libcpmt:cout.obj
 0002:0000e154       ??_R1A@?0A@EA@?$ctype@D@std@@8 10049154     libcpmt:cout.obj
 0002:0000e170       ??_R4error_category@std@@6B@ 10049170     libcpmt:cout.obj
 0002:0000e184       ??_R3error_category@std@@8 10049184     libcpmt:cout.obj
 0002:0000e194       ??_R2error_category@std@@8 10049194     libcpmt:cout.obj
 0002:0000e19c       ??_R1A@?0A@EA@error_category@std@@8 1004919c     libcpmt:cout.obj
 0002:0000e1b8       ??_R4_System_error@std@@6B@ 100491b8     libcpmt:cout.obj
 0002:0000e1cc       ??_R3_System_error@std@@8  100491cc     libcpmt:cout.obj
 0002:0000e1dc       ??_R2_System_error@std@@8  100491dc     libcpmt:cout.obj
 0002:0000e1ec       ??_R1A@?0A@EA@_System_error@std@@8 100491ec     libcpmt:cout.obj
 0002:0000e208       ??_R4system_error@std@@6B@ 10049208     libcpmt:cout.obj
 0002:0000e21c       ??_R3system_error@std@@8   1004921c     libcpmt:cout.obj
 0002:0000e22c       ??_R2system_error@std@@8   1004922c     libcpmt:cout.obj
 0002:0000e240       ??_R1A@?0A@EA@system_error@std@@8 10049240     libcpmt:cout.obj
 0002:0000e25c       ??_R3_Generic_error_category@std@@8 1004925c     libcpmt:cout.obj
 0002:0000e26c       ??_R2_Generic_error_category@std@@8 1004926c     libcpmt:cout.obj
 0002:0000e278       ??_R1A@?0A@EA@_Generic_error_category@std@@8 10049278     libcpmt:cout.obj
 0002:0000e294       ??_R4_Iostream_error_category@std@@6B@ 10049294     libcpmt:cout.obj
 0002:0000e2a8       ??_R3_Iostream_error_category@std@@8 100492a8     libcpmt:cout.obj
 0002:0000e2b8       ??_R2_Iostream_error_category@std@@8 100492b8     libcpmt:cout.obj
 0002:0000e2c8       ??_R1A@?0A@EA@_Iostream_error_category@std@@8 100492c8     libcpmt:cout.obj
 0002:0000e2e4       ??_R4failure@ios_base@std@@6B@ 100492e4     libcpmt:cout.obj
 0002:0000e2f8       ??_R3failure@ios_base@std@@8 100492f8     libcpmt:cout.obj
 0002:0000e308       ??_R2failure@ios_base@std@@8 10049308     libcpmt:cout.obj
 0002:0000e320       ??_R1A@?0A@EA@failure@ios_base@std@@8 10049320     libcpmt:cout.obj
 0002:0000e33c       ??_R4?$codecvt@DDU_Mbstatet@@@std@@6B@ 1004933c     libcpmt:cout.obj
 0002:0000e350       ??_R3?$codecvt@DDU_Mbstatet@@@std@@8 10049350     libcpmt:cout.obj
 0002:0000e360       ??_R2?$codecvt@DDU_Mbstatet@@@std@@8 10049360     libcpmt:cout.obj
 0002:0000e378       ??_R1A@?0A@EA@?$codecvt@DDU_Mbstatet@@@std@@8 10049378     libcpmt:cout.obj
 0002:0000e394       ??_R4_Locimp@locale@std@@6B@ 10049394     libcpmt:locale0.obj
 0002:0000e3a8       ??_R3_Locimp@locale@std@@8 100493a8     libcpmt:locale0.obj
 0002:0000e3b8       ??_R2_Locimp@locale@std@@8 100493b8     libcpmt:locale0.obj
 0002:0000e3cc       ??_R1A@?0A@EA@_Locimp@locale@std@@8 100493cc     libcpmt:locale0.obj
 0002:0000e3e8       ??_R4bad_alloc@std@@6B@    100493e8     libcpmt:xthrow.obj
 0002:0000e3fc       ??_R3bad_alloc@std@@8      100493fc     libcpmt:xthrow.obj
 0002:0000e40c       ??_R2bad_alloc@std@@8      1004940c     libcpmt:xthrow.obj
 0002:0000e418       ??_R1A@?0A@EA@bad_alloc@std@@8 10049418     libcpmt:xthrow.obj
 0002:0000e434       ??_R4logic_error@std@@6B@  10049434     libcpmt:xthrow.obj
 0002:0000e448       ??_R3logic_error@std@@8    10049448     libcpmt:xthrow.obj
 0002:0000e458       ??_R2logic_error@std@@8    10049458     libcpmt:xthrow.obj
 0002:0000e464       ??_R1A@?0A@EA@logic_error@std@@8 10049464     libcpmt:xthrow.obj
 0002:0000e480       ??_R4length_error@std@@6B@ 10049480     libcpmt:xthrow.obj
 0002:0000e494       ??_R3length_error@std@@8   10049494     libcpmt:xthrow.obj
 0002:0000e4a4       ??_R2length_error@std@@8   100494a4     libcpmt:xthrow.obj
 0002:0000e4b4       ??_R1A@?0A@EA@length_error@std@@8 100494b4     libcpmt:xthrow.obj
 0002:0000e4d0       ??_R4out_of_range@std@@6B@ 100494d0     libcpmt:xthrow.obj
 0002:0000e4e4       ??_R3out_of_range@std@@8   100494e4     libcpmt:xthrow.obj
 0002:0000e4f4       ??_R2out_of_range@std@@8   100494f4     libcpmt:xthrow.obj
 0002:0000e504       ??_R1A@?0A@EA@out_of_range@std@@8 10049504     libcpmt:xthrow.obj
 0002:0000e520       ??_R4?$num_put@DV?$ostreambuf_iterator@DU?$char_traits@D@std@@@std@@@std@@6B@ 10049520     libcpmt:locale.obj
 0002:0000e534       ??_R3?$num_put@DV?$ostreambuf_iterator@DU?$char_traits@D@std@@@std@@@std@@8 10049534     libcpmt:locale.obj
 0002:0000e544       ??_R2?$num_put@DV?$ostreambuf_iterator@DU?$char_traits@D@std@@@std@@@std@@8 10049544     libcpmt:locale.obj
 0002:0000e558       ??_R1A@?0A@EA@?$num_put@DV?$ostreambuf_iterator@DU?$char_traits@D@std@@@std@@@std@@8 10049558     libcpmt:locale.obj
 0002:0000e574       ??_R4?$numpunct@D@std@@6B@ 10049574     libcpmt:locale.obj
 0002:0000e588       ??_R3?$numpunct@D@std@@8   10049588     libcpmt:locale.obj
 0002:0000e598       ??_R2?$numpunct@D@std@@8   10049598     libcpmt:locale.obj
 0002:0000e5ac       ??_R1A@?0A@EA@?$numpunct@D@std@@8 100495ac     libcpmt:locale.obj
 0002:0000e5c8       ??_R4type_info@@6B@        100495c8     LIBCMT:std_type_info_static.obj
 0002:0000e5dc       ??_R3type_info@@8          100495dc     LIBCMT:std_type_info_static.obj
 0002:0000e5ec       ??_R2type_info@@8          100495ec     LIBCMT:std_type_info_static.obj
 0002:0000e5f4       ??_R1A@?0A@EA@type_info@@8 100495f4     LIBCMT:std_type_info_static.obj
 0002:0000e610       ??_R4bad_array_new_length@std@@6B@ 10049610     LIBCMT:throw_bad_alloc.obj
 0002:0000e624       ??_R3bad_array_new_length@std@@8 10049624     LIBCMT:throw_bad_alloc.obj
 0002:0000e634       ??_R2bad_array_new_length@std@@8 10049634     LIBCMT:throw_bad_alloc.obj
 0002:0000e644       ??_R1A@?0A@EA@bad_array_new_length@std@@8 10049644     LIBCMT:throw_bad_alloc.obj
 0002:0000e660       ??_R4bad_exception@std@@6B@ 10049660     libvcruntime:frame.obj
 0002:0000e674       ??_R3bad_exception@std@@8  10049674     libvcruntime:frame.obj
 0002:0000e684       ??_R2bad_exception@std@@8  10049684     libvcruntime:frame.obj
 0002:0000e690       ??_R1A@?0A@EA@bad_exception@std@@8 10049690     libvcruntime:frame.obj
 0002:0000e6b0       ___safe_se_handler_table   100496b0     <linker-defined>
 0002:0000ed1c       ___rtc_iaa                 10049d1c     LIBCMT:_initsect_.obj
 0002:0000ed20       ___rtc_izz                 10049d20     LIBCMT:_initsect_.obj
 0002:0000ed24       ___rtc_taa                 10049d24     LIBCMT:_initsect_.obj
 0002:0000ed28       ___rtc_tzz                 10049d28     LIBCMT:_initsect_.obj
 0002:00010a18       __CT??_R0?AVexception@std@@@8??0exception@std@@QAE@ABV01@@Z12 1004ba18     libcpmt:cout.obj
 0002:00010a34       __TI2?AVbad_cast@std@@     1004ba34     libcpmt:cout.obj
 0002:00010a44       __CTA2?AVbad_cast@std@@    1004ba44     libcpmt:cout.obj
 0002:00010a50       __CT??_R0?AVbad_cast@std@@@8??0bad_cast@std@@QAE@ABV01@@Z12 1004ba50     libcpmt:cout.obj
 0002:00010ac4       __TI2?AVbad_alloc@std@@    1004bac4     libcpmt:xthrow.obj
 0002:00010ad4       __CTA2?AVbad_alloc@std@@   1004bad4     libcpmt:xthrow.obj
 0002:00010ae0       __CT??_R0?AVbad_alloc@std@@@8??0bad_alloc@std@@QAE@ABV01@@Z12 1004bae0     libcpmt:xthrow.obj
 0002:00010afc       __CT??_R0?AVlogic_error@std@@@8??0logic_error@std@@QAE@ABV01@@Z12 1004bafc     libcpmt:xthrow.obj
 0002:00010b18       __TI3?AVlength_error@std@@ 1004bb18     libcpmt:xthrow.obj
 0002:00010b28       __CTA3?AVlength_error@std@@ 1004bb28     libcpmt:xthrow.obj
 0002:00010b38       __CT??_R0?AVlength_error@std@@@8??0length_error@std@@QAE@ABV01@@Z12 1004bb38     libcpmt:xthrow.obj
 0002:00010b54       __TI3?AVout_of_range@std@@ 1004bb54     libcpmt:xthrow.obj
 0002:00010b64       __CTA3?AVout_of_range@std@@ 1004bb64     libcpmt:xthrow.obj
 0002:00010b74       __CT??_R0?AVout_of_range@std@@@8??0out_of_range@std@@QAE@ABV01@@Z12 1004bb74     libcpmt:xthrow.obj
 0002:00010c0c       __TI3?AVbad_array_new_length@std@@ 1004bc0c     LIBCMT:throw_bad_alloc.obj
 0002:00010c1c       __CTA3?AVbad_array_new_length@std@@ 1004bc1c     LIBCMT:throw_bad_alloc.obj
 0002:00010c2c       __CT??_R0?AVbad_array_new_length@std@@@8??0bad_array_new_length@std@@QAE@ABV01@@Z12 1004bc2c     LIBCMT:throw_bad_alloc.obj
 0002:00010d4c       __TI2?AVbad_exception@std@@ 1004bd4c     libvcruntime:frame.obj
 0002:00010d5c       __CTA2?AVbad_exception@std@@ 1004bd5c     libvcruntime:frame.obj
 0002:00010d68       __CT??_R0?AVbad_exception@std@@@8??0bad_exception@std@@QAE@ABV01@@Z12 1004bd68     libvcruntime:frame.obj
 0002:00011274       __TI1?AW4exceptions@@      1004c274     pandamat.obj
 0002:00011284       __CTA1?AW4exceptions@@     1004c284     pandamat.obj
 0002:0001128c       __CT??_R0?AW4exceptions@@@84 1004c28c     pandamat.obj
 0002:000112a8       __CT??_R0?AVexception@stdext@@@8??0exception@stdext@@QAE@ABV01@@Z8 1004c2a8     pandapool.obj
 0002:000112c4       __CTA2?AVbad_alloc@stdext@@ 1004c2c4     pandapool.obj
 0002:000112d0       __TI2?AVbad_alloc@stdext@@ 1004c2d0     pandapool.obj
 0002:000112e0       __TI2?AVlogic_error@std@@  1004c2e0     pandapool.obj
 0002:000112f0       __CT??_R0?AVbad_alloc@stdext@@@8??0bad_alloc@stdext@@QAE@ABV01@@Z8 1004c2f0     pandapool.obj
 0002:0001130c       __CTA2?AVlogic_error@std@@ 1004c30c     pandapool.obj
 0002:00011318       __CT??_R0?AVlogic_error@std@@@8??0logic_error@std@@QAE@ABV01@@Z8 1004c318     pandapool.obj
 0002:00011334       __DELAY_IMPORT_DESCRIPTOR_node_exe 1004c334     node:node.exe
 0002:00011354       __NULL_DELAY_IMPORT_DESCRIPTOR 1004c354     node:node.exe
 0002:00011420       \177node_NULL_THUNK_DATA_DLN 1004c420     node:node.exe
 0002:00011e30       \177node_NULL_THUNK_DATA_DLB 1004ce30     node:node.exe
 0002:00011f34       __IMPORT_DESCRIPTOR_KERNEL32 1004cf34     kernel32:KERNEL32.dll
 0002:00011f48       __NULL_IMPORT_DESCRIPTOR   1004cf48     kernel32:KERNEL32.dll
 0003:00000004       ?_Sync@ios_base@std@@0_NA  1004e004     libcpmt:ios.obj
 0003:00000010       ?_PJP_CPP_Copyright@@3PADA 1004e010     libcpmt:iosptrs.obj
 0003:00000064       __Init_global_epoch        1004e064     LIBCMT:thread_safe_statics.obj
 0003:00000068       ___scrt_native_dllmain_reason 1004e068     LIBCMT:utility.obj
 0003:0000006c       ___security_cookie_complement 1004e06c     LIBCMT:gs_cookie.obj
 0003:00000070       ___security_cookie         1004e070     LIBCMT:gs_cookie.obj
 0003:00000074       __fltused                  1004e074     LIBCMT:fltused.obj
 0003:00000080       ___isa_enabled             1004e080     LIBCMT:_cpu_disp_.obj
 0003:000000a0       __NLG_Destination          1004e0a0     libvcruntime:_exsup_.obj
 0003:000000b0       ___abort_behavior          1004e0b0     libucrt:abort.obj
 0003:000000c0       ___acrt_lconv_static_decimal 1004e0c0     libucrt:localeconv.obj
 0003:000000c4       ___acrt_lconv_static_W_decimal 1004e0c4     libucrt:localeconv.obj
 0003:000000c8       ___acrt_lconv_c            1004e0c8     libucrt:localeconv.obj
 0003:00000118       ___acrt_lconv              1004e118     libucrt:localeconv.obj
 0003:00000128       __iob                      1004e128     libucrt:_file.obj
 0003:000001d0       __pctype                   1004e1d0     libucrt:ctype.obj
 0003:000001d4       __pwctype                  1004e1d4     libucrt:ctype.obj
 0003:000001e8       ___mb_cur_max              1004e1e8     libucrt:nlsdata.obj
 0003:000001f0       ___acrt_initial_locale_data 1004e1f0     libucrt:nlsdata.obj
 0003:000002a8       ___acrt_initial_locale_pointers 1004e2a8     libucrt:nlsdata.obj
 0003:000002b0       ___acrt_wide_c_locale_string 1004e2b0     libucrt:nlsdata.obj
 0003:000002b8       ___badioinfo               1004e2b8     libucrt:ioinit.obj
 0003:000002e8       ___globallocalestatus      1004e2e8     libucrt:glstatus.obj
 0003:00000470       __mbctype                  1004e470     libucrt:mbctype.obj
 0003:00000578       __mbcasemap                1004e578     libucrt:mbctype.obj
 0003:00000678       ___acrt_initial_multibyte_data 1004e678     libucrt:mbctype.obj
 0003:00000898       ___acrt_current_multibyte_data 1004e898     libucrt:mbctype.obj
 0003:000008a0       __lookuptrailbytes         1004e8a0     libucrt:read.obj
 0003:000009a0       ___dcrt_lowio_console_output_handle 1004e9a0     libucrt:initcon.obj
 0003:000009d4       ?stream_err1@?1???$arma_stream_err1@D@arma@@YAAAV?$basic_ostream@DU?$char_traits@D@std@@@std@@PAV23@@Z@4PAV23@A 1004e9d4     pandamat.obj
 0003:000009d8       ?stream_err2@?1???$arma_stream_err2@D@arma@@YAAAV?$basic_ostream@DU?$char_traits@D@std@@@std@@PAV23@@Z@4PAV23@A 1004e9d8     pandapool.obj
 0003:000009e0       ??_R0?AVexception@std@@@8  1004e9e0     libcpmt:cout.obj
 0003:000009fc       ??_R0?AVfailure@ios_base@std@@@8 1004e9fc     libcpmt:cout.obj
 0003:00000a20       ??_R0?AVsystem_error@std@@@8 1004ea20     libcpmt:cout.obj
 0003:00000a40       ??_R0?AV_System_error@std@@@8 1004ea40     libcpmt:cout.obj
 0003:00000a60       ??_R0?AVbad_cast@std@@@8   1004ea60     libcpmt:cout.obj
 0003:00000a7c       ??_R0?AVios_base@std@@@8   1004ea7c     libcpmt:cout.obj
 0003:00000a98       ??_R0?AV?$_Iosb@H@std@@@8  1004ea98     libcpmt:cout.obj
 0003:00000ab4       ??_R0?AV?$basic_ios@DU?$char_traits@D@std@@@std@@@8 1004eab4     libcpmt:cout.obj
 0003:00000aec       ??_R0?AV?$basic_streambuf@DU?$char_traits@D@std@@@std@@@8 1004eaec     libcpmt:cout.obj
 0003:00000b28       ??_R0?AV?$basic_ostream@DU?$char_traits@D@std@@@std@@@8 1004eb28     libcpmt:cout.obj
 0003:00000b64       ??_R0?AV?$basic_filebuf@DU?$char_traits@D@std@@@std@@@8 1004eb64     libcpmt:cout.obj
 0003:00000ba0       ??_R0?AV_Facet_base@std@@@8 1004eba0     libcpmt:cout.obj
 0003:00000bc0       ??_R0?AVfacet@locale@std@@@8 1004ebc0     libcpmt:cout.obj
 0003:00000be0       ??_R0?AU_Crt_new_delete@std@@@8 1004ebe0     libcpmt:cout.obj
 0003:00000c04       ??_R0?AVcodecvt_base@std@@@8 1004ec04     libcpmt:cout.obj
 0003:00000c24       ??_R0?AUctype_base@std@@@8 1004ec24     libcpmt:cout.obj
 0003:00000c44       ??_R0?AV?$ctype@D@std@@@8  1004ec44     libcpmt:cout.obj
 0003:00000c60       ??_R0?AVerror_category@std@@@8 1004ec60     libcpmt:cout.obj
 0003:00000c84       ??_R0?AV_Generic_error_category@std@@@8 1004ec84     libcpmt:cout.obj
 0003:00000cb0       ??_R0?AV_Iostream_error_category@std@@@8 1004ecb0     libcpmt:cout.obj
 0003:00000cdc       ??_R0?AV?$codecvt@DDU_Mbstatet@@@std@@@8 1004ecdc     libcpmt:cout.obj
 0003:00000d08       ??_R0?AV_Locimp@locale@std@@@8 1004ed08     libcpmt:locale0.obj
 0003:00000d2c       ??_R0?AVbad_alloc@std@@@8  1004ed2c     libcpmt:xthrow.obj
 0003:00000d48       ??_R0?AVlength_error@std@@@8 1004ed48     libcpmt:xthrow.obj
 0003:00000d68       ??_R0?AVout_of_range@std@@@8 1004ed68     libcpmt:xthrow.obj
 0003:00000d88       ??_R0?AV?$num_put@DV?$ostreambuf_iterator@DU?$char_traits@D@std@@@std@@@std@@@8 1004ed88     libcpmt:locale.obj
 0003:00000ddc       ??_R0?AV?$numpunct@D@std@@@8 1004eddc     libcpmt:locale.obj
 0003:00000dfc       ??_R0?AVtype_info@@@8      1004edfc     LIBCMT:std_type_info_static.obj
 0003:00000e14       ??_R0?AVbad_array_new_length@std@@@8 1004ee14     LIBCMT:throw_bad_alloc.obj
 0003:00000e3c       ??_R0?AVbad_exception@std@@@8 1004ee3c     libvcruntime:frame.obj
 0003:00000e5c       ??_R0?AW4exceptions@@@8    1004ee5c     pandamat.obj
 0003:00000e78       ??_R0?AVexception@stdext@@@8 1004ee78     pandapool.obj
 0003:00000e98       ??_R0?AVbad_alloc@stdext@@@8 1004ee98     pandapool.obj
 0003:00000eb8       ??_R0?AVlogic_error@std@@@8 1004eeb8     pandapool.obj
 0003:00000ed8       ??_R0?AVruntime_error@std@@@8 1004eed8     dot.obj
 0003:00000ef8       __imp_?GetCurrent@Isolate@v8@@SAPAV12@XZ 1004eef8     node:node.exe
 0003:00000efc       __imp_??1HandleScope@v8@@QAE@XZ 1004eefc     node:node.exe
 0003:00000f00       __imp_??0HandleScope@v8@@QAE@PAVIsolate@1@@Z 1004ef00     node:node.exe
 0003:00000f04       __imp_?GetFunction@FunctionTemplate@v8@@QAE?AV?$Local@VFunction@v8@@@2@XZ 1004ef04     node:node.exe
 0003:00000f08       __imp_?New@FunctionTemplate@v8@@SA?AV?$Local@VFunctionTemplate@v8@@@2@PAVIsolate@2@P6AXABV?$FunctionCallbackInfo@VValue@v8@@@2@@ZV?$Local@VValue@v8@@@2@V?$Local@VSignature@v8@@@2@H@Z 1004ef08     node:node.exe
 0003:00000f0c       __imp_?NewFromUtf8@String@v8@@SA?AV?$Local@VString@v8@@@2@PAVIsolate@2@PBDW4NewStringType@12@H@Z 1004ef0c     node:node.exe
 0003:00000f10       __imp_?GetIsolate@Object@v8@@QAEPAVIsolate@2@XZ 1004ef10     node:node.exe
 0003:00000f14       __imp_?Set@Object@v8@@QAE_NV?$Local@VValue@v8@@@2@0@Z 1004ef14     node:node.exe
 0003:00000f18       __imp_?SetName@Function@v8@@QAEXV?$Local@VString@v8@@@2@@Z 1004ef18     node:node.exe
 0003:00000f1c       __imp__node_module_register 1004ef1c     node:node.exe
 0003:00000f20       __imp_?New@Signature@v8@@SA?AV?$Local@VSignature@v8@@@2@PAVIsolate@2@V?$Local@VFunctionTemplate@v8@@@2@@Z 1004ef20     node:node.exe
 0003:00000f24       __imp_?GetCurrentContext@Isolate@v8@@QAE?AV?$Local@VContext@v8@@@2@XZ 1004ef24     node:node.exe
 0003:00000f28       __imp_?CreateHandle@HandleScope@v8@@KAPAPAVObject@internal@2@PAVIsolate@42@PAV342@@Z 1004ef28     node:node.exe
 0003:00000f2c       __imp_?Set@Template@v8@@QAEXV?$Local@VName@v8@@@2@V?$Local@VData@v8@@@2@W4PropertyAttribute@2@@Z 1004ef2c     node:node.exe
 0003:00000f30       __imp_?Length@Array@v8@@QBEIXZ 1004ef30     node:node.exe
 0003:00000f34       __imp_?SetClassName@FunctionTemplate@v8@@QAEXV?$Local@VString@v8@@@2@@Z 1004ef34     node:node.exe
 0003:00000f38       __imp_?PrototypeTemplate@FunctionTemplate@v8@@QAE?AV?$Local@VObjectTemplate@v8@@@2@XZ 1004ef38     node:node.exe
 0003:00000f3c       __imp_?InstanceTemplate@FunctionTemplate@v8@@QAE?AV?$Local@VObjectTemplate@v8@@@2@XZ 1004ef3c     node:node.exe
 0003:00000f40       __imp_?ToLocalEmpty@V8@v8@@CAXXZ 1004ef40     node:node.exe
 0003:00000f44       __imp_?ClearWeak@V8@v8@@CAPAXPAPAVObject@internal@2@@Z 1004ef44     node:node.exe
 0003:00000f48       __imp_?MakeWeak@V8@v8@@CAXPAPAVObject@internal@2@PAXP6AXABV?$WeakCallbackInfo@X@2@@ZW4WeakCallbackType@2@@Z 1004ef48     node:node.exe
 0003:00000f4c       __imp_?DisposeGlobal@V8@v8@@CAXPAPAVObject@internal@2@@Z 1004ef4c     node:node.exe
 0003:00000f50       __imp_?GlobalizeReference@V8@v8@@CAPAPAVObject@internal@2@PAVIsolate@42@PAPAV342@@Z 1004ef50     node:node.exe
 0003:00000f54       __imp_?IsObject@Value@v8@@QBE_NXZ 1004ef54     node:node.exe
 0003:00000f58       __imp_?IsArray@Value@v8@@QBE_NXZ 1004ef58     node:node.exe
 0003:00000f5c       __imp_??1Utf8Value@String@v8@@QAE@XZ 1004ef5c     node:node.exe
 0003:00000f60       __imp_??0Utf8Value@String@v8@@QAE@V?$Local@VValue@v8@@@2@@Z 1004ef60     node:node.exe
 0003:00000f64       __imp_?SlowGetAlignedPointerFromInternalField@Object@v8@@AAEPAXH@Z 1004ef64     node:node.exe
 0003:00000f68       __imp_?New@Object@v8@@SA?AV?$Local@VObject@v8@@@2@PAVIsolate@2@@Z 1004ef68     node:node.exe
 0003:00000f6c       __imp_?SetAlignedPointerInInternalField@Object@v8@@QAEXHPAX@Z 1004ef6c     node:node.exe
 0003:00000f70       __imp_?InternalFieldCount@Object@v8@@QAEHXZ 1004ef70     node:node.exe
 0003:00000f74       __imp_?GetOwnPropertyNames@Object@v8@@QAE?AV?$Local@VArray@v8@@@2@XZ 1004ef74     node:node.exe
 0003:00000f78       __imp_?Get@Object@v8@@QAE?AV?$Local@VValue@v8@@@2@V32@@Z 1004ef78     node:node.exe
 0003:00000f7c       __imp_?Get@Object@v8@@QAE?AV?$Local@VValue@v8@@@2@I@Z 1004ef7c     node:node.exe
 0003:00000f80       __imp_?NewInstance@Function@v8@@QBE?AV?$MaybeLocal@VObject@v8@@@2@V?$Local@VContext@v8@@@2@HQAV?$Local@VValue@v8@@@2@@Z 1004ef80     node:node.exe
 0003:00000f84       __imp_?SetInternalFieldCount@ObjectTemplate@v8@@QAEXH@Z 1004ef84     node:node.exe
 0003:00000f88       __imp_?New@Array@v8@@SA?AV?$Local@VArray@v8@@@2@PAVIsolate@2@H@Z 1004ef88     node:node.exe
 0003:00000f8c       __imp_?NumberValue@Value@v8@@QBENXZ 1004ef8c     node:node.exe
 0003:00000f90       __imp_?BooleanValue@Value@v8@@QBE_NXZ 1004ef90     node:node.exe
 0003:00000f94       __imp_?IsNumber@Value@v8@@QBE_NXZ 1004ef94     node:node.exe
 0003:00000f98       __imp_?IsBoolean@Value@v8@@QBE_NXZ 1004ef98     node:node.exe
 0003:00000f9c       __imp_?New@Number@v8@@SA?AV?$Local@VNumber@v8@@@2@PAVIsolate@2@N@Z 1004ef9c     node:node.exe
 0003:00000fa0       __imp_?Set@Object@v8@@QAE_NIV?$Local@VValue@v8@@@2@@Z 1004efa0     node:node.exe
 0003:00000fa4       \177node_NULL_THUNK_DATA_DLA 1004efa4     node:node.exe
 0003:00000fa8       __hmod__node_exe           1004efa8     node:node.exe
 0003:00001080       ?cout@std@@3V?$basic_ostream@DU?$char_traits@D@std@@@1@A 1004f080     libcpmt:cout.obj
 0003:00001128       ?_Stinit@?1??_Init@?$basic_filebuf@DU?$char_traits@D@std@@@std@@IAEXPAU_iobuf@@W4_Initfl@23@@Z@4U_Mbstatet@@A 1004f128     libcpmt:cout.obj
 0003:00001130       ?_Psave@?$_Facetptr@V?$codecvt@DDU_Mbstatet@@@std@@@std@@2PBVfacet@locale@2@B 1004f130     libcpmt:cout.obj
 0003:00001134       ?_Id_cnt@id@locale@std@@0HA 1004f134     libcpmt:locale0.obj
 0003:00001138       ?_Clocptr@_Locimp@locale@std@@0PAV123@A 1004f138     libcpmt:locale0.obj
 0003:00001144       ?id@?$ctype@G@std@@2V0locale@2@A 1004f144     libcpmt:locale0.obj
 0003:00001148       ?id@?$codecvt@_WDU_Mbstatet@@@std@@2V0locale@2@A 1004f148     libcpmt:locale0.obj
 0003:0000114c       ?id@?$codecvt@GDU_Mbstatet@@@std@@2V0locale@2@A 1004f14c     libcpmt:locale0.obj
 0003:00001150       ?id@?$ctype@_W@std@@2V0locale@2@A 1004f150     libcpmt:locale0.obj
 0003:00001154       ?id@?$ctype@D@std@@2V0locale@2@A 1004f154     libcpmt:locale0.obj
 0003:00001164       ?_Index@ios_base@std@@0HA  1004f164     libcpmt:ios.obj
 0003:0000119c       ?_Raise_handler@std@@3P6AXABVexception@stdext@@@ZA 1004f19c     libcpmt:raisehan.obj
 0003:000011a0       ?_Ptr_cin@std@@3PAV?$basic_istream@DU?$char_traits@D@std@@@1@A 1004f1a0     libcpmt:iosptrs.obj
 0003:000011a4       ?_Ptr_cout@std@@3PAV?$basic_ostream@DU?$char_traits@D@std@@@1@A 1004f1a4     libcpmt:iosptrs.obj
 0003:000011a8       ?_Ptr_cerr@std@@3PAV?$basic_ostream@DU?$char_traits@D@std@@@1@A 1004f1a8     libcpmt:iosptrs.obj
 0003:000011ac       ?_Ptr_clog@std@@3PAV?$basic_ostream@DU?$char_traits@D@std@@@1@A 1004f1ac     libcpmt:iosptrs.obj
 0003:000011b0       ?_Ptr_wcin@std@@3PAV?$basic_istream@_WU?$char_traits@_W@std@@@1@A 1004f1b0     libcpmt:iosptrs.obj
 0003:000011b4       ?_Ptr_wcout@std@@3PAV?$basic_ostream@_WU?$char_traits@_W@std@@@1@A 1004f1b4     libcpmt:iosptrs.obj
 0003:000011b8       ?_Ptr_wcerr@std@@3PAV?$basic_ostream@_WU?$char_traits@_W@std@@@1@A 1004f1b8     libcpmt:iosptrs.obj
 0003:000011bc       ?_Ptr_wclog@std@@3PAV?$basic_ostream@_WU?$char_traits@_W@std@@@1@A 1004f1bc     libcpmt:iosptrs.obj
 0003:000011ec       ?id@?$num_get@DV?$istreambuf_iterator@DU?$char_traits@D@std@@@std@@@std@@2V0locale@2@A 1004f1ec     libcpmt:locale.obj
 0003:000011f0       ___encodedKERNEL32Functions 1004f1f0     libcpmt:winapisupp.obj
 0003:00001290       ?id@?$time_put@_WV?$ostreambuf_iterator@_WU?$char_traits@_W@std@@@std@@@std@@2V0locale@2@A 1004f290     libcpmt:wlocale.obj
 0003:00001294       ?id@?$num_get@_WV?$istreambuf_iterator@_WU?$char_traits@_W@std@@@std@@@std@@2V0locale@2@A 1004f294     libcpmt:wlocale.obj
 0003:00001298       ?id@?$num_put@_WV?$ostreambuf_iterator@_WU?$char_traits@_W@std@@@std@@@std@@2V0locale@2@A 1004f298     libcpmt:wlocale.obj
 0003:0000129c       ?id@?$numpunct@_W@std@@2V0locale@2@A 1004f29c     libcpmt:wlocale.obj
 0003:000012a0       ?id@?$collate@_W@std@@2V0locale@2@A 1004f2a0     libcpmt:wlocale.obj
 0003:000012a4       ?id@?$messages@_W@std@@2V0locale@2@A 1004f2a4     libcpmt:wlocale.obj
 0003:000012a8       ?id@?$money_get@_WV?$istreambuf_iterator@_WU?$char_traits@_W@std@@@std@@@std@@2V0locale@2@A 1004f2a8     libcpmt:wlocale.obj
 0003:000012ac       ?id@?$money_put@_WV?$ostreambuf_iterator@_WU?$char_traits@_W@std@@@std@@@std@@2V0locale@2@A 1004f2ac     libcpmt:wlocale.obj
 0003:000012b0       ?id@?$moneypunct@_W$0A@@std@@2V0locale@2@A 1004f2b0     libcpmt:wlocale.obj
 0003:000012b4       ?id@?$moneypunct@_W$00@std@@2V0locale@2@A 1004f2b4     libcpmt:wlocale.obj
 0003:000012b8       ?id@?$time_get@_WV?$istreambuf_iterator@_WU?$char_traits@_W@std@@@std@@@std@@2V0locale@2@A 1004f2b8     libcpmt:wlocale.obj
 0003:000012bc       ?id@?$num_get@GV?$istreambuf_iterator@GU?$char_traits@G@std@@@std@@@std@@2V0locale@2@A 1004f2bc     libcpmt:wlocale.obj
 0003:000012c0       ?id@?$num_put@GV?$ostreambuf_iterator@GU?$char_traits@G@std@@@std@@@std@@2V0locale@2@A 1004f2c0     libcpmt:wlocale.obj
 0003:000012c4       ?id@?$numpunct@G@std@@2V0locale@2@A 1004f2c4     libcpmt:wlocale.obj
 0003:000012c8       ?id@?$collate@G@std@@2V0locale@2@A 1004f2c8     libcpmt:wlocale.obj
 0003:000012cc       ?id@?$messages@G@std@@2V0locale@2@A 1004f2cc     libcpmt:wlocale.obj
 0003:000012d0       ?id@?$money_get@GV?$istreambuf_iterator@GU?$char_traits@G@std@@@std@@@std@@2V0locale@2@A 1004f2d0     libcpmt:wlocale.obj
 0003:000012d4       ?id@?$money_put@GV?$ostreambuf_iterator@GU?$char_traits@G@std@@@std@@@std@@2V0locale@2@A 1004f2d4     libcpmt:wlocale.obj
 0003:000012d8       ?id@?$moneypunct@G$0A@@std@@2V0locale@2@A 1004f2d8     libcpmt:wlocale.obj
 0003:000012dc       ?id@?$moneypunct@G$00@std@@2V0locale@2@A 1004f2dc     libcpmt:wlocale.obj
 0003:000012e0       ?id@?$time_get@GV?$istreambuf_iterator@GU?$char_traits@G@std@@@std@@@std@@2V0locale@2@A 1004f2e0     libcpmt:wlocale.obj
 0003:000012e4       ?id@?$time_put@GV?$ostreambuf_iterator@GU?$char_traits@G@std@@@std@@@std@@2V0locale@2@A 1004f2e4     libcpmt:wlocale.obj
 0003:000012e8       ?id@?$collate@D@std@@2V0locale@2@A 1004f2e8     libcpmt:xlocale.obj
 0003:000012ec       ?id@?$messages@D@std@@2V0locale@2@A 1004f2ec     libcpmt:xlocale.obj
 0003:000012f0       ?id@?$money_get@DV?$istreambuf_iterator@DU?$char_traits@D@std@@@std@@@std@@2V0locale@2@A 1004f2f0     libcpmt:xlocale.obj
 0003:000012f4       ?id@?$money_put@DV?$ostreambuf_iterator@DU?$char_traits@D@std@@@std@@@std@@2V0locale@2@A 1004f2f4     libcpmt:xlocale.obj
 0003:000012f8       ?id@?$moneypunct@D$0A@@std@@2V0locale@2@A 1004f2f8     libcpmt:xlocale.obj
 0003:000012fc       ?id@?$moneypunct@D$00@std@@2V0locale@2@A 1004f2fc     libcpmt:xlocale.obj
 0003:00001300       ?id@?$time_get@DV?$istreambuf_iterator@DU?$char_traits@D@std@@@std@@@std@@2V0locale@2@A 1004f300     libcpmt:xlocale.obj
 0003:00001304       ?id@?$time_put@DV?$ostreambuf_iterator@DU?$char_traits@D@std@@@std@@@std@@2V0locale@2@A 1004f304     libcpmt:xlocale.obj
 0003:00001330       ___scrt_current_native_startup_state 1004f330     LIBCMT:utility.obj
 0003:00001334       ___scrt_native_startup_lock 1004f334     LIBCMT:utility.obj
 0003:00001674       ___scrt_debugger_hook_flag 1004f674     LIBCMT:utility_desktop.obj
 0003:00001678       __tls_index                1004f678     LIBCMT:tlssup.obj
 0003:0000167c       ___isa_available           1004f67c     LIBCMT:_cpu_disp_.obj
 0003:00001680       ___favor                   1004f680     LIBCMT:_cpu_disp_.obj
 0003:00001688       ?__type_info_root_node@@3U__type_info_node@@A 1004f688     LIBCMT:tncleanup.obj
 0003:00001690       ?_OptionsStorage@?1??__local_stdio_scanf_options@@9@4_KA 1004f690     LIBCMT:default_local_stdio_options.obj
 0003:00001698       ?g_OutOfMemoryExceptionCallback@@3P6GPAXXZA 1004f698     libvcruntime:frame.obj
 0003:000016d0       ___pPurecall               1004f6d0     libvcruntime:purevirt_data.obj
 0003:00001718       ?pArgList@UnDecorator@@0PAVReplicator@@A 1004f718     libvcruntime:undname.obj
 0003:0000171c       ?pZNameList@UnDecorator@@0PAVReplicator@@A 1004f71c     libvcruntime:undname.obj
 0003:00001720       ?pTemplateArgList@UnDecorator@@0PAVReplicator@@A 1004f720     libvcruntime:undname.obj
 0003:00001724       ?gName@UnDecorator@@0PBDB  1004f724     libvcruntime:undname.obj
 0003:00001728       ?name@UnDecorator@@0PBDB   1004f728     libvcruntime:undname.obj
 0003:0000172c       ?outputString@UnDecorator@@0PADA 1004f72c     libvcruntime:undname.obj
 0003:00001730       ?maxStringLength@UnDecorator@@0HA 1004f730     libvcruntime:undname.obj
 0003:00001734       ?disableFlags@UnDecorator@@0KA 1004f734     libvcruntime:undname.obj
 0003:00001738       ?fExplicitTemplateParams@UnDecorator@@0_NA 1004f738     libvcruntime:undname.obj
 0003:00001739       ?fGetTemplateArgumentList@UnDecorator@@0_NA 1004f739     libvcruntime:undname.obj
 0003:0000173c       ?m_pGetParameter@UnDecorator@@0P6APADJ@ZA 1004f73c     libvcruntime:undname.obj
 0003:00001758       ___acrt_lconv_static_null  1004f758     libucrt:localeconv.obj
 0003:0000175c       ___acrt_lconv_static_W_null 1004f75c     libucrt:localeconv.obj
 0003:0000189c       __nstream                  1004f89c     libucrt:_file.obj
 0003:000018a0       ___piob                    1004f8a0     libucrt:_file.obj
 0003:000018a4       __cflush                   1004f8a4     libucrt:_file.obj
 0003:000019c0       __environ_table            1004f9c0     libucrt:environment_initialization.obj
 0003:000019c4       __wenviron_table           1004f9c4     libucrt:environment_initialization.obj
 0003:000019c8       ___dcrt_initial_wide_environment 1004f9c8     libucrt:environment_initialization.obj
 0003:000019cc       ___dcrt_initial_narrow_environment 1004f9cc     libucrt:environment_initialization.obj
 0003:000019d0       ___acrt_atexit_table       1004f9d0     libucrt:onexit.obj
 0003:000019dc       ___acrt_at_quick_exit_table 1004f9dc     libucrt:onexit.obj
 0003:000019fc       ___acrt_stdout_buffer      1004f9fc     libucrt:_sftbuf.obj
 0003:00001a00       ___acrt_stderr_buffer      1004fa00     libucrt:_sftbuf.obj
 0003:00001a04       ___acrt_locale_changed_data 1004fa04     libucrt:wsetlocale.obj
 0003:00001a08       ___acrt_current_locale_data 1004fa08     libucrt:nlsdata.obj
 0003:00001a10       ___pioinfo                 1004fa10     libucrt:ioinit.obj
 0003:00001c10       __nhandle                  1004fc10     libucrt:ioinit.obj
 0003:00001cfc       ___acrt_heap               1004fcfc     libucrt:heap_handle.obj
 0003:00001d00       ___fastflag                1004fd00     libucrt:fp_flags.obj
 0003:00001d04       ?_timezone@@3V?$dual_state_global@J@__crt_state_management@@A 1004fd04     libucrt:timeset.obj
 0003:00001d08       ?_daylight@@3V?$dual_state_global@H@__crt_state_management@@A 1004fd08     libucrt:timeset.obj
 0003:00001d0c       ?_dstbias@@3V?$dual_state_global@J@__crt_state_management@@A 1004fd0c     libucrt:timeset.obj
 0003:00001dcc       ___mblocalename            1004fdcc     libucrt:mbctype.obj
 0003:00001dd0       ___mbcodepage              1004fdd0     libucrt:mbctype.obj
 0003:00001dd4       ___ismbcodepage            1004fdd4     libucrt:mbctype.obj
 0003:00001dd8       ___mbulinfo                1004fdd8     libucrt:mbctype.obj
 0003:00001dec       ___argc                    1004fdec     libucrt:argv_data.obj
 0003:00001df0       ___argv                    1004fdf0     libucrt:argv_data.obj
 0003:00001df4       ___wargv                   1004fdf4     libucrt:argv_data.obj
 0003:00001df8       __acmdln                   1004fdf8     libucrt:argv_data.obj
 0003:00001dfc       __wcmdln                   1004fdfc     libucrt:argv_data.obj
 0003:00001e00       __pgmptr                   1004fe00     libucrt:argv_data.obj
 0003:00001e0c       ?DloadKernel32@@3PAUHINSTANCE__@@A 1004fe0c     DelayImp:delayhlp.obj
 0003:00001e10       ?DloadAcquireSRWLockExclusive@@3P6GXPAK@ZA 1004fe10     DelayImp:delayhlp.obj
 0003:00001e14       ?DloadReleaseSRWLockExclusive@@3P6GXPAK@ZA 1004fe14     DelayImp:delayhlp.obj
 0003:00001e18       ?DloadSrwLock@@3KA         1004fe18     DelayImp:delayhlp.obj
 0003:00001e1c       ?DloadSectionLockCount@@3KA 1004fe1c     DelayImp:delayhlp.obj
 0003:00001e20       ?DloadSectionOldProtection@@3KA 1004fe20     DelayImp:delayhlp.obj
 0003:00001e24       ?DloadSectionCommitPermanent@@3KA 1004fe24     DelayImp:delayhlp.obj
 0003:00001e28       ?$TSS0@?1???$_Immortalize@V_Iostream_error_category@std@@@std@@YAAAV_Iostream_error_category@1@XZ@4HA 1004fe28     pandamat.obj
 0003:00001e30       ?_OptionsStorage@?1??__local_stdio_printf_options@@9@4_KA 1004fe30     pandamat.obj
 0003:00001e38       ?_Static@?1???$_Immortalize@V_Iostream_error_category@std@@@std@@YAAAV_Iostream_error_category@1@XZ@4U?$_Immortalizer@V_Iostream_error_category@std@@@1@A 1004fe38     pandamat.obj
 0003:00001e40       ?_Psave@?$_Facetptr@V?$numpunct@D@std@@@std@@2PBVfacet@locale@2@B 1004fe40     pandamat.obj
 0003:00001e44       ?_Psave@?$_Facetptr@V?$num_put@DV?$ostreambuf_iterator@DU?$char_traits@D@std@@@std@@@std@@@std@@2PBVfacet@locale@2@B 1004fe44     pandamat.obj
 0003:00001e48       ?_Psave@?$_Facetptr@V?$ctype@D@std@@@std@@2PBVfacet@locale@2@B 1004fe48     pandamat.obj
 0003:00001e4c       ?id@?$num_put@DV?$ostreambuf_iterator@DU?$char_traits@D@std@@@std@@@std@@2V0locale@2@A 1004fe4c     addon.obj
 0003:00001eb4       ?constructor@PandaMat@@2V?$Persistent@VFunction@v8@@V?$NonCopyablePersistentTraits@VFunction@v8@@@2@@v8@@A 1004feb4     pandamat.obj
 0003:0000210c       ?id@?$codecvt@DDU_Mbstatet@@@std@@2V0locale@2@A 1005010c     addon.obj
 0003:00002110       ?id@?$numpunct@D@std@@2V0locale@2@A 10050110     addon.obj
 0003:00002118       ?nan@?$Datum@N@arma@@2NB   10050118     normalize.obj
 0003:00002120       ___dyn_tls_init_callback   10050120     <common>
 0003:00002124       ___scrt_ucrt_dll_is_in_use 10050124     <common>
 0003:00002128       __pmatherr                 10050128     <common>
 0003:0000212c       ___use_sse2_mathfcns       1005012c     <common>
 0005:00000000       __tls_start                10052000     LIBCMT:tlssup.obj
 0005:00000004       __Init_thread_epoch        10052004     LIBCMT:thread_safe_statics.obj
 0005:00000008       __tls_end                  10052008     LIBCMT:tlssup.obj

 entry point at        0001:0001a9cf

 Static symbols

 0000:fffa8000       .debug$S                   10000000     kernel32:KERNEL32.dll
 0000:fffa8000       .debug$S                   10000000     kernel32:KERNEL32.dll
 0000:fffa8000       .debug$S                   10000000     kernel32:KERNEL32.dll
 0000:fffa8000       .debug$S                   10000000     kernel32:KERNEL32.dll
 0000:fffa8000       .debug$S                   10000000     kernel32:KERNEL32.dll
 0000:fffa8000       .debug$S                   10000000     kernel32:KERNEL32.dll
 0000:fffa8000       .debug$S                   10000000     kernel32:KERNEL32.dll
 0000:fffa8000       .debug$S                   10000000     kernel32:KERNEL32.dll
 0000:fffa8000       .debug$S                   10000000     kernel32:KERNEL32.dll
 0000:fffa8000       .debug$S                   10000000     kernel32:KERNEL32.dll
 0000:fffa8000       .debug$S                   10000000     kernel32:KERNEL32.dll
 0000:fffa8000       .debug$S                   10000000     kernel32:KERNEL32.dll
 0000:fffa8000       .debug$S                   10000000     kernel32:KERNEL32.dll
 0000:fffa8000       .debug$S                   10000000     kernel32:KERNEL32.dll
 0000:fffa8000       .debug$S                   10000000     kernel32:KERNEL32.dll
 0000:fffa8000       .debug$S                   10000000     kernel32:KERNEL32.dll
 0000:fffa8000       .debug$S                   10000000     kernel32:KERNEL32.dll
 0000:fffa8000       .debug$S                   10000000     kernel32:KERNEL32.dll
 0000:fffa8000       .debug$S                   10000000     kernel32:KERNEL32.dll
 0000:fffa8000       .debug$S                   10000000     kernel32:KERNEL32.dll
 0000:fffa8000       .debug$S                   10000000     kernel32:KERNEL32.dll
 0000:fffa8000       .debug$S                   10000000     kernel32:KERNEL32.dll
 0000:fffa8000       .debug$S                   10000000     kernel32:KERNEL32.dll
 0000:fffa8000       .debug$S                   10000000     kernel32:KERNEL32.dll
 0000:fffa8000       .debug$S                   10000000     kernel32:KERNEL32.dll
 0000:fffa8000       .debug$S                   10000000     kernel32:KERNEL32.dll
 0000:fffa8000       .debug$S                   10000000     kernel32:KERNEL32.dll
 0000:fffa8000       .debug$S                   10000000     kernel32:KERNEL32.dll
 0000:fffa8000       .debug$S                   10000000     kernel32:KERNEL32.dll
 0000:fffa8000       .debug$S                   10000000     kernel32:KERNEL32.dll
 0000:fffa8000       .debug$S                   10000000     kernel32:KERNEL32.dll
 0000:fffa8000       .debug$S                   10000000     kernel32:KERNEL32.dll
 0000:fffa8000       .debug$S                   10000000     kernel32:KERNEL32.dll
 0000:fffa8000       .debug$S                   10000000     kernel32:KERNEL32.dll
 0000:fffa8000       .debug$S                   10000000     kernel32:KERNEL32.dll
 0000:fffa8000       .debug$S                   10000000     kernel32:KERNEL32.dll
 0000:fffa8000       .debug$S                   10000000     kernel32:KERNEL32.dll
 0000:fffa8000       .debug$S                   10000000     kernel32:KERNEL32.dll
 0000:fffa8000       .debug$S                   10000000     kernel32:KERNEL32.dll
 0000:fffa8000       .debug$S                   10000000     kernel32:KERNEL32.dll
 0000:fffa8000       .debug$S                   10000000     kernel32:KERNEL32.dll
 0000:fffa8000       .debug$S                   10000000     kernel32:KERNEL32.dll
 0000:fffa8000       .debug$S                   10000000     kernel32:KERNEL32.dll
 0000:fffa8000       .debug$S                   10000000     kernel32:KERNEL32.dll
 0000:fffa8000       .debug$S                   10000000     kernel32:KERNEL32.dll
 0000:fffa8000       .debug$S                   10000000     kernel32:KERNEL32.dll
 0000:fffa8000       .debug$S                   10000000     kernel32:KERNEL32.dll
 0000:fffa8000       .debug$S                   10000000     kernel32:KERNEL32.dll
 0000:fffa8000       .debug$S                   10000000     kernel32:KERNEL32.dll
 0000:fffa8000       .debug$S                   10000000     kernel32:KERNEL32.dll
 0000:fffa8000       .debug$S                   10000000     kernel32:KERNEL32.dll
 0000:fffa8000       .debug$S                   10000000     kernel32:KERNEL32.dll
 0000:fffa8000       .debug$S                   10000000     pandamat.exp
 0000:fffa8000       .debug$S                   10000000     kernel32:KERNEL32.dll
 0000:fffa8000       .debug$S                   10000000     kernel32:KERNEL32.dll
 0000:fffa8000       .debug$S                   10000000     kernel32:KERNEL32.dll
 0000:fffa8000       .debug$S                   10000000     kernel32:KERNEL32.dll
 0000:fffa8000       .debug$S                   10000000     kernel32:KERNEL32.dll
 0000:fffa8000       .debug$S                   10000000     kernel32:KERNEL32.dll
 0000:fffa8000       .debug$S                   10000000     kernel32:KERNEL32.dll
 0000:fffa8000       .debug$S                   10000000     kernel32:KERNEL32.dll
 0000:fffa8000       .debug$S                   10000000     kernel32:KERNEL32.dll
 0000:fffa8000       .debug$S                   10000000     kernel32:KERNEL32.dll
 0000:fffa8000       .debug$S                   10000000     kernel32:KERNEL32.dll
 0000:fffa8000       .debug$S                   10000000     kernel32:KERNEL32.dll
 0000:fffa8000       .debug$S                   10000000     kernel32:KERNEL32.dll
 0000:fffa8000       .debug$S                   10000000     kernel32:KERNEL32.dll
 0000:fffa8000       .debug$S                   10000000     kernel32:KERNEL32.dll
 0000:fffa8000       .debug$S                   10000000     kernel32:KERNEL32.dll
 0000:fffa8000       .debug$S                   10000000     kernel32:KERNEL32.dll
 0000:fffa8000       .debug$S                   10000000     kernel32:KERNEL32.dll
 0000:fffa8000       .debug$S                   10000000     kernel32:KERNEL32.dll
 0000:fffa8000       .debug$S                   10000000     kernel32:KERNEL32.dll
 0000:fffa8000       .debug$S                   10000000     kernel32:KERNEL32.dll
 0000:fffa8000       .debug$S                   10000000     kernel32:KERNEL32.dll
 0000:fffa8000       .debug$S                   10000000     kernel32:KERNEL32.dll
 0000:fffa8000       .debug$S                   10000000     kernel32:KERNEL32.dll
 0000:fffa8000       .debug$S                   10000000     kernel32:KERNEL32.dll
 0000:fffa8000       .debug$S                   10000000     kernel32:KERNEL32.dll
 0000:fffa8000       .debug$S                   10000000     kernel32:KERNEL32.dll
 0000:fffa8000       .debug$S                   10000000     kernel32:KERNEL32.dll
 0000:fffa8000       .debug$S                   10000000     kernel32:KERNEL32.dll
 0000:fffa8000       .debug$S                   10000000     kernel32:KERNEL32.dll
 0000:fffa8000       .debug$S                   10000000     kernel32:KERNEL32.dll
 0000:fffa8000       .debug$S                   10000000     kernel32:KERNEL32.dll
 0000:fffa8000       .debug$S                   10000000     kernel32:KERNEL32.dll
 0000:fffa8000       .debug$S                   10000000     kernel32:KERNEL32.dll
 0000:fffa8000       .debug$S                   10000000     kernel32:KERNEL32.dll
 0000:fffa8000       .debug$S                   10000000     kernel32:KERNEL32.dll
 0000:fffa8000       .debug$S                   10000000     kernel32:KERNEL32.dll
 0000:fffa8000       .debug$S                   10000000     node:node.exe
 0000:fffa8000       .debug$S                   10000000     node:node.exe
 0000:fffa8000       .debug$S                   10000000     node:node.exe
 0000:fffa8000       .debug$S                   10000000     node:node.exe
 0000:fffa8000       .debug$S                   10000000     node:node.exe
 0000:fffa8000       .debug$S                   10000000     node:node.exe
 0000:fffa8000       .debug$S                   10000000     node:node.exe
 0000:fffa8000       .debug$S                   10000000     node:node.exe
 0000:fffa8000       .debug$S                   10000000     node:node.exe
 0000:fffa8000       .debug$S                   10000000     node:node.exe
 0000:fffa8000       .debug$S                   10000000     node:node.exe
 0000:fffa8000       .debug$S                   10000000     node:node.exe
 0000:fffa8000       .debug$S                   10000000     node:node.exe
 0000:fffa8000       .debug$S                   10000000     node:node.exe
 0000:fffa8000       .debug$S                   10000000     node:node.exe
 0000:fffa8000       .debug$S                   10000000     node:node.exe
 0000:fffa8000       .debug$S                   10000000     node:node.exe
 0000:fffa8000       .debug$S                   10000000     node:node.exe
 0000:fffa8000       .debug$S                   10000000     node:node.exe
 0000:fffa8000       .debug$S                   10000000     node:node.exe
 0000:fffa8000       .debug$S                   10000000     node:node.exe
 0000:fffa8000       .debug$S                   10000000     node:node.exe
 0000:fffa8000       .debug$S                   10000000     node:node.exe
 0000:fffa8000       .debug$S                   10000000     node:node.exe
 0000:fffa8000       .debug$S                   10000000     node:node.exe
 0000:fffa8000       .debug$S                   10000000     node:node.exe
 0000:fffa8000       .debug$S                   10000000     node:node.exe
 0000:fffa8000       .debug$S                   10000000     node:node.exe
 0000:fffa8000       .debug$S                   10000000     node:node.exe
 0000:fffa8000       .debug$S                   10000000     node:node.exe
 0000:fffa8000       .debug$S                   10000000     node:node.exe
 0000:fffa8000       .debug$S                   10000000     node:node.exe
 0000:fffa8000       .debug$S                   10000000     node:node.exe
 0000:fffa8000       .debug$S                   10000000     node:node.exe
 0000:fffa8000       .debug$S                   10000000     node:node.exe
 0000:fffa8000       .debug$S                   10000000     node:node.exe
 0000:fffa8000       .debug$S                   10000000     node:node.exe
 0000:fffa8000       .debug$S                   10000000     node:node.exe
 0000:fffa8000       .debug$S                   10000000     node:node.exe
 0000:fffa8000       .debug$S                   10000000     node:node.exe
 0000:fffa8000       .debug$S                   10000000     node:node.exe
 0000:fffa8000       .debug$S                   10000000     node:node.exe
 0000:fffa8000       .debug$S                   10000000     node:node.exe
 0000:fffa8000       .debug$S                   10000000     node:node.exe
 0000:fffa8000       .debug$S                   10000000     node:node.exe
 0000:fffa8000       .debug$S                   10000000     node:node.exe
 0000:fffa8000       .debug$S                   10000000     node:node.exe
 0000:fffa8000       .debug$S                   10000000     node:node.exe
 0000:fffa8000       .debug$S                   10000000     node:node.exe
 0000:fffa8000       .debug$S                   10000000     node:node.exe
 0000:fffa8000       .debug$S                   10000000     kernel32:KERNEL32.dll
 0000:fffa8000       .debug$S                   10000000     kernel32:KERNEL32.dll
 0000:fffa8000       .debug$S                   10000000     kernel32:KERNEL32.dll
 0000:fffa8000       .debug$S                   10000000     kernel32:KERNEL32.dll
 0000:fffa8000       .debug$S                   10000000     kernel32:KERNEL32.dll
 0000:fffa8000       .debug$S                   10000000     kernel32:KERNEL32.dll
 0000:fffa8000       .debug$S                   10000000     kernel32:KERNEL32.dll
 0000:fffa8000       .debug$S                   10000000     kernel32:KERNEL32.dll
 0000:fffa8000       .debug$S                   10000000     kernel32:KERNEL32.dll
 0000:fffa8000       .debug$S                   10000000     kernel32:KERNEL32.dll
 0001:00000000       ??__Eendr@arma@@YAXXZ      10001000 f   addon.obj
 0001:00000010       ??__Enone@fill@arma@@YAXXZ 10001010 f   addon.obj
 0001:00000020       ??__Ezeros@fill@arma@@YAXXZ 10001020 f   addon.obj
 0001:00000030       ??__Eones@fill@arma@@YAXXZ 10001030 f   addon.obj
 0001:00000040       ??__Eeye@fill@arma@@YAXXZ  10001040 f   addon.obj
 0001:00000050       ??__Erandu@fill@arma@@YAXXZ 10001050 f   addon.obj
 0001:00000060       ??__Erandn@fill@arma@@YAXXZ 10001060 f   addon.obj
 0001:00000070       ??__Enone@solve_opts@arma@@YAXXZ 10001070 f   addon.obj
 0001:00000080       ??__Efast@solve_opts@arma@@YAXXZ 10001080 f   addon.obj
 0001:00000090       ??__Eequilibrate@solve_opts@arma@@YAXXZ 10001090 f   addon.obj
 0001:000000a0       ??__Eno_approx@solve_opts@arma@@YAXXZ 100010a0 f   addon.obj
 0001:000000b0       ??__Etriu@solve_opts@arma@@YAXXZ 100010b0 f   addon.obj
 0001:000000c0       ??__Etril@solve_opts@arma@@YAXXZ 100010c0 f   addon.obj
 0001:000000d0       ??__Eeucl_dist@arma@@YAXXZ 100010d0 f   addon.obj
 0001:000000e0       ??__Emaha_dist@arma@@YAXXZ 100010e0 f   addon.obj
 0001:000000f0       ??__Eprob_dist@arma@@YAXXZ 100010f0 f   addon.obj
 0001:00000100       ??__Ekeep_existing@arma@@YAXXZ 10001100 f   addon.obj
 0001:00000110       ??__Estatic_subset@arma@@YAXXZ 10001110 f   addon.obj
 0001:00000120       ??__Estatic_spread@arma@@YAXXZ 10001120 f   addon.obj
 0001:00000130       ??__Erandom_subset@arma@@YAXXZ 10001130 f   addon.obj
 0001:00000140       ??__Erandom_spread@arma@@YAXXZ 10001140 f   addon.obj
 0001:00000150       ??__Eendr@arma@@YAXXZ      10001150 f   pandamat.obj
 0001:00000160       ??__Enone@fill@arma@@YAXXZ 10001160 f   pandamat.obj
 0001:00000170       ??__Ezeros@fill@arma@@YAXXZ 10001170 f   pandamat.obj
 0001:00000180       ??__Eones@fill@arma@@YAXXZ 10001180 f   pandamat.obj
 0001:00000190       ??__Eeye@fill@arma@@YAXXZ  10001190 f   pandamat.obj
 0001:000001a0       ??__Erandu@fill@arma@@YAXXZ 100011a0 f   pandamat.obj
 0001:000001b0       ??__Erandn@fill@arma@@YAXXZ 100011b0 f   pandamat.obj
 0001:000001c0       ??__Enone@solve_opts@arma@@YAXXZ 100011c0 f   pandamat.obj
 0001:000001d0       ??__Efast@solve_opts@arma@@YAXXZ 100011d0 f   pandamat.obj
 0001:000001e0       ??__Eequilibrate@solve_opts@arma@@YAXXZ 100011e0 f   pandamat.obj
 0001:000001f0       ??__Eno_approx@solve_opts@arma@@YAXXZ 100011f0 f   pandamat.obj
 0001:00000200       ??__Etriu@solve_opts@arma@@YAXXZ 10001200 f   pandamat.obj
 0001:00000210       ??__Etril@solve_opts@arma@@YAXXZ 10001210 f   pandamat.obj
 0001:00000220       ??__Eeucl_dist@arma@@YAXXZ 10001220 f   pandamat.obj
 0001:00000230       ??__Emaha_dist@arma@@YAXXZ 10001230 f   pandamat.obj
 0001:00000240       ??__Eprob_dist@arma@@YAXXZ 10001240 f   pandamat.obj
 0001:00000250       ??__Ekeep_existing@arma@@YAXXZ 10001250 f   pandamat.obj
 0001:00000260       ??__Estatic_subset@arma@@YAXXZ 10001260 f   pandamat.obj
 0001:00000270       ??__Estatic_spread@arma@@YAXXZ 10001270 f   pandamat.obj
 0001:00000280       ??__Erandom_subset@arma@@YAXXZ 10001280 f   pandamat.obj
 0001:00000290       ??__Erandom_spread@arma@@YAXXZ 10001290 f   pandamat.obj
 0001:000002a0       ??__E?constructor@PandaMat@@2V?$Persistent@VFunction@v8@@V?$NonCopyablePersistentTraits@VFunction@v8@@@2@@v8@@A@@YAXXZ 100012a0 f   pandamat.obj
 0001:000002c0       ??__Eendr@arma@@YAXXZ      100012c0 f   pandapool.obj
 0001:000002d0       ??__Enone@fill@arma@@YAXXZ 100012d0 f   pandapool.obj
 0001:000002e0       ??__Ezeros@fill@arma@@YAXXZ 100012e0 f   pandapool.obj
 0001:000002f0       ??__Eones@fill@arma@@YAXXZ 100012f0 f   pandapool.obj
 0001:00000300       ??__Eeye@fill@arma@@YAXXZ  10001300 f   pandapool.obj
 0001:00000310       ??__Erandu@fill@arma@@YAXXZ 10001310 f   pandapool.obj
 0001:00000320       ??__Erandn@fill@arma@@YAXXZ 10001320 f   pandapool.obj
 0001:00000330       ??__Enone@solve_opts@arma@@YAXXZ 10001330 f   pandapool.obj
 0001:00000340       ??__Efast@solve_opts@arma@@YAXXZ 10001340 f   pandapool.obj
 0001:00000350       ??__Eequilibrate@solve_opts@arma@@YAXXZ 10001350 f   pandapool.obj
 0001:00000360       ??__Eno_approx@solve_opts@arma@@YAXXZ 10001360 f   pandapool.obj
 0001:00000370       ??__Etriu@solve_opts@arma@@YAXXZ 10001370 f   pandapool.obj
 0001:00000380       ??__Etril@solve_opts@arma@@YAXXZ 10001380 f   pandapool.obj
 0001:00000390       ??__Eeucl_dist@arma@@YAXXZ 10001390 f   pandapool.obj
 0001:000003a0       ??__Emaha_dist@arma@@YAXXZ 100013a0 f   pandapool.obj
 0001:000003b0       ??__Eprob_dist@arma@@YAXXZ 100013b0 f   pandapool.obj
 0001:000003c0       ??__Ekeep_existing@arma@@YAXXZ 100013c0 f   pandapool.obj
 0001:000003d0       ??__Estatic_subset@arma@@YAXXZ 100013d0 f   pandapool.obj
 0001:000003e0       ??__Estatic_spread@arma@@YAXXZ 100013e0 f   pandapool.obj
 0001:000003f0       ??__Erandom_subset@arma@@YAXXZ 100013f0 f   pandapool.obj
 0001:00000400       ??__Erandom_spread@arma@@YAXXZ 10001400 f   pandapool.obj
 0001:00000410       ??__Eendr@arma@@YAXXZ      10001410 f   opercollection.obj
 0001:00000420       ??__Enone@fill@arma@@YAXXZ 10001420 f   opercollection.obj
 0001:00000430       ??__Ezeros@fill@arma@@YAXXZ 10001430 f   opercollection.obj
 0001:00000440       ??__Eones@fill@arma@@YAXXZ 10001440 f   opercollection.obj
 0001:00000450       ??__Eeye@fill@arma@@YAXXZ  10001450 f   opercollection.obj
 0001:00000460       ??__Erandu@fill@arma@@YAXXZ 10001460 f   opercollection.obj
 0001:00000470       ??__Erandn@fill@arma@@YAXXZ 10001470 f   opercollection.obj
 0001:00000480       ??__Enone@solve_opts@arma@@YAXXZ 10001480 f   opercollection.obj
 0001:00000490       ??__Efast@solve_opts@arma@@YAXXZ 10001490 f   opercollection.obj
 0001:000004a0       ??__Eequilibrate@solve_opts@arma@@YAXXZ 100014a0 f   opercollection.obj
 0001:000004b0       ??__Eno_approx@solve_opts@arma@@YAXXZ 100014b0 f   opercollection.obj
 0001:000004c0       ??__Etriu@solve_opts@arma@@YAXXZ 100014c0 f   opercollection.obj
 0001:000004d0       ??__Etril@solve_opts@arma@@YAXXZ 100014d0 f   opercollection.obj
 0001:000004e0       ??__Eeucl_dist@arma@@YAXXZ 100014e0 f   opercollection.obj
 0001:000004f0       ??__Emaha_dist@arma@@YAXXZ 100014f0 f   opercollection.obj
 0001:00000500       ??__Eprob_dist@arma@@YAXXZ 10001500 f   opercollection.obj
 0001:00000510       ??__Ekeep_existing@arma@@YAXXZ 10001510 f   opercollection.obj
 0001:00000520       ??__Estatic_subset@arma@@YAXXZ 10001520 f   opercollection.obj
 0001:00000530       ??__Estatic_spread@arma@@YAXXZ 10001530 f   opercollection.obj
 0001:00000540       ??__Erandom_subset@arma@@YAXXZ 10001540 f   opercollection.obj
 0001:00000550       ??__Erandom_spread@arma@@YAXXZ 10001550 f   opercollection.obj
 0001:00000560       ??__Eendr@arma@@YAXXZ      10001560 f   operationdata.obj
 0001:00000570       ??__Enone@fill@arma@@YAXXZ 10001570 f   operationdata.obj
 0001:00000580       ??__Ezeros@fill@arma@@YAXXZ 10001580 f   operationdata.obj
 0001:00000590       ??__Eones@fill@arma@@YAXXZ 10001590 f   operationdata.obj
 0001:000005a0       ??__Eeye@fill@arma@@YAXXZ  100015a0 f   operationdata.obj
 0001:000005b0       ??__Erandu@fill@arma@@YAXXZ 100015b0 f   operationdata.obj
 0001:000005c0       ??__Erandn@fill@arma@@YAXXZ 100015c0 f   operationdata.obj
 0001:000005d0       ??__Enone@solve_opts@arma@@YAXXZ 100015d0 f   operationdata.obj
 0001:000005e0       ??__Efast@solve_opts@arma@@YAXXZ 100015e0 f   operationdata.obj
 0001:000005f0       ??__Eequilibrate@solve_opts@arma@@YAXXZ 100015f0 f   operationdata.obj
 0001:00000600       ??__Eno_approx@solve_opts@arma@@YAXXZ 10001600 f   operationdata.obj
 0001:00000610       ??__Etriu@solve_opts@arma@@YAXXZ 10001610 f   operationdata.obj
 0001:00000620       ??__Etril@solve_opts@arma@@YAXXZ 10001620 f   operationdata.obj
 0001:00000630       ??__Eeucl_dist@arma@@YAXXZ 10001630 f   operationdata.obj
 0001:00000640       ??__Emaha_dist@arma@@YAXXZ 10001640 f   operationdata.obj
 0001:00000650       ??__Eprob_dist@arma@@YAXXZ 10001650 f   operationdata.obj
 0001:00000660       ??__Ekeep_existing@arma@@YAXXZ 10001660 f   operationdata.obj
 0001:00000670       ??__Estatic_subset@arma@@YAXXZ 10001670 f   operationdata.obj
 0001:00000680       ??__Estatic_spread@arma@@YAXXZ 10001680 f   operationdata.obj
 0001:00000690       ??__Erandom_subset@arma@@YAXXZ 10001690 f   operationdata.obj
 0001:000006a0       ??__Erandom_spread@arma@@YAXXZ 100016a0 f   operationdata.obj
 0001:000006b0       ??__Eendr@arma@@YAXXZ      100016b0 f   operation.obj
 0001:000006c0       ??__Enone@fill@arma@@YAXXZ 100016c0 f   operation.obj
 0001:000006d0       ??__Ezeros@fill@arma@@YAXXZ 100016d0 f   operation.obj
 0001:000006e0       ??__Eones@fill@arma@@YAXXZ 100016e0 f   operation.obj
 0001:000006f0       ??__Eeye@fill@arma@@YAXXZ  100016f0 f   operation.obj
 0001:00000700       ??__Erandu@fill@arma@@YAXXZ 10001700 f   operation.obj
 0001:00000710       ??__Erandn@fill@arma@@YAXXZ 10001710 f   operation.obj
 0001:00000720       ??__Enone@solve_opts@arma@@YAXXZ 10001720 f   operation.obj
 0001:00000730       ??__Efast@solve_opts@arma@@YAXXZ 10001730 f   operation.obj
 0001:00000740       ??__Eequilibrate@solve_opts@arma@@YAXXZ 10001740 f   operation.obj
 0001:00000750       ??__Eno_approx@solve_opts@arma@@YAXXZ 10001750 f   operation.obj
 0001:00000760       ??__Etriu@solve_opts@arma@@YAXXZ 10001760 f   operation.obj
 0001:00000770       ??__Etril@solve_opts@arma@@YAXXZ 10001770 f   operation.obj
 0001:00000780       ??__Eeucl_dist@arma@@YAXXZ 10001780 f   operation.obj
 0001:00000790       ??__Emaha_dist@arma@@YAXXZ 10001790 f   operation.obj
 0001:000007a0       ??__Eprob_dist@arma@@YAXXZ 100017a0 f   operation.obj
 0001:000007b0       ??__Ekeep_existing@arma@@YAXXZ 100017b0 f   operation.obj
 0001:000007c0       ??__Estatic_subset@arma@@YAXXZ 100017c0 f   operation.obj
 0001:000007d0       ??__Estatic_spread@arma@@YAXXZ 100017d0 f   operation.obj
 0001:000007e0       ??__Erandom_subset@arma@@YAXXZ 100017e0 f   operation.obj
 0001:000007f0       ??__Erandom_spread@arma@@YAXXZ 100017f0 f   operation.obj
 0001:00000800       ??__Eendr@arma@@YAXXZ      10001800 f   add.obj
 0001:00000810       ??__Enone@fill@arma@@YAXXZ 10001810 f   add.obj
 0001:00000820       ??__Ezeros@fill@arma@@YAXXZ 10001820 f   add.obj
 0001:00000830       ??__Eones@fill@arma@@YAXXZ 10001830 f   add.obj
 0001:00000840       ??__Eeye@fill@arma@@YAXXZ  10001840 f   add.obj
 0001:00000850       ??__Erandu@fill@arma@@YAXXZ 10001850 f   add.obj
 0001:00000860       ??__Erandn@fill@arma@@YAXXZ 10001860 f   add.obj
 0001:00000870       ??__Enone@solve_opts@arma@@YAXXZ 10001870 f   add.obj
 0001:00000880       ??__Efast@solve_opts@arma@@YAXXZ 10001880 f   add.obj
 0001:00000890       ??__Eequilibrate@solve_opts@arma@@YAXXZ 10001890 f   add.obj
 0001:000008a0       ??__Eno_approx@solve_opts@arma@@YAXXZ 100018a0 f   add.obj
 0001:000008b0       ??__Etriu@solve_opts@arma@@YAXXZ 100018b0 f   add.obj
 0001:000008c0       ??__Etril@solve_opts@arma@@YAXXZ 100018c0 f   add.obj
 0001:000008d0       ??__Eeucl_dist@arma@@YAXXZ 100018d0 f   add.obj
 0001:000008e0       ??__Emaha_dist@arma@@YAXXZ 100018e0 f   add.obj
 0001:000008f0       ??__Eprob_dist@arma@@YAXXZ 100018f0 f   add.obj
 0001:00000900       ??__Ekeep_existing@arma@@YAXXZ 10001900 f   add.obj
 0001:00000910       ??__Estatic_subset@arma@@YAXXZ 10001910 f   add.obj
 0001:00000920       ??__Estatic_spread@arma@@YAXXZ 10001920 f   add.obj
 0001:00000930       ??__Erandom_subset@arma@@YAXXZ 10001930 f   add.obj
 0001:00000940       ??__Erandom_spread@arma@@YAXXZ 10001940 f   add.obj
 0001:00000950       ??__Eendr@arma@@YAXXZ      10001950 f   dot.obj
 0001:00000960       ??__Enone@fill@arma@@YAXXZ 10001960 f   dot.obj
 0001:00000970       ??__Ezeros@fill@arma@@YAXXZ 10001970 f   dot.obj
 0001:00000980       ??__Eones@fill@arma@@YAXXZ 10001980 f   dot.obj
 0001:00000990       ??__Eeye@fill@arma@@YAXXZ  10001990 f   dot.obj
 0001:000009a0       ??__Erandu@fill@arma@@YAXXZ 100019a0 f   dot.obj
 0001:000009b0       ??__Erandn@fill@arma@@YAXXZ 100019b0 f   dot.obj
 0001:000009c0       ??__Enone@solve_opts@arma@@YAXXZ 100019c0 f   dot.obj
 0001:000009d0       ??__Efast@solve_opts@arma@@YAXXZ 100019d0 f   dot.obj
 0001:000009e0       ??__Eequilibrate@solve_opts@arma@@YAXXZ 100019e0 f   dot.obj
 0001:000009f0       ??__Eno_approx@solve_opts@arma@@YAXXZ 100019f0 f   dot.obj
 0001:00000a00       ??__Etriu@solve_opts@arma@@YAXXZ 10001a00 f   dot.obj
 0001:00000a10       ??__Etril@solve_opts@arma@@YAXXZ 10001a10 f   dot.obj
 0001:00000a20       ??__Eeucl_dist@arma@@YAXXZ 10001a20 f   dot.obj
 0001:00000a30       ??__Emaha_dist@arma@@YAXXZ 10001a30 f   dot.obj
 0001:00000a40       ??__Eprob_dist@arma@@YAXXZ 10001a40 f   dot.obj
 0001:00000a50       ??__Ekeep_existing@arma@@YAXXZ 10001a50 f   dot.obj
 0001:00000a60       ??__Estatic_subset@arma@@YAXXZ 10001a60 f   dot.obj
 0001:00000a70       ??__Estatic_spread@arma@@YAXXZ 10001a70 f   dot.obj
 0001:00000a80       ??__Erandom_subset@arma@@YAXXZ 10001a80 f   dot.obj
 0001:00000a90       ??__Erandom_spread@arma@@YAXXZ 10001a90 f   dot.obj
 0001:00000aa0       ??__Eendr@arma@@YAXXZ      10001aa0 f   transpose.obj
 0001:00000ab0       ??__Enone@fill@arma@@YAXXZ 10001ab0 f   transpose.obj
 0001:00000ac0       ??__Ezeros@fill@arma@@YAXXZ 10001ac0 f   transpose.obj
 0001:00000ad0       ??__Eones@fill@arma@@YAXXZ 10001ad0 f   transpose.obj
 0001:00000ae0       ??__Eeye@fill@arma@@YAXXZ  10001ae0 f   transpose.obj
 0001:00000af0       ??__Erandu@fill@arma@@YAXXZ 10001af0 f   transpose.obj
 0001:00000b00       ??__Erandn@fill@arma@@YAXXZ 10001b00 f   transpose.obj
 0001:00000b10       ??__Enone@solve_opts@arma@@YAXXZ 10001b10 f   transpose.obj
 0001:00000b20       ??__Efast@solve_opts@arma@@YAXXZ 10001b20 f   transpose.obj
 0001:00000b30       ??__Eequilibrate@solve_opts@arma@@YAXXZ 10001b30 f   transpose.obj
 0001:00000b40       ??__Eno_approx@solve_opts@arma@@YAXXZ 10001b40 f   transpose.obj
 0001:00000b50       ??__Etriu@solve_opts@arma@@YAXXZ 10001b50 f   transpose.obj
 0001:00000b60       ??__Etril@solve_opts@arma@@YAXXZ 10001b60 f   transpose.obj
 0001:00000b70       ??__Eeucl_dist@arma@@YAXXZ 10001b70 f   transpose.obj
 0001:00000b80       ??__Emaha_dist@arma@@YAXXZ 10001b80 f   transpose.obj
 0001:00000b90       ??__Eprob_dist@arma@@YAXXZ 10001b90 f   transpose.obj
 0001:00000ba0       ??__Ekeep_existing@arma@@YAXXZ 10001ba0 f   transpose.obj
 0001:00000bb0       ??__Estatic_subset@arma@@YAXXZ 10001bb0 f   transpose.obj
 0001:00000bc0       ??__Estatic_spread@arma@@YAXXZ 10001bc0 f   transpose.obj
 0001:00000bd0       ??__Erandom_subset@arma@@YAXXZ 10001bd0 f   transpose.obj
 0001:00000be0       ??__Erandom_spread@arma@@YAXXZ 10001be0 f   transpose.obj
 0001:00000bf0       ??__Eendr@arma@@YAXXZ      10001bf0 f   normalize.obj
 0001:00000c00       ??__Enone@fill@arma@@YAXXZ 10001c00 f   normalize.obj
 0001:00000c10       ??__Ezeros@fill@arma@@YAXXZ 10001c10 f   normalize.obj
 0001:00000c20       ??__Eones@fill@arma@@YAXXZ 10001c20 f   normalize.obj
 0001:00000c30       ??__Eeye@fill@arma@@YAXXZ  10001c30 f   normalize.obj
 0001:00000c40       ??__Erandu@fill@arma@@YAXXZ 10001c40 f   normalize.obj
 0001:00000c50       ??__Erandn@fill@arma@@YAXXZ 10001c50 f   normalize.obj
 0001:00000c60       ??__Enone@solve_opts@arma@@YAXXZ 10001c60 f   normalize.obj
 0001:00000c70       ??__Efast@solve_opts@arma@@YAXXZ 10001c70 f   normalize.obj
 0001:00000c80       ??__Eequilibrate@solve_opts@arma@@YAXXZ 10001c80 f   normalize.obj
 0001:00000c90       ??__Eno_approx@solve_opts@arma@@YAXXZ 10001c90 f   normalize.obj
 0001:00000ca0       ??__Etriu@solve_opts@arma@@YAXXZ 10001ca0 f   normalize.obj
 0001:00000cb0       ??__Etril@solve_opts@arma@@YAXXZ 10001cb0 f   normalize.obj
 0001:00000cc0       ??__Eeucl_dist@arma@@YAXXZ 10001cc0 f   normalize.obj
 0001:00000cd0       ??__Emaha_dist@arma@@YAXXZ 10001cd0 f   normalize.obj
 0001:00000ce0       ??__Eprob_dist@arma@@YAXXZ 10001ce0 f   normalize.obj
 0001:00000cf0       ??__Ekeep_existing@arma@@YAXXZ 10001cf0 f   normalize.obj
 0001:00000d00       ??__Estatic_subset@arma@@YAXXZ 10001d00 f   normalize.obj
 0001:00000d10       ??__Estatic_spread@arma@@YAXXZ 10001d10 f   normalize.obj
 0001:00000d20       ??__Erandom_subset@arma@@YAXXZ 10001d20 f   normalize.obj
 0001:00000d30       ??__Erandom_spread@arma@@YAXXZ 10001d30 f   normalize.obj
 0001:00000d40       ??__Eendr@arma@@YAXXZ      10001d40 f   sqrtdist.obj
 0001:00000d50       ??__Enone@fill@arma@@YAXXZ 10001d50 f   sqrtdist.obj
 0001:00000d60       ??__Ezeros@fill@arma@@YAXXZ 10001d60 f   sqrtdist.obj
 0001:00000d70       ??__Eones@fill@arma@@YAXXZ 10001d70 f   sqrtdist.obj
 0001:00000d80       ??__Eeye@fill@arma@@YAXXZ  10001d80 f   sqrtdist.obj
 0001:00000d90       ??__Erandu@fill@arma@@YAXXZ 10001d90 f   sqrtdist.obj
 0001:00000da0       ??__Erandn@fill@arma@@YAXXZ 10001da0 f   sqrtdist.obj
 0001:00000db0       ??__Enone@solve_opts@arma@@YAXXZ 10001db0 f   sqrtdist.obj
 0001:00000dc0       ??__Efast@solve_opts@arma@@YAXXZ 10001dc0 f   sqrtdist.obj
 0001:00000dd0       ??__Eequilibrate@solve_opts@arma@@YAXXZ 10001dd0 f   sqrtdist.obj
 0001:00000de0       ??__Eno_approx@solve_opts@arma@@YAXXZ 10001de0 f   sqrtdist.obj
 0001:00000df0       ??__Etriu@solve_opts@arma@@YAXXZ 10001df0 f   sqrtdist.obj
 0001:00000e00       ??__Etril@solve_opts@arma@@YAXXZ 10001e00 f   sqrtdist.obj
 0001:00000e10       ??__Eeucl_dist@arma@@YAXXZ 10001e10 f   sqrtdist.obj
 0001:00000e20       ??__Emaha_dist@arma@@YAXXZ 10001e20 f   sqrtdist.obj
 0001:00000e30       ??__Eprob_dist@arma@@YAXXZ 10001e30 f   sqrtdist.obj
 0001:00000e40       ??__Ekeep_existing@arma@@YAXXZ 10001e40 f   sqrtdist.obj
 0001:00000e50       ??__Estatic_subset@arma@@YAXXZ 10001e50 f   sqrtdist.obj
 0001:00000e60       ??__Estatic_spread@arma@@YAXXZ 10001e60 f   sqrtdist.obj
 0001:00000e70       ??__Erandom_subset@arma@@YAXXZ 10001e70 f   sqrtdist.obj
 0001:00000e80       ??__Erandom_spread@arma@@YAXXZ 10001e80 f   sqrtdist.obj
 0001:00000e8b       ??__Einitlocks@std@@YAXXZ  10001e8b f   libcpmt:xlock.obj
 0001:00000ea1       ??__Ecout@std@@YAXXZ       10001ea1 f   libcpmt:cout.obj
 0001:00000ec0       ??__Efout@std@@YAXXZ       10001ec0 f   libcpmt:cout.obj
 0001:00000efa       ??__Einit_cout@std@@YAXXZ  10001efa f   libcpmt:cout.obj
 0001:00000f04       ??__Einitlocks@@YAXXZ      10001f04 f   libcpmt:cout.obj
 0001:00000f1a       ??__E_Fac_tidy_reg@std@@YAXXZ 10001f1a f   libcpmt:locale0.obj
 0001:00000f26       ??__Eclassic_locale@std@@YAXXZ 10001f26 f   libcpmt:locale0.obj
 0001:00000f32       ??__Einit_atexit@@YAXXZ    10001f32 f   libcpmt:iosptrs.obj
 0001:00000f3e       ??__Einitlocks@std@@YAXXZ  10001f3e f   libcpmt:iosptrs.obj
 0001:00001060       __register_pandamat        10002060 f   addon.obj
 0001:00002a28       $LN650                     10003a28     pandamat.obj
 0001:00002f57       __catch$?Operate@PandaMat@@CAXABV?$FunctionCallbackInfo@VValue@v8@@@v8@@@Z$0 10003f57 f   pandamat.obj
 0001:00003204       __catch$?saveData@PandaMat@@CAXABV?$FunctionCallbackInfo@VValue@v8@@@v8@@@Z$0 10004204 f   pandamat.obj
 0001:000033b2       __catch$?removeData@PandaMat@@CAXABV?$FunctionCallbackInfo@VValue@v8@@@v8@@@Z$0 100043b2 f   pandamat.obj
 0001:00003622       __catch$?getData@PandaMat@@CAXABV?$FunctionCallbackInfo@VValue@v8@@@v8@@@Z$0 10004622 f   pandamat.obj
 0001:00004410       _no_op_initialize          10005410 f i libucrt:wsetlocale.obj
 0001:0000a5dc       $LN391                     1000b5dc     pandapool.obj
 0001:0000aa14       $LN539                     1000ba14     pandapool.obj
 0001:0000aa2c       $LN533                     1000ba2c     pandapool.obj
 0001:0000af68       $LN618                     1000bf68     pandapool.obj
 0001:0000b348       $LN467                     1000c348     pandapool.obj
 0001:0000b994       $LN939                     1000c994     pandapool.obj
 0001:0000bc6c       $LN480                     1000cc6c     pandapool.obj
 0001:0000bf90       $LN691                     1000cf90     pandapool.obj
 0001:0000c6d0       $LN759                     1000d6d0     pandapool.obj
 0001:0000e440       ??$arma_stop_logic_error@PBD@arma@@YAXABQBD@Z 1000f440 f   normalize.obj
 0001:0000e440       ??$arma_stop_logic_error@PBD@arma@@YAXABQBD@Z 1000f440 f   pandapool.obj
 0001:0000e844       $LN23                      1000f844     pandapool.obj
 0001:0000f4d0       ??$arma_stop_bad_alloc@$$BY0CH@D@arma@@YAXAAY0CH@$$CBD@Z 100104d0 f   pandapool.obj
 0001:00012af0       ?arma_incompat_size_string@arma@@YA?AV?$basic_string@DU?$char_traits@D@std@@V?$allocator@D@2@@std@@IIIIPBD@Z 10013af0 f   add.obj
 0001:00013230       ??$arma_stop_logic_error@V?$basic_string@DU?$char_traits@D@std@@V?$allocator@D@2@@std@@@arma@@YAXABV?$basic_string@DU?$char_traits@D@std@@V?$allocator@D@2@@std@@@Z 10014230 f   add.obj
 0001:00013230       ??$arma_stop_logic_error@V?$basic_string@DU?$char_traits@D@std@@V?$allocator@D@2@@std@@@arma@@YAXABV?$basic_string@DU?$char_traits@D@std@@V?$allocator@D@2@@std@@@Z 10014230 f   dot.obj
 0001:00013230       ??$arma_stop_logic_error@V?$basic_string@DU?$char_traits@D@std@@V?$allocator@D@2@@std@@@arma@@YAXABV?$basic_string@DU?$char_traits@D@std@@V?$allocator@D@2@@std@@@Z 10014230 f   normalize.obj
 0001:00013600       ?arma_incompat_size_string@arma@@YA?AV?$basic_string@DU?$char_traits@D@std@@V?$allocator@D@2@@std@@IIIIPBD@Z 10014600 f   dot.obj
 0001:00013a10       $LN23                      10014a10     dot.obj
 0001:00014130       $LN48                      10015130     dot.obj
 0001:000144b8       $LN15                      100154b8     dot.obj
 0001:000146c8       $LN107                     100156c8     dot.obj
 0001:000149a8       $LN107                     100159a8     dot.obj
 0001:00014a4c       $LN48                      10015a4c     dot.obj
 0001:00014e00       ?arma_incompat_size_string@arma@@YA?AV?$basic_string@DU?$char_traits@D@std@@V?$allocator@D@2@@std@@IIIIPBD@Z 10015e00 f   normalize.obj
 0001:00016a80       $LN115                     10017a80     normalize.obj
 0001:00018060       ?load_exe_hook@@YGP6GHXZIPAUDelayLoadInfo@@@Z 10019060 f   win_delay_load_hook.obj
 0001:00018f52       _memcpy_s                  10019f52 f   libcpmt:cout.obj
 0001:00019395       _tidy_global               1001a395 f   libcpmt:locale0.obj
 0001:00019bb9       ?initialize_pointers@@YAHXZ 1001abb9 f   libcpmt:winapisupp.obj
 0001:0001a0f2       ?__scrt_initialize_thread_safe_statics@@YAHXZ 1001b0f2 f   LIBCMT:thread_safe_statics.obj
 0001:0001a1cf       ?__scrt_uninitialize_thread_safe_statics@@YAXXZ 1001b1cf f   LIBCMT:thread_safe_statics.obj
 0001:0001a361       ?find_pe_section@@YAPAU_IMAGE_SECTION_HEADER@@QAEI@Z 1001b361 f   LIBCMT:utility.obj
 0001:0001a6c7       ?dllmain_crt_dispatch@@YGHQAUHINSTANCE__@@KQAX@Z 1001b6c7 f   LIBCMT:dll_dllmain.obj
 0001:0001a71a       ?dllmain_crt_process_attach@@YAHQAUHINSTANCE__@@QAX@Z 1001b71a f   LIBCMT:dll_dllmain.obj
 0001:0001a82c       ?dllmain_crt_process_detach@@YAH_N@Z 1001b82c f   LIBCMT:dll_dllmain.obj
 0001:0001a8a9       ?dllmain_dispatch@@YAHQAUHINSTANCE__@@KQAX@Z 1001b8a9 f   LIBCMT:dll_dllmain.obj
 0001:0001a9a5       ?dllmain_raw@@YGHQAUHINSTANCE__@@KQAX@Z 1001b9a5 f   LIBCMT:dll_dllmain.obj
 0001:0001aac0       $$000000                   1001bac0     LIBCMT:alloca16.obj
 0001:0001aaf0       $$000000                   1001baf0     LIBCMT:llmul.obj
 0001:0001ab30       $$000000                   1001bb30     LIBCMT:ulldiv.obj
 0001:0001b0c0       $$000000                   1001c0c0     LIBCMT:_sehprolg4_.obj
 0001:0001b260       $$000000                   1001c260     LIBCMT:chkstk.obj
 0001:0001b290       $$000000                   1001c290     libvcruntime:memmove.obj
 0001:0001b4f4       TrailingUpVec              1001c4f4     libvcruntime:memmove.obj
 0001:0001b5a0       TrailingDownVec            1001c5a0     libvcruntime:memmove.obj
 0001:0001b943       ?CallCatchBlock@@YAPAXPAUEHExceptionRecord@@PAUEHRegistrationNode@@PAU_CONTEXT@@PBU_s_FuncInfo@@PAXHK@Z 1001c943 f   libvcruntime:frame.obj
 0001:0001baff       ?CallUnexpected@@YAXPBU_s_ESTypeList@@@Z 1001caff f   libvcruntime:frame.obj
 0001:0001bb1f       __catch$?CallUnexpected@@YAXPBU_s_ESTypeList@@@Z$0 1001cb1f f   libvcruntime:frame.obj
 0001:0001bb39       ?CatchIt@@YAXPAUEHExceptionRecord@@PAUEHRegistrationNode@@PAU_CONTEXT@@PAXPBU_s_FuncInfo@@PBU_s_HandlerType@@PBU_s_CatchableType@@PBU_s_TryBlockMapEntry@@H1E@Z 1001cb39 f   libvcruntime:frame.obj
 0001:0001bbb4       ?ExFilterRethrow@@YAHPAU_EXCEPTION_POINTERS@@@Z 1001cbb4 f   libvcruntime:frame.obj
 0001:0001bbfe       ?FindHandler@@YAXPAUEHExceptionRecord@@PAUEHRegistrationNode@@PAU_CONTEXT@@PAXPBU_s_FuncInfo@@EH1@Z 1001cbfe f   libvcruntime:frame.obj
 0001:0001bf66       ?FindHandlerForForeignException@@YAXPAUEHExceptionRecord@@PAUEHRegistrationNode@@PAU_CONTEXT@@PAXPBU_s_FuncInfo@@HH1@Z 1001cf66 f   libvcruntime:frame.obj
 0001:0001c081       ?IsInExceptionSpec@@YAEPAUEHExceptionRecord@@PBU_s_ESTypeList@@@Z 1001d081 f   libvcruntime:frame.obj
 0001:0001c11d       ?Is_bad_exception_allowed@@YAEPBU_s_ESTypeList@@@Z 1001d11d f   libvcruntime:frame.obj
 0001:0001cab0       $$000000                   1001dab0     libvcruntime:memcpy.obj
 0001:0001cd14       TrailingUpVec              1001dd14     libvcruntime:memcpy.obj
 0001:0001cdc0       TrailingDownVec            1001ddc0     libvcruntime:memcpy.obj
 0001:0001d030       $$000000                   1001e030     libvcruntime:memset.obj
 0001:0001d190       $$000000                   1001e190     libvcruntime:memchr.obj
 0001:0001e93d       $LN1281                    1001f93d     libvcruntime:_memcmp_.obj
 0001:0001e9bd       ?try_get_function@@YAPAXW4function_id@?A0x89697e75@@QBDQBW4module_id@2@2@Z 1001f9bd f   libvcruntime:winapi_downlevel.obj
 0001:0001ea5d       ?try_get_module@@YAPAUHINSTANCE__@@W4module_id@?A0x89697e75@@@Z 1001fa5d f   libvcruntime:winapi_downlevel.obj
 0001:0001ecf0       _ValidateLocalCookies      1001fcf0 f   libvcruntime:_chandler4_.obj
 0001:0001f070       $$000000                   10020070     libvcruntime:lowhelpr.obj
 0001:0001f130       $$000000                   10020130     libvcruntime:_exsup4_.obj
 0001:0001f1c0       __unwind_handler4          100201c0 f   libvcruntime:_exsup4_.obj
 0001:0001f290       $$000000                   10020290     libvcruntime:_exsup_.obj
 0001:0001f2b0       __unwind_handler           100202b0 f   libvcruntime:_exsup_.obj
 0001:0001f710       $$000000                   10020710     libucrt:strcspn.obj
 0001:0001f7cf       ??$common_vsprintf@Vformat_validation_base@__crt_stdio_output@@D@@YAH_KQADIQBDQAU__crt_locale_pointers@@1@Z 100207cf f   libucrt:output.obj
 0001:0001f94b       ??$common_vsprintf@Vstandard_base@__crt_stdio_output@@_W@@YAH_KQA_WIQB_WQAU__crt_locale_pointers@@QAD@Z 1002094b f   libucrt:output.obj
 0001:0001fad0       ??$common_vsprintf_s@D@@YAH_KQADIQBDQAU__crt_locale_pointers@@1@Z 10020ad0 f   libucrt:output.obj
 0001:00020054       ??R<lambda_481dd5778c961fbcd3b60b650e9b9dc4>@@QBEHXZ 10021054 f   libucrt:output.obj
 0001:000203ef       $LN52                      100213ef     libucrt:output.obj
 0001:0002050f       $LN54                      1002150f     libucrt:output.obj
 0001:0002062f       $LN54                      1002162f     libucrt:output.obj
 0001:00021405       $LN19                      10022405     libucrt:output.obj
 0001:00022270       ??$common_assert_to_message_box@_W@@YAXQB_W0IQAX@Z 10023270 f   libucrt:assert.obj
 0001:0002230c       ??$common_assert_to_message_box_build_string@_W@@YAXQA_WIQB_W1IQAX@Z 1002330c f   libucrt:assert.obj
 0001:00022851       ??$common_assert_to_stderr@_W@@YAXQB_W0I@Z 10023851 f   libucrt:assert.obj
 0001:000228fc       ?common_assert_to_stderr_direct@@YAXQB_W0I@Z 100238fc f   libucrt:assert.obj
 0001:000229ad       ?get_assert_format@@YAPB_W_W@Z 100239ad f   libucrt:assert.obj
 0001:00023085       _common_flush_all          10024085 f   libucrt:fflush.obj
 0001:00023538       ?common_fseek@@YAHV__crt_stdio_stream@@_JH@Z 10024538 f   libucrt:fseek.obj
 0001:000235bf       ?common_fseek_binary_mode_read_only_fast_track_nolock@@YA_NV__crt_stdio_stream@@_JH@Z 100245bf f   libucrt:fseek.obj
 0001:00023698       ?common_fseek_nolock@@YAHV__crt_stdio_stream@@_JH@Z 10024698 f   libucrt:fseek.obj
 0001:00023805       ??R<lambda_b51c0495177f500e782686251704ae76>@@QBEIXZ 10024805 f   libucrt:fwrite.obj
 0001:00023a95       ??R<lambda_b721fa326cdb32351d23dfa67958c160>@@QBEHXZ 10024a95 f   libucrt:setvbuf.obj
 0001:00023b2f       ?set_buffer@@YAHV__crt_stdio_stream@@QADIH@Z 10024b2f f   libucrt:setvbuf.obj
 0001:00023d42       _call_wsetlocale           10024d42 f   libucrt:setlocale.obj
 0001:000245c1       ?x_ismbbtype_l@@YAHPAU__crt_locale_pointers@@IHH@Z 100255c1 f   libucrt:ismbbyte.obj
 0001:00024c00       $$000000                   10025c00     libucrt:pow.obj
 0001:00024edf       ??$common_tox_l@$1?internal_isupper_l@@YA_NHQAU__crt_locale_pointers@@@Z$1?internal_map_lower@@YAHH0@Z@@YAHHKQAU__crt_locale_pointers@@@Z 10025edf f   libucrt:tolower_toupper.obj
 0001:00025029       ?internal_isupper_l@@YA_NHQAU__crt_locale_pointers@@@Z 10026029 f   libucrt:tolower_toupper.obj
 0001:0002560f       ?atexit_exception_filter@@YAHK@Z 1002660f f   libucrt:exit.obj
 0001:00025622       ?common_exit@@YAXHW4_crt_exit_cleanup_mode@@W4_crt_exit_return_mode@@@Z 10026622 f   libucrt:exit.obj
 0001:0002573b       ?exit_or_terminate_process@@YAXI@Z 1002673b f   libucrt:exit.obj
 0001:0002577c       ?is_managed_app@@YA_NXZ    1002677c f   libucrt:exit.obj
 0001:000257c0       ?try_cor_exit_process@@YAXI@Z 100267c0 f   libucrt:exit.obj
 0001:00025864       ??$common_configure_argv@D@@YAHW4_crt_argv_mode@@@Z 10026864 f   libucrt:argv_parsing.obj
 0001:00025988       ??$parse_command_line@D@@YAXPADPAPAD0PAI2@Z 10026988 f   libucrt:argv_parsing.obj
 0001:00025b5d       ??$common_initialize_environment_nolock@D@@YAHXZ 10026b5d f   libucrt:environment_initialization.obj
 0001:00025bb6       ??$create_environment@D@@YAQAPADQAD@Z 10026bb6 f   libucrt:environment_initialization.obj
 0001:00025c87       ??$free_environment@_W@@YAXQAPA_W@Z 10026c87 f   libucrt:environment_initialization.obj
 0001:00025c87       ??$free_environment@D@@YAXQAPAD@Z 10026c87 f   libucrt:environment_initialization.obj
 0001:00025cf6       ??$uninitialize_environment_internal@D@@YAXAAPAPAD@Z 10026cf6 f   libucrt:environment_initialization.obj
 0001:00025d11       ??$uninitialize_environment_internal@_W@@YAXAAPAPA_W@Z 10026d11 f   libucrt:environment_initialization.obj
 0001:00025e5a       ??R<lambda_275893d493268fdec8709772e3fcec0e>@@QBEHXZ 10026e5a f   libucrt:onexit.obj
 0001:00025f7a       ??R<lambda_4e60a939b0d047cfe11ddc22648dfba9>@@QBEHXZ 10026f7a f   libucrt:onexit.obj
 0001:0002614f       _initialize_global_variables 1002714f f   libucrt:initialization.obj
 0001:00026161       _initialize_c              10027161 f   libucrt:initialization.obj
 0001:0002617b       _uninitialize_environment  1002717b f   libucrt:initialization.obj
 0001:00026183       _report_memory_leaks       10027183 f   libucrt:initialization.obj
 0001:00026183       _initialize_global_state_isolation 10027183 f   libucrt:initialization.obj
 0001:00026183       _uninitialize_global_state_isolation 10027183 f   libucrt:initialization.obj
 0001:00026183       _initialize_environment    10027183 f   libucrt:initialization.obj
 0001:00026183       _uninitialize_c            10027183 f   libucrt:initialization.obj
 0001:00026186       _initialize_pointers       10027186 f   libucrt:initialization.obj
 0001:000261c3       _uninitialize_vcruntime    100271c3 f   libucrt:initialization.obj
 0001:000261cc       _uninitialize_allocated_memory 100271cc f   libucrt:initialization.obj
 0001:00026dfd       ?get_global_action_nolock@@YAPAP6AXH@ZH@Z 10027dfd f   libucrt:signal.obj
 0001:00026e3f       ?siglookup@@YAPAU__crt_signal_action_t@@HQAU1@@Z 10027e3f f   libucrt:signal.obj
 0001:000272ae       ?construct_ptd@@YAXQAU__acrt_ptd@@QAPAU__crt_locale_data@@@Z 100282ae f   libucrt:per_thread_data.obj
 0001:00027327       ?destroy_fls@@YGXPAX@Z     10028327 f   libucrt:per_thread_data.obj
 0001:00027348       ?destroy_ptd@@YAXQAU__acrt_ptd@@@Z 10028348 f   libucrt:per_thread_data.obj
 0001:000273f1       ?replace_current_thread_locale_nolock@@YAXQAU__acrt_ptd@@QAU__crt_locale_data@@@Z 100283f1 f   libucrt:per_thread_data.obj
 0001:00027945       ?fp_format_a@@YAHQBNPADIQADIH_NIQAU__crt_locale_pointers@@@Z 10028945 f   libucrt:cvt.obj
 0001:00027c48       ?fp_format_e@@YAHQBNQADI1IH_NIQAU__crt_locale_pointers@@@Z 10028c48 f   libucrt:cvt.obj
 0001:00027ce3       ?fp_format_e_internal@@YAHQADIH_NIQAU_strflt@@1QAU__crt_locale_pointers@@@Z 10028ce3 f   libucrt:cvt.obj
 0001:00027e2e       ?fp_format_f@@YAHQBNQADI1IHQAU__crt_locale_pointers@@@Z 10028e2e f   libucrt:cvt.obj
 0001:00027ebb       ?fp_format_f_internal@@YAHQADIHQAU_strflt@@_NQAU__crt_locale_pointers@@@Z 10028ebb f   libucrt:cvt.obj
 0001:00027f92       ?fp_format_g@@YAHQBNQADI1IH_NIQAU__crt_locale_pointers@@@Z 10028f92 f   libucrt:cvt.obj
 0001:0002805a       ?fp_format_nan_or_infinity@@YAHW4__acrt_fp_class@@_NPADI1@Z 1002905a f   libucrt:cvt.obj
 0001:00028152       ?shift_bytes@@YAXQADI0H@Z  10029152 f   libucrt:cvt.obj
 0001:000282d0       ?fputwc_binary_nolock@@YAG_WV__crt_stdio_stream@@@Z 100292d0 f   libucrt:fputwc.obj
 0001:000285f7       ??R<lambda_2af78c5f5901b1372d98f9ab3177dfa6>@@QBEXXZ 100295f7 f   libucrt:wsetlocale.obj
 0001:00028653       ??R<lambda_e378711a6f6581bf7f0efd7cdf97f5d9>@@QBEXXZ 10029653 f   libucrt:wsetlocale.obj
 0001:000289b3       __copytlocinfo_nolock      100299b3 f   libucrt:wsetlocale.obj
 0001:00028e1a       __wsetlocale_get_all       10029e1a f   libucrt:wsetlocale.obj
 0001:00028fb3       __wsetlocale_nolock        10029fb3 f   libucrt:wsetlocale.obj
 0001:00029298       __wsetlocale_set_cat       1002a298 f   libucrt:wsetlocale.obj
 0001:00029664       ?initialize_inherited_file_handles_nolock@@YAXXZ 1002a664 f   libucrt:ioinit.obj
 0001:0002971a       ?initialize_stdio_handles_nolock@@YAXXZ 1002a71a f   libucrt:ioinit.obj
 0001:0002a13c       ??$common_xtox@K_W@@YAHKQA_WII_N@Z 1002b13c f   libucrt:xtoa.obj
 0001:0002a1ca       ??$common_xtox_s@K_W@@YAHKQA_WII_N@Z 1002b1ca f   libucrt:xtoa.obj
 0001:0002a312       ??$common_tcsncat_s@_W@@YAHQA_WIQB_WI@Z 1002b312 f   libucrt:wcsncat_s.obj
 0001:0002a406       ??$common_show_message_box@_W@@YAHQB_W0I@Z 1002b406 f   libucrt:crtmbox.obj
 0001:0002a4df       ??$message_box_wait_thread@_W@@YGKQAX@Z 1002b4df f   libucrt:crtmbox.obj
 0001:0002a50c       ___get_abstract_control_sse2 1002b50c f   libucrt:_fenvutils.obj
 0001:0002a589       ___get_abstract_control_x87 1002b589 f   libucrt:_fenvutils.obj
 0001:0002a5fc       ___get_machine_control     1002b5fc f   libucrt:_fenvutils.obj
 0001:0002a66d       ___get_machine_control_sse2 1002b66d f   libucrt:_fenvutils.obj
 0001:0002a6ed       ___get_machine_status_sse2 1002b6ed f   libucrt:_fenvutils.obj
 0001:0002a74e       ___get_machine_status_x87  1002b74e f   libucrt:_fenvutils.obj
 0001:0002a99a       ?<helper_func_stdcall>@<lambda_5a01b672d24c8480ee9d6bdb50dd3881>@@CGHPA_W@Z 1002b99a f   libucrt:winapi_thunks.obj
 0001:0002aaab       ?try_get_CompareStringEx@@YAP6GHPB_WK0H0HPAU_nlsversioninfo@@PAXJ@ZXZ 1002baab f   libucrt:winapi_thunks.obj
 0001:0002aac5       ?try_get_MessageBoxA@@YAP6GHPAUHWND__@@PBD1I@ZXZ 1002bac5 f   libucrt:winapi_thunks.obj
 0001:0002aadf       ?try_get_MessageBoxW@@YAP6GHPAUHWND__@@PB_W1I@ZXZ 1002badf f   libucrt:winapi_thunks.obj
 0001:0002aaf9       ?try_get_function@@YAPAXW4function_id@?A0x352e5c4b@@QBDQBW4module_id@2@2@Z 1002baf9 f   libucrt:winapi_thunks.obj
 0001:0002ab95       ?try_get_module@@YAPAUHINSTANCE__@@W4module_id@?A0x352e5c4b@@@Z 1002bb95 f   libucrt:winapi_thunks.obj
 0001:0002b73f       ?write_double_translated_ansi_nolock@@YA?AUwrite_result@?A0x47fa6670@@HQBDI@Z 1002c73f f   libucrt:write.obj
 0001:0002b8f2       ?write_double_translated_unicode_nolock@@YA?AUwrite_result@?A0x47fa6670@@QBDI@Z 1002c8f2 f   libucrt:write.obj
 0001:0002b95f       ?write_requires_double_translation_nolock@@YA_NH@Z 1002c95f f   libucrt:write.obj
 0001:0002b9d5       ?write_text_ansi_nolock@@YA?AUwrite_result@?A0x47fa6670@@HQBDI@Z 1002c9d5 f   libucrt:write.obj
 0001:0002bab4       ?write_text_utf16le_nolock@@YA?AUwrite_result@?A0x47fa6670@@HQBDI@Z 1002cab4 f   libucrt:write.obj
 0001:0002bba2       ?write_text_utf8_nolock@@YA?AUwrite_result@?A0x47fa6670@@HQBDI@Z 1002cba2 f   libucrt:write.obj
 0001:0002bfc6       ??$common_refill_and_read_nolock@D@@YAHV__crt_stdio_stream@@@Z 1002cfc6 f   libucrt:_filbuf.obj
 0001:0002c152       ??$common_ftell@_J@@YA_JV__crt_stdio_stream@@@Z 1002d152 f   libucrt:ftell.obj
 0001:0002c1ce       ??$common_ftell_nolock@_J@@YA_JV__crt_stdio_stream@@@Z 1002d1ce f   libucrt:ftell.obj
 0001:0002c363       ?common_ftell_read_mode_nolock@@YA_JV__crt_stdio_stream@@_J1@Z 1002d363 f   libucrt:ftell.obj
 0001:0002c4e7       ?common_ftell_translated_utf8_nolock@@YA_JV__crt_stdio_stream@@_J@Z 1002d4e7 f   libucrt:ftell.obj
 0001:0002c698       ??$common_flush_and_write_nolock@D@@YAHHV__crt_stdio_stream@@@Z 1002d698 f   libucrt:_flsbuf.obj
 0001:0002c7a9       ??$common_flush_and_write_nolock@_W@@YAHHV__crt_stdio_stream@@@Z 1002d7a9 f   libucrt:_flsbuf.obj
 0001:0002c8be       ??$write_buffer_nolock@D@@YA_NDV__crt_stdio_stream@@@Z 1002d8be f   libucrt:_flsbuf.obj
 0001:0002c98a       ??$write_buffer_nolock@_W@@YA_N_WV__crt_stdio_stream@@@Z 1002d98a f   libucrt:_flsbuf.obj
 0001:0002ca74       ??$common_lseek@_J@@YA_JH_JH@Z 1002da74 f   libucrt:lseek.obj
 0001:0002cb79       ??$common_lseek_nolock@_J@@YA_JH_JH@Z 1002db79 f   libucrt:lseek.obj
 0001:0002cc8a       ?_mbstowcs_l_helper@@YAIPA_WPBDIPAU__crt_locale_pointers@@@Z 1002dc8a f   libucrt:mbstowcs.obj
 0001:0002cf06       ?_wcstombs_l_helper@@YAIPADPB_WIPAU__crt_locale_pointers@@@Z 1002df06 f   libucrt:wcstombs.obj
 0001:0002d347       ?InternalGetLocaleInfoA@@YAHQAU__crt_locale_pointers@@QB_WKQADH@Z 1002e347 f   libucrt:getlocaleinfoa.obj
 0001:0002d711       ?__acrt_LCMapStringA_stat@@YAHPAU__crt_locale_pointers@@PB_WKPBDHPADHHH@Z 1002e711 f   libucrt:lcmapstringa.obj
 0001:0002daa0       $$000000                   1002eaa0     libucrt:pow_pentium4.obj
 0001:0002e5c0       $$000000                   1002f5c0     libucrt:87tran.obj
 0001:0002e7c0       $$000000                   1002f7c0     libucrt:87disp.obj
 0001:0002e9c0       $$000000                   1002f9c0     libucrt:genexcep.obj
 0001:0002ea20       $$000000                   1002fa20     libucrt:common.obj
 0001:0002ef26       ?<helper_func_cdecl>@<lambda_62bb7ecb46d0a77b591a051c43eb5ad1>@@CAHPBX0@Z 1002ff26 f   libucrt:argv_wildcards.obj
 0001:0002ef3e       ??$common_expand_argv_wildcards@D@@YAHQAPADQAPAPAD@Z 1002ff3e f   libucrt:argv_wildcards.obj
 0001:0002f0ce       ??$copy_and_add_argument_to_buffer@D@@YAHQBD0IAAV?$argument_list@D@?A0xb0e4b824@@@Z 100300ce f   libucrt:argv_wildcards.obj
 0001:0002f164       ??$expand_argument_wildcards@D@@YAHQAD0AAV?$argument_list@D@?A0xb0e4b824@@@Z 10030164 f   libucrt:argv_wildcards.obj
 0001:0002f43f       ??R<lambda_ad1ced32f4ac17aa236e5ef05d6b3b7c>@@QBEXXZ 1003043f f   libucrt:mbctype.obj
 0001:0002f503       ?CPtoLocaleName@@YAPB_WH@Z 10030503 f   libucrt:mbctype.obj
 0001:0002f541       ?getSystemCP@@YAHH@Z       10030541 f   libucrt:mbctype.obj
 0001:0002f5b4       ?setSBCS@@YAXPAU__crt_multibyte_data@@@Z 100305b4 f   libucrt:mbctype.obj
 0001:0002f619       ?setSBUpLow@@YAXPAU__crt_multibyte_data@@@Z 10030619 f   libucrt:mbctype.obj
 0001:0002f7ad       ?setmbcp_internal@@YAHH_N@Z 100307ad f   libucrt:mbctype.obj
 0001:0002fb78       ?find_end_of_double_null_terminated_sequence@@YAPB_WQB_W@Z 10030b78 f   libucrt:get_environment_from_os.obj
 0001:00031634       _memcpy_s                  10032634 f   libucrt:assert.obj
 0001:00031634       _memcpy_s                  10032634 f   libucrt:strtod.obj
 0001:00031634       _memcpy_s                  10032634 f   libucrt:mbctype.obj
 0001:00031634       _memcpy_s                  10032634 f   libucrt:cfout.obj
 0001:00031e4a       ?free_crt_array_internal@@YAXQAPBXI@Z 10032e4a f   libucrt:inittime.obj
 0001:00031e86       ?initialize_lc_time@@YA_NQAU__crt_lc_time_data@@QAU__crt_locale_data@@@Z 10032e86 f   libucrt:inittime.obj
 0001:00032266       ??$common_tcsncpy_s@_W@@YAHQA_WIQB_WI@Z 10033266 f   libucrt:wcsncpy_s.obj
 0001:0003240d       _GetLocaleNameFromDefault  1003340d f   libucrt:get_qualified_locale.obj
 0001:00032496       _GetLocaleNameFromLangCountry 10033496 f   libucrt:get_qualified_locale.obj
 0001:00032530       _GetLocaleNameFromLanguage 10033530 f   libucrt:get_qualified_locale.obj
 0001:0003258b       _GetPrimaryLen             1003358b f   libucrt:get_qualified_locale.obj
 0001:000325bf       _LangCountryEnumProcEx@12  100335bf f   libucrt:get_qualified_locale.obj
 0001:000328a9       _LanguageEnumProcEx@12     100338a9 f   libucrt:get_qualified_locale.obj
 0001:0003296a       _ProcessCodePage           1003396a f   libucrt:get_qualified_locale.obj
 0001:00032a51       _TestDefaultCountry        10033a51 f   libucrt:get_qualified_locale.obj
 0001:00032a9c       _TranslateName             10033a9c f   libucrt:get_qualified_locale.obj
 0001:00032cda       _CountryEnumProc@4         10033cda f   libucrt:getqloc_downlevel.obj
 0001:00032d83       _GetLcidFromCountry        10033d83 f   libucrt:getqloc_downlevel.obj
 0001:00032dce       _GetLcidFromLangCountry    10033dce f   libucrt:getqloc_downlevel.obj
 0001:00032e69       _GetLcidFromLanguage       10033e69 f   libucrt:getqloc_downlevel.obj
 0001:00032eca       _GetPrimaryLen             10033eca f   libucrt:getqloc_downlevel.obj
 0001:00032ef6       _LangCountryEnumProc@4     10033ef6 f   libucrt:getqloc_downlevel.obj
 0001:00033146       _LanguageEnumProc@4        10034146 f   libucrt:getqloc_downlevel.obj
 0001:0003321e       _LcidFromHexString         1003421e f   libucrt:getqloc_downlevel.obj
 0001:0003326f       _ProcessCodePage           1003426f f   libucrt:getqloc_downlevel.obj
 0001:00033352       _TestDefaultCountry        10034352 f   libucrt:getqloc_downlevel.obj
 0001:00033376       _TestDefaultLanguage       10034376 f   libucrt:getqloc_downlevel.obj
 0001:000333e6       _TranslateName             100343e6 f   libucrt:getqloc_downlevel.obj
 0001:000338d2       ?GetTableIndexFromLocaleName@@YAHPB_W@Z 100348d2 f   libucrt:lcidtoname_downlevel.obj
 0001:00033aa9       ??$translate_text_mode_nolock@D@@YAHHQADI@Z 10034aa9 f   libucrt:read.obj
 0001:00033c00       ??$translate_text_mode_nolock@_W@@YAHHQA_WI@Z 10034c00 f   libucrt:read.obj
 0001:00033dc0       ?translate_ansi_or_utf8_nolock@@YAHHQADIQA_WI@Z 10034dc0 f   libucrt:read.obj
 0001:00033f10       ?translate_utf16_from_console_nolock@@YAHHQA_WI@Z 10034f10 f   libucrt:read.obj
 0001:00034459       ??$common_tcsncpy_s@D@@YAHQADIQBDI@Z 10035459 f   libucrt:strncpy_s.obj
 0001:00034920       ?shortsort@@YAXPAD0IP6AHPBX1@Z@Z 10035920 f   libucrt:qsort.obj
 0001:000349c0       ?swap@@YAXPAD0I@Z          100359c0 f   libucrt:qsort.obj
 0001:00034da0       $$000000                   10035da0     libucrt:strpbrk.obj
 0001:00034e84       ?initialize_multibyte@@YAHXZ 10035e84 f   libucrt:multibyte_initializer.obj
 0001:00034f60       $$000000                   10035f60     libucrt:log10.obj
 0001:000350b0       $$000000                   100360b0     libucrt:ceil_pentium4.obj
 0001:000354e0       $$000000                   100364e0     libucrt:log10_pentium4.obj
 0001:00035830       $$000000                   10036830     libucrt:_strnicm.obj
 0001:00035f70       $$000000                   10036f70     LIBCMT:ulldvrm.obj
 0001:00036010       $$000000                   10037010     LIBCMT:llshl.obj
 0001:00036030       $$000000                   10037030     LIBCMT:ullshr.obj
 0001:00036050       $$000000                   10037050     LIBCMT:_sehprolg4gs_.obj
 0001:000360b0       $$000000                   100370b0     LIBCMT:lldvrm.obj
 0001:00036190       $$000000                   10037190     LIBCMT:lldiv.obj
 0001:00036240       $$000000                   10037240     LIBCMT:_ftol2_.obj
 0001:00036300       $$000000                   10037300     libvcruntime:strrchr.obj
 0001:00036440       $$000000                   10037440     libvcruntime:strchr.obj
 0001:00036620       $$000000                   10037620     libucrt:log_sse2_precise.obj
 0001:000368b0       $$000000                   100378b0     libucrt:pow_sse2_precise.obj
 0001:00037400       $$000000                   10038400     libucrt:sqrt_sse2_precise.obj
 0001:00037500       $$000000                   10038500     libucrt:log.obj
 0001:00037650       $$000000                   10038650     libucrt:sqrt.obj
 0001:00037710       $$000000                   10038710     libucrt:log_pentium4.obj
 0001:00037980       __unwindfunclet$?NODE_SET_METHOD@node@@YAXV?$Local@VObject@v8@@@v8@@PBDP6AXABV?$FunctionCallbackInfo@VValue@v8@@@3@@Z@Z$0 10038980 f   addon.obj
 0001:00037989       __ehhandler$?NODE_SET_METHOD@node@@YAXV?$Local@VObject@v8@@@v8@@PBDP6AXABV?$FunctionCallbackInfo@VValue@v8@@@3@@Z@Z 10038989 f   addon.obj
 0001:000379b0       __unwindfunclet$??0_Locinfo@std@@QAE@PBD@Z$0 100389b0 f   pandamat.obj
 0001:000379b8       __unwindfunclet$??0_Locinfo@std@@QAE@PBD@Z$1 100389b8 f   pandamat.obj
 0001:000379c3       __unwindfunclet$??0_Locinfo@std@@QAE@PBD@Z$2 100389c3 f   pandamat.obj
 0001:000379ce       __unwindfunclet$??0_Locinfo@std@@QAE@PBD@Z$3 100389ce f   pandamat.obj
 0001:000379d9       __unwindfunclet$??0_Locinfo@std@@QAE@PBD@Z$4 100389d9 f   pandamat.obj
 0001:000379e4       __unwindfunclet$??0_Locinfo@std@@QAE@PBD@Z$5 100389e4 f   pandamat.obj
 0001:000379ef       __unwindfunclet$??0_Locinfo@std@@QAE@PBD@Z$6 100389ef f   pandamat.obj
 0001:000379fa       __unwindfunclet$??0_Locinfo@std@@QAE@PBD@Z$7 100389fa f   pandamat.obj
 0001:00037a02       __ehhandler$??0_Locinfo@std@@QAE@PBD@Z 10038a02 f   pandamat.obj
 0001:00037a20       __unwindfunclet$?_Getcat@?$ctype@D@std@@SAIPAPBVfacet@locale@2@PBV42@@Z$0 10038a20 f   pandamat.obj
 0001:00037a2f       __ehhandler$?_Getcat@?$ctype@D@std@@SAIPAPBVfacet@locale@2@PBV42@@Z 10038a2f f   pandamat.obj
 0001:00037a50       __unwindfunclet$?_Makestr@_System_error@std@@CA?AV?$basic_string@DU?$char_traits@D@std@@V?$allocator@D@2@@2@Verror_code@2@V32@@Z$0 10038a50 f   pandamat.obj
 0001:00037a58       __unwindfunclet$?_Makestr@_System_error@std@@CA?AV?$basic_string@DU?$char_traits@D@std@@V?$allocator@D@2@@2@Verror_code@2@V32@@Z$1 10038a58 f   pandamat.obj
 0001:00037a60       __ehhandler$?_Makestr@_System_error@std@@CA?AV?$basic_string@DU?$char_traits@D@std@@V?$allocator@D@2@@2@Verror_code@2@V32@@Z 10038a60 f   pandamat.obj
 0001:00037a90       __unwindfunclet$??0system_error@std@@QAE@Verror_code@1@PBD@Z$0 10038a90 f   pandamat.obj
 0001:00037a98       __ehhandler$??0system_error@std@@QAE@Verror_code@1@PBD@Z 10038a98 f   pandamat.obj
 0001:00037ac0       __unwindfunclet$?clear@ios_base@std@@QAEXH_N@Z$0 10038ac0 f   pandamat.obj
 0001:00037ac8       __unwindfunclet$?clear@ios_base@std@@QAEXH_N@Z$1 10038ac8 f   pandamat.obj
 0001:00037ad0       __unwindfunclet$?clear@ios_base@std@@QAEXH_N@Z$2 10038ad0 f   pandamat.obj
 0001:00037ad8       __ehhandler$?clear@ios_base@std@@QAEXH_N@Z 10038ad8 f   pandamat.obj
 0001:00037b00       __unwindfunclet$?_Init@ios_base@std@@IAEXXZ$0 10038b00 f   pandamat.obj
 0001:00037b0f       __ehhandler$?_Init@ios_base@std@@IAEXXZ 10038b0f f   pandamat.obj
 0001:00037b30       __unwindfunclet$?NODE_SET_PROTOTYPE_METHOD@node@@YAXV?$Local@VFunctionTemplate@v8@@@v8@@PBDP6AXABV?$FunctionCallbackInfo@VValue@v8@@@3@@Z@Z$0 10038b30 f   pandamat.obj
 0001:00037b39       __ehhandler$?NODE_SET_PROTOTYPE_METHOD@node@@YAXV?$Local@VFunctionTemplate@v8@@@v8@@PBDP6AXABV?$FunctionCallbackInfo@VValue@v8@@@3@@Z@Z 10038b39 f   pandamat.obj
 0001:00037b60       __unwindfunclet$??1?$pair@IV?$Mat@N@arma@@@std@@QAE@XZ$0 10038b60 f   pandapool.obj
 0001:00037b60       __unwindfunclet$??1?$quasi_unwrap@V?$subview_row@N@arma@@@arma@@QAE@XZ$1 10038b60 f   normalize.obj
 0001:00037b60       __unwindfunclet$??1?$Proxy@V?$Op@V?$Mat@N@arma@@Vop_repmat@2@@arma@@@arma@@QAE@XZ$0 10038b60 f   normalize.obj
 0001:00037b60       __unwindfunclet$??1?$pair@V?$basic_string@DU?$char_traits@D@std@@V?$allocator@D@2@@std@@V?$Mat@N@arma@@@std@@QAE@XZ$0 10038b60 f   pandapool.obj
 0001:00037b60       __unwindfunclet$??1?$pair@$$CBV?$basic_string@DU?$char_traits@D@std@@V?$allocator@D@2@@std@@V?$Mat@N@arma@@@std@@QAE@XZ$0 10038b60 f   pandamat.obj
 0001:00037b60       __unwindfunclet$??1?$Col@N@arma@@QAE@XZ$0 10038b60 f   normalize.obj
 0001:00037b60       __unwindfunclet$??1?$quasi_unwrap@V?$subview_col@N@arma@@@arma@@QAE@XZ$1 10038b60 f   normalize.obj
 0001:00037b60       __unwindfunclet$??1ObjectWrap@node@@UAE@XZ$0 10038b60 f   pandamat.obj
 0001:00037b60       __unwindfunclet$??1?$eGlue@V?$Mat@N@arma@@V?$Op@V?$Mat@N@arma@@Vop_repmat@2@@2@Veglue_minus@2@@arma@@QAE@XZ$1 10038b60 f   normalize.obj
 0001:00037b60       __unwindfunclet$??1?$Row@N@arma@@QAE@XZ$0 10038b60 f   normalize.obj
 0001:00037b60       __unwindfunclet$??1?$quasi_unwrap@V?$eGlue@V?$subview_row@N@arma@@V12@Veglue_minus@2@@arma@@@arma@@QAE@XZ$1 10038b60 f   sqrtdist.obj
 0001:00037b66       __ehhandler$??1?$quasi_unwrap@V?$subview_row@N@arma@@@arma@@QAE@XZ 10038b66 f   normalize.obj
 0001:00037b66       __ehhandler$??1?$quasi_unwrap@V?$subview_col@N@arma@@@arma@@QAE@XZ 10038b66 f   normalize.obj
 0001:00037b66       __ehhandler$??1?$pair@$$CBV?$basic_string@DU?$char_traits@D@std@@V?$allocator@D@2@@std@@V?$Mat@N@arma@@@std@@QAE@XZ 10038b66 f   pandamat.obj
 0001:00037b66       __ehhandler$??1?$pair@V?$basic_string@DU?$char_traits@D@std@@V?$allocator@D@2@@std@@V?$Mat@N@arma@@@std@@QAE@XZ 10038b66 f   pandapool.obj
 0001:00037b66       __ehhandler$??1?$quasi_unwrap@V?$eGlue@V?$subview_row@N@arma@@V12@Veglue_minus@2@@arma@@@arma@@QAE@XZ 10038b66 f   sqrtdist.obj
 0001:00037b66       __ehhandler$??1?$Row@N@arma@@QAE@XZ 10038b66 f   normalize.obj
 0001:00037b66       __ehhandler$??1?$pair@IV?$Mat@N@arma@@@std@@QAE@XZ 10038b66 f   pandapool.obj
 0001:00037b66       __ehhandler$??1?$Col@N@arma@@QAE@XZ 10038b66 f   normalize.obj
 0001:00037b66       __ehhandler$??1?$eGlue@V?$Mat@N@arma@@V?$Op@V?$Mat@N@arma@@Vop_repmat@2@@2@Veglue_minus@2@@arma@@QAE@XZ 10038b66 f   normalize.obj
 0001:00037b66       __ehhandler$??1ObjectWrap@node@@UAE@XZ 10038b66 f   pandamat.obj
 0001:00037b66       __ehhandler$??1?$Proxy@V?$Op@V?$Mat@N@arma@@Vop_repmat@2@@arma@@@arma@@QAE@XZ 10038b66 f   normalize.obj
 0001:00037b90       __unwindfunclet$??1OperationData@@QAE@XZ$5 10038b90 f   pandamat.obj
 0001:00037b96       __ehhandler$??1OperationData@@QAE@XZ 10038b96 f   pandamat.obj
 0001:00037bc0       __unwindfunclet$??__F?constructor@PandaMat@@2V?$Persistent@VFunction@v8@@V?$NonCopyablePersistentTraits@VFunction@v8@@@2@@v8@@A@@YAXXZ$0 10038bc0 f   pandamat.obj
 0001:00037bc6       __ehhandler$??__F?constructor@PandaMat@@2V?$Persistent@VFunction@v8@@V?$NonCopyablePersistentTraits@VFunction@v8@@@2@@v8@@A@@YAXXZ 10038bc6 f   pandamat.obj
 0001:00037bf0       __unwindfunclet$?setState@PandaMat@@IAEXIW4exceptions@@V?$basic_string@DU?$char_traits@D@std@@V?$allocator@D@2@@std@@@Z$0 10038bf0 f   pandamat.obj
 0001:00037bf8       __ehhandler$?setState@PandaMat@@IAEXIW4exceptions@@V?$basic_string@DU?$char_traits@D@std@@V?$allocator@D@2@@std@@@Z 10038bf8 f   pandamat.obj
 0001:00037c20       __unwindfunclet$?send@PandaMat@@IAEXIPAVOperation@@PBDI@Z$0 10038c20 f   pandamat.obj
 0001:00037c28       __ehhandler$?send@PandaMat@@IAEXIPAVOperation@@PBDI@Z 10038c28 f   pandamat.obj
 0001:00037c50       __unwindfunclet$?getOperation@PandaMat@@IAEPAVOperation@@IPBD@Z$0 10038c50 f   pandamat.obj
 0001:00037c58       __unwindfunclet$?getOperation@PandaMat@@IAEPAVOperation@@IPBD@Z$3 10038c58 f   pandamat.obj
 0001:00037c60       __ehhandler$?getOperation@PandaMat@@IAEPAVOperation@@IPBD@Z 10038c60 f   pandamat.obj
 0001:00037c90       __unwindfunclet$?packResult@PandaMat@@IAE?AV?$Local@VObject@v8@@@v8@@I@Z$0 10038c90 f   pandamat.obj
 0001:00037c98       __ehhandler$?packResult@PandaMat@@IAE?AV?$Local@VObject@v8@@@v8@@I@Z 10038c98 f   pandamat.obj
 0001:00037cc0       __unwindfunclet$?Operate@PandaMat@@CAXABV?$FunctionCallbackInfo@VValue@v8@@@v8@@@Z$4 10038cc0 f   pandamat.obj
 0001:00037cc8       __unwindfunclet$?Operate@PandaMat@@CAXABV?$FunctionCallbackInfo@VValue@v8@@@v8@@@Z$5 10038cc8 f   pandamat.obj
 0001:00037cd1       __unwindfunclet$?Operate@PandaMat@@CAXABV?$FunctionCallbackInfo@VValue@v8@@@v8@@@Z$6 10038cd1 f   pandamat.obj
 0001:00037cd9       __unwindfunclet$?Operate@PandaMat@@CAXABV?$FunctionCallbackInfo@VValue@v8@@@v8@@@Z$7 10038cd9 f   pandamat.obj
 0001:00037ce2       __unwindfunclet$?Operate@PandaMat@@CAXABV?$FunctionCallbackInfo@VValue@v8@@@v8@@@Z$9 10038ce2 f   pandamat.obj
 0001:00037ceb       __unwindfunclet$?Operate@PandaMat@@CAXABV?$FunctionCallbackInfo@VValue@v8@@@v8@@@Z$10 10038ceb f   pandamat.obj
 0001:00037cf4       __unwindfunclet$?Operate@PandaMat@@CAXABV?$FunctionCallbackInfo@VValue@v8@@@v8@@@Z$11 10038cf4 f   pandamat.obj
 0001:00037cfd       __unwindfunclet$?Operate@PandaMat@@CAXABV?$FunctionCallbackInfo@VValue@v8@@@v8@@@Z$12 10038cfd f   pandamat.obj
 0001:00037d05       __unwindfunclet$?Operate@PandaMat@@CAXABV?$FunctionCallbackInfo@VValue@v8@@@v8@@@Z$14 10038d05 f   pandamat.obj
 0001:00037d0d       __ehhandler$?Operate@PandaMat@@CAXABV?$FunctionCallbackInfo@VValue@v8@@@v8@@@Z 10038d0d f   pandamat.obj
 0001:00037d40       __unwindfunclet$?saveData@PandaMat@@CAXABV?$FunctionCallbackInfo@VValue@v8@@@v8@@@Z$4 10038d40 f   pandamat.obj
 0001:00037d48       __unwindfunclet$?saveData@PandaMat@@CAXABV?$FunctionCallbackInfo@VValue@v8@@@v8@@@Z$6 10038d48 f   pandamat.obj
 0001:00037d50       __unwindfunclet$?saveData@PandaMat@@CAXABV?$FunctionCallbackInfo@VValue@v8@@@v8@@@Z$3 10038d50 f   pandamat.obj
 0001:00037d59       __ehhandler$?saveData@PandaMat@@CAXABV?$FunctionCallbackInfo@VValue@v8@@@v8@@@Z 10038d59 f   pandamat.obj
 0001:00037d80       __unwindfunclet$?removeData@PandaMat@@CAXABV?$FunctionCallbackInfo@VValue@v8@@@v8@@@Z$2 10038d80 f   pandamat.obj
 0001:00037d89       __ehhandler$?removeData@PandaMat@@CAXABV?$FunctionCallbackInfo@VValue@v8@@@v8@@@Z 10038d89 f   pandamat.obj
 0001:00037db0       __unwindfunclet$?getData@PandaMat@@CAXABV?$FunctionCallbackInfo@VValue@v8@@@v8@@@Z$3 10038db0 f   pandamat.obj
 0001:00037db9       __unwindfunclet$?getData@PandaMat@@CAXABV?$FunctionCallbackInfo@VValue@v8@@@v8@@@Z$4 10038db9 f   pandamat.obj
 0001:00037dc1       __unwindfunclet$?getData@PandaMat@@CAXABV?$FunctionCallbackInfo@VValue@v8@@@v8@@@Z$6 10038dc1 f   pandamat.obj
 0001:00037dc9       __ehhandler$?getData@PandaMat@@CAXABV?$FunctionCallbackInfo@VValue@v8@@@v8@@@Z 10038dc9 f   pandamat.obj
 0001:00037df0       __unwindfunclet$?New@PandaMat@@CAXABV?$FunctionCallbackInfo@VValue@v8@@@v8@@@Z$0 10038df0 f   pandamat.obj
 0001:00037e02       __unwindfunclet$?New@PandaMat@@CAXABV?$FunctionCallbackInfo@VValue@v8@@@v8@@@Z$1 10038e02 f   pandamat.obj
 0001:00037e0a       __unwindfunclet$?New@PandaMat@@CAXABV?$FunctionCallbackInfo@VValue@v8@@@v8@@@Z$2 10038e0a f   pandamat.obj
 0001:00037e15       __ehhandler$?New@PandaMat@@CAXABV?$FunctionCallbackInfo@VValue@v8@@@v8@@@Z 10038e15 f   pandamat.obj
 0001:00037e30       __unwindfunclet$?flush@?$basic_ostream@DU?$char_traits@D@std@@@std@@QAEAAV12@XZ$0 10038e30 f   pandamat.obj
 0001:00037e38       __ehhandler$?flush@?$basic_ostream@DU?$char_traits@D@std@@@std@@QAEAAV12@XZ 10038e38 f   pandamat.obj
 0001:00037e60       __unwindfunclet$?put@?$basic_ostream@DU?$char_traits@D@std@@@std@@QAEAAV12@D@Z$1 10038e60 f   pandamat.obj
 0001:00037e68       __unwindfunclet$?put@?$basic_ostream@DU?$char_traits@D@std@@@std@@QAEAAV12@D@Z$0 10038e68 f   pandamat.obj
 0001:00037e70       __ehhandler$?put@?$basic_ostream@DU?$char_traits@D@std@@@std@@QAEAAV12@D@Z 10038e70 f   pandamat.obj
 0001:00037e90       __unwindfunclet$??6?$basic_ostream@DU?$char_traits@D@std@@@std@@QAEAAV01@I@Z$2 10038e90 f   pandamat.obj
 0001:00037e98       __unwindfunclet$??6?$basic_ostream@DU?$char_traits@D@std@@@std@@QAEAAV01@I@Z$0 10038e98 f   pandamat.obj
 0001:00037ea0       __unwindfunclet$??6?$basic_ostream@DU?$char_traits@D@std@@@std@@QAEAAV01@I@Z$1 10038ea0 f   pandamat.obj
 0001:00037ea8       __ehhandler$??6?$basic_ostream@DU?$char_traits@D@std@@@std@@QAEAAV01@I@Z 10038ea8 f   pandamat.obj
 0001:00037ed0       __unwindfunclet$??0sentry@?$basic_ostream@DU?$char_traits@D@std@@@std@@QAE@AAV12@@Z$0 10038ed0 f   pandamat.obj
 0001:00037ed8       __ehhandler$??0sentry@?$basic_ostream@DU?$char_traits@D@std@@@std@@QAE@AAV12@@Z 10038ed8 f   pandamat.obj
 0001:00037f00       __unwindfunclet$?do_put@?$num_put@DV?$ostreambuf_iterator@DU?$char_traits@D@std@@@std@@@std@@MBE?AV?$ostreambuf_iterator@DU?$char_traits@D@std@@@2@V32@AAVios_base@2@DO@Z$0 10038f00 f   pandamat.obj
 0001:00037f00       __unwindfunclet$?do_put@?$num_put@DV?$ostreambuf_iterator@DU?$char_traits@D@std@@@std@@@std@@MBE?AV?$ostreambuf_iterator@DU?$char_traits@D@std@@@2@V32@AAVios_base@2@DN@Z$0 10038f00 f   pandamat.obj
 0001:00037f08       __ehhandler$?do_put@?$num_put@DV?$ostreambuf_iterator@DU?$char_traits@D@std@@@std@@@std@@MBE?AV?$ostreambuf_iterator@DU?$char_traits@D@std@@@2@V32@AAVios_base@2@DN@Z 10038f08 f   pandamat.obj
 0001:00037f08       __ehhandler$?do_put@?$num_put@DV?$ostreambuf_iterator@DU?$char_traits@D@std@@@std@@@std@@MBE?AV?$ostreambuf_iterator@DU?$char_traits@D@std@@@2@V32@AAVios_base@2@DO@Z 10038f08 f   pandamat.obj
 0001:00037f30       __unwindfunclet$?do_put@?$num_put@DV?$ostreambuf_iterator@DU?$char_traits@D@std@@@std@@@std@@MBE?AV?$ostreambuf_iterator@DU?$char_traits@D@std@@@2@V32@AAVios_base@2@D_N@Z$0 10038f30 f   pandamat.obj
 0001:00037f38       __unwindfunclet$?do_put@?$num_put@DV?$ostreambuf_iterator@DU?$char_traits@D@std@@@std@@@std@@MBE?AV?$ostreambuf_iterator@DU?$char_traits@D@std@@@2@V32@AAVios_base@2@D_N@Z$1 10038f38 f   pandamat.obj
 0001:00037f40       __ehhandler$?do_put@?$num_put@DV?$ostreambuf_iterator@DU?$char_traits@D@std@@@std@@@std@@MBE?AV?$ostreambuf_iterator@DU?$char_traits@D@std@@@2@V32@AAVios_base@2@D_N@Z 10038f40 f   pandamat.obj
 0001:00037f70       __unwindfunclet$??0?$basic_ostream@DU?$char_traits@D@std@@@std@@QAE@PAV?$basic_streambuf@DU?$char_traits@D@std@@@1@_N@Z$0 10038f70 f   pandamat.obj
 0001:00037f8c       __ehhandler$??0?$basic_ostream@DU?$char_traits@D@std@@@std@@QAE@PAV?$basic_streambuf@DU?$char_traits@D@std@@@1@_N@Z 10038f8c f   pandamat.obj
 0001:00037fb0       __unwindfunclet$?_Iput@?$num_put@DV?$ostreambuf_iterator@DU?$char_traits@D@std@@@std@@@std@@ABA?AV?$ostreambuf_iterator@DU?$char_traits@D@std@@@2@V32@AAVios_base@2@DPADI@Z$0 10038fb0 f   pandamat.obj
 0001:00037fb8       __unwindfunclet$?_Iput@?$num_put@DV?$ostreambuf_iterator@DU?$char_traits@D@std@@@std@@@std@@ABA?AV?$ostreambuf_iterator@DU?$char_traits@D@std@@@2@V32@AAVios_base@2@DPADI@Z$1 10038fb8 f   pandamat.obj
 0001:00037fc0       __unwindfunclet$?_Iput@?$num_put@DV?$ostreambuf_iterator@DU?$char_traits@D@std@@@std@@@std@@ABA?AV?$ostreambuf_iterator@DU?$char_traits@D@std@@@2@V32@AAVios_base@2@DPADI@Z$2 10038fc0 f   pandamat.obj
 0001:00037fc8       __unwindfunclet$?_Iput@?$num_put@DV?$ostreambuf_iterator@DU?$char_traits@D@std@@@std@@@std@@ABA?AV?$ostreambuf_iterator@DU?$char_traits@D@std@@@2@V32@AAVios_base@2@DPADI@Z$3 10038fc8 f   pandamat.obj
 0001:00037fd0       __ehhandler$?_Iput@?$num_put@DV?$ostreambuf_iterator@DU?$char_traits@D@std@@@std@@@std@@ABA?AV?$ostreambuf_iterator@DU?$char_traits@D@std@@@2@V32@AAVios_base@2@DPADI@Z 10038fd0 f   pandamat.obj
 0001:00038000       __unwindfunclet$?_Fput@?$num_put@DV?$ostreambuf_iterator@DU?$char_traits@D@std@@@std@@@std@@ABA?AV?$ostreambuf_iterator@DU?$char_traits@D@std@@@2@V32@AAVios_base@2@DPBDI@Z$0 10039000 f   pandamat.obj
 0001:00038008       __unwindfunclet$?_Fput@?$num_put@DV?$ostreambuf_iterator@DU?$char_traits@D@std@@@std@@@std@@ABA?AV?$ostreambuf_iterator@DU?$char_traits@D@std@@@2@V32@AAVios_base@2@DPBDI@Z$1 10039008 f   pandamat.obj
 0001:00038010       __unwindfunclet$?_Fput@?$num_put@DV?$ostreambuf_iterator@DU?$char_traits@D@std@@@std@@@std@@ABA?AV?$ostreambuf_iterator@DU?$char_traits@D@std@@@2@V32@AAVios_base@2@DPBDI@Z$2 10039010 f   pandamat.obj
 0001:00038018       __unwindfunclet$?_Fput@?$num_put@DV?$ostreambuf_iterator@DU?$char_traits@D@std@@@std@@@std@@ABA?AV?$ostreambuf_iterator@DU?$char_traits@D@std@@@2@V32@AAVios_base@2@DPBDI@Z$3 10039018 f   pandamat.obj
 0001:00038020       __ehhandler$?_Fput@?$num_put@DV?$ostreambuf_iterator@DU?$char_traits@D@std@@@std@@@std@@ABA?AV?$ostreambuf_iterator@DU?$char_traits@D@std@@@2@V32@AAVios_base@2@DPBDI@Z 10039020 f   pandamat.obj
 0001:00038050       __unwindfunclet$??0?$basic_streambuf@DU?$char_traits@D@std@@@std@@IAE@XZ$0 10039050 f   pandamat.obj
 0001:0003805f       __ehhandler$??0?$basic_streambuf@DU?$char_traits@D@std@@@std@@IAE@XZ 1003905f f   pandamat.obj
 0001:00038080       __unwindfunclet$?erase@?$_Tree@V?$_Tmap_traits@IV?$Mat@N@arma@@U?$less@I@std@@V?$allocator@U?$pair@$$CBIV?$Mat@N@arma@@@std@@@4@$0A@@std@@@std@@QAE?AV?$_Tree_iterator@V?$_Tree_val@U?$_Tree_simple_types@U?$pair@$$CBIV?$Mat@N@arma@@@std@@@std@@@std@@@2@V?$_Tree_const_iterator@V?$_Tree_val@U?$_Tree_simple_types@U?$pair@$$CBIV?$Mat@N@arma@@@std@@@std@@@std@@@2@@Z$2 10039080 f   pandamat.obj
 0001:00038080       __unwindfunclet$?erase@?$_Tree@V?$_Tmap_traits@V?$basic_string@DU?$char_traits@D@std@@V?$allocator@D@2@@std@@V?$Mat@N@arma@@U?$less@V?$basic_string@DU?$char_traits@D@std@@V?$allocator@D@2@@std@@@2@V?$allocator@U?$pair@$$CBV?$basic_string@DU?$char_traits@D@std@@V?$allocator@D@2@@std@@V?$Mat@N@arma@@@std@@@2@$0A@@std@@@std@@QAE?AV?$_Tree_iterator@V?$_Tree_val@U?$_Tree_simple_types@U?$pair@$$CBV?$basic_string@DU?$char_traits@D@std@@V?$allocator@D@2@@std@@V?$Mat@N@arma@@@std@@@std@@@std@@@2@V?$_Tree_const_iterator@V?$_Tree_val@U?$_Tree_simple_types@U?$pair@$$CBV?$basic_string@DU?$char_traits@D@std@@V?$allocator@D@2@@std@@V?$Mat@N@arma@@@std@@@std@@@std@@@2@@Z$2 10039080 f   pandamat.obj
 0001:00038086       __ehhandler$?erase@?$_Tree@V?$_Tmap_traits@V?$basic_string@DU?$char_traits@D@std@@V?$allocator@D@2@@std@@V?$Mat@N@arma@@U?$less@V?$basic_string@DU?$char_traits@D@std@@V?$allocator@D@2@@std@@@2@V?$allocator@U?$pair@$$CBV?$basic_string@DU?$char_traits@D@std@@V?$allocator@D@2@@std@@V?$Mat@N@arma@@@std@@@2@$0A@@std@@@std@@QAE?AV?$_Tree_iterator@V?$_Tree_val@U?$_Tree_simple_types@U?$pair@$$CBV?$basic_string@DU?$char_traits@D@std@@V?$allocator@D@2@@std@@V?$Mat@N@arma@@@std@@@std@@@std@@@2@V?$_Tree_const_iterator@V?$_Tree_val@U?$_Tree_simple_types@U?$pair@$$CBV?$basic_string@DU?$char_traits@D@std@@V?$allocator@D@2@@std@@V?$Mat@N@arma@@@std@@@std@@@std@@@2@@Z 10039086 f   pandamat.obj
 0001:00038086       __ehhandler$?erase@?$_Tree@V?$_Tmap_traits@IV?$Mat@N@arma@@U?$less@I@std@@V?$allocator@U?$pair@$$CBIV?$Mat@N@arma@@@std@@@4@$0A@@std@@@std@@QAE?AV?$_Tree_iterator@V?$_Tree_val@U?$_Tree_simple_types@U?$pair@$$CBIV?$Mat@N@arma@@@std@@@std@@@std@@@2@V?$_Tree_const_iterator@V?$_Tree_val@U?$_Tree_simple_types@U?$pair@$$CBIV?$Mat@N@arma@@@std@@@std@@@std@@@2@@Z 10039086 f   pandamat.obj
 0001:000380b0       __unwindfunclet$?widen@?$basic_ios@DU?$char_traits@D@std@@@std@@QBEDD@Z$0 100390b0 f   pandamat.obj
 0001:000380b8       __ehhandler$?widen@?$basic_ios@DU?$char_traits@D@std@@@std@@QBEDD@Z 100390b8 f   pandamat.obj
 0001:000380e0       __unwindfunclet$?_Erase@?$_Tree@V?$_Tmap_traits@IV?$Mat@N@arma@@U?$less@I@std@@V?$allocator@U?$pair@$$CBIV?$Mat@N@arma@@@std@@@4@$0A@@std@@@std@@IAEXPAU?$_Tree_node@U?$pair@$$CBIV?$Mat@N@arma@@@std@@PAX@2@@Z$2 100390e0 f   pandamat.obj
 0001:000380e0       __unwindfunclet$??$_Insert_at@AAU?$pair@$$CBIV?$Mat@N@arma@@@std@@PAU?$_Tree_node@U?$pair@$$CBIV?$Mat@N@arma@@@std@@PAX@2@@?$_Tree@V?$_Tmap_traits@IV?$Mat@N@arma@@U?$less@I@std@@V?$allocator@U?$pair@$$CBIV?$Mat@N@arma@@@std@@@4@$0A@@std@@@std@@IAE?AV?$_Tree_iterator@V?$_Tree_val@U?$_Tree_simple_types@U?$pair@$$CBIV?$Mat@N@arma@@@std@@@std@@@std@@@1@_NPAU?$_Tree_node@U?$pair@$$CBIV?$Mat@N@arma@@@std@@PAX@1@AAU?$pair@$$CBIV?$Mat@N@arma@@@1@1@Z$2 100390e0 f   pandapool.obj
 0001:000380e6       __ehhandler$?_Erase@?$_Tree@V?$_Tmap_traits@IV?$Mat@N@arma@@U?$less@I@std@@V?$allocator@U?$pair@$$CBIV?$Mat@N@arma@@@std@@@4@$0A@@std@@@std@@IAEXPAU?$_Tree_node@U?$pair@$$CBIV?$Mat@N@arma@@@std@@PAX@2@@Z 100390e6 f   pandamat.obj
 0001:000380e6       __ehhandler$??$_Insert_at@AAU?$pair@$$CBIV?$Mat@N@arma@@@std@@PAU?$_Tree_node@U?$pair@$$CBIV?$Mat@N@arma@@@std@@PAX@2@@?$_Tree@V?$_Tmap_traits@IV?$Mat@N@arma@@U?$less@I@std@@V?$allocator@U?$pair@$$CBIV?$Mat@N@arma@@@std@@@4@$0A@@std@@@std@@IAE?AV?$_Tree_iterator@V?$_Tree_val@U?$_Tree_simple_types@U?$pair@$$CBIV?$Mat@N@arma@@@std@@@std@@@std@@@1@_NPAU?$_Tree_node@U?$pair@$$CBIV?$Mat@N@arma@@@std@@PAX@1@AAU?$pair@$$CBIV?$Mat@N@arma@@@1@1@Z 100390e6 f   pandapool.obj
 0001:00038110       __unwindfunclet$?_Erase@?$_Tree@V?$_Tmap_traits@V?$basic_string@DU?$char_traits@D@std@@V?$allocator@D@2@@std@@V?$Mat@N@arma@@U?$less@V?$basic_string@DU?$char_traits@D@std@@V?$allocator@D@2@@std@@@2@V?$allocator@U?$pair@$$CBV?$basic_string@DU?$char_traits@D@std@@V?$allocator@D@2@@std@@V?$Mat@N@arma@@@std@@@2@$0A@@std@@@std@@IAEXPAU?$_Tree_node@U?$pair@$$CBV?$basic_string@DU?$char_traits@D@std@@V?$allocator@D@2@@std@@V?$Mat@N@arma@@@std@@PAX@2@@Z$2 10039110 f   pandamat.obj
 0001:00038116       __ehhandler$?_Erase@?$_Tree@V?$_Tmap_traits@V?$basic_string@DU?$char_traits@D@std@@V?$allocator@D@2@@std@@V?$Mat@N@arma@@U?$less@V?$basic_string@DU?$char_traits@D@std@@V?$allocator@D@2@@std@@@2@V?$allocator@U?$pair@$$CBV?$basic_string@DU?$char_traits@D@std@@V?$allocator@D@2@@std@@V?$Mat@N@arma@@@std@@@2@$0A@@std@@@std@@IAEXPAU?$_Tree_node@U?$pair@$$CBV?$basic_string@DU?$char_traits@D@std@@V?$allocator@D@2@@std@@V?$Mat@N@arma@@@std@@PAX@2@@Z 10039116 f   pandamat.obj
 0001:00038140       __unwindfunclet$??$use_facet@V?$ctype@D@std@@@std@@YAABV?$ctype@D@0@ABVlocale@0@@Z$0 10039140 f   pandamat.obj
 0001:00038148       __ehhandler$??$use_facet@V?$ctype@D@std@@@std@@YAABV?$ctype@D@0@ABVlocale@0@@Z 10039148 f   pandamat.obj
 0001:00038170       __ehhandler$??1?$Mat@N@arma@@QAE@XZ 10039170 f   pandamat.obj
 0001:00038170       __ehhandler$??1_Init_atexit@@QAE@XZ 10039170 f   libcpmt:iosptrs.obj
 0001:00038170       __ehhandler$??1_Locimp@locale@std@@MAE@XZ 10039170 f   libcpmt:locale0.obj
 0001:00038170       __ehhandler$??1?$basic_filebuf@DU?$char_traits@D@std@@@std@@UAE@XZ 10039170 f   libcpmt:cout.obj
 0001:00038190       __unwindfunclet$??$?6U?$char_traits@D@std@@@std@@YAAAV?$basic_ostream@DU?$char_traits@D@std@@@0@AAV10@PBD@Z$1 10039190 f   pandamat.obj
 0001:00038190       __unwindfunclet$??$?6DU?$char_traits@D@std@@V?$allocator@D@1@@std@@YAAAV?$basic_ostream@DU?$char_traits@D@std@@@0@AAV10@ABV?$basic_string@DU?$char_traits@D@std@@V?$allocator@D@2@@0@@Z$1 10039190 f   pandapool.obj
 0001:00038198       __unwindfunclet$??$?6DU?$char_traits@D@std@@V?$allocator@D@1@@std@@YAAAV?$basic_ostream@DU?$char_traits@D@std@@@0@AAV10@ABV?$basic_string@DU?$char_traits@D@std@@V?$allocator@D@2@@0@@Z$0 10039198 f   pandapool.obj
 0001:00038198       __unwindfunclet$??$?6U?$char_traits@D@std@@@std@@YAAAV?$basic_ostream@DU?$char_traits@D@std@@@0@AAV10@PBD@Z$0 10039198 f   pandamat.obj
 0001:000381a0       __ehhandler$??$?6DU?$char_traits@D@std@@V?$allocator@D@1@@std@@YAAAV?$basic_ostream@DU?$char_traits@D@std@@@0@AAV10@ABV?$basic_string@DU?$char_traits@D@std@@V?$allocator@D@2@@0@@Z 100391a0 f   pandapool.obj
 0001:000381a0       __ehhandler$??$?6U?$char_traits@D@std@@@std@@YAAAV?$basic_ostream@DU?$char_traits@D@std@@@0@AAV10@PBD@Z 100391a0 f   pandamat.obj
 0001:000381c0       __unwindfunclet$??$?6U?$char_traits@D@std@@@std@@YAAAV?$basic_ostream@DU?$char_traits@D@std@@@0@AAV10@D@Z$1 100391c0 f   pandamat.obj
 0001:000381c8       __unwindfunclet$??$?6U?$char_traits@D@std@@@std@@YAAAV?$basic_ostream@DU?$char_traits@D@std@@@0@AAV10@D@Z$0 100391c8 f   pandamat.obj
 0001:000381d0       __ehhandler$??$?6U?$char_traits@D@std@@@std@@YAAAV?$basic_ostream@DU?$char_traits@D@std@@@0@AAV10@D@Z 100391d0 f   pandamat.obj
 0001:000381f0       __unwindfunclet$??$num2str@H@@YA?AV?$basic_string@DU?$char_traits@D@std@@V?$allocator@D@2@@std@@H@Z$0 100391f0 f   pandapool.obj
 0001:000381f0       __unwindfunclet$??$num2str@I@@YA?AV?$basic_string@DU?$char_traits@D@std@@V?$allocator@D@2@@std@@I@Z$0 100391f0 f   pandamat.obj
 0001:000381fb       __ehhandler$??$num2str@I@@YA?AV?$basic_string@DU?$char_traits@D@std@@V?$allocator@D@2@@std@@I@Z 100391fb f   pandamat.obj
 0001:000381fb       __ehhandler$??$num2str@H@@YA?AV?$basic_string@DU?$char_traits@D@std@@V?$allocator@D@2@@std@@H@Z 100391fb f   pandapool.obj
 0001:00038220       __unwindfunclet$??$use_facet@V?$numpunct@D@std@@@std@@YAABV?$numpunct@D@0@ABVlocale@0@@Z$0 10039220 f   pandamat.obj
 0001:00038220       __unwindfunclet$??$use_facet@V?$num_put@DV?$ostreambuf_iterator@DU?$char_traits@D@std@@@std@@@std@@@std@@YAABV?$num_put@DV?$ostreambuf_iterator@DU?$char_traits@D@std@@@std@@@0@ABVlocale@0@@Z$0 10039220 f   pandamat.obj
 0001:00038228       __ehhandler$??$use_facet@V?$numpunct@D@std@@@std@@YAABV?$numpunct@D@0@ABVlocale@0@@Z 10039228 f   pandamat.obj
 0001:00038228       __ehhandler$??$use_facet@V?$num_put@DV?$ostreambuf_iterator@DU?$char_traits@D@std@@@std@@@std@@@std@@YAABV?$num_put@DV?$ostreambuf_iterator@DU?$char_traits@D@std@@@std@@@0@ABVlocale@0@@Z 10039228 f   pandamat.obj
 0001:00038250       __unwindfunclet$?_Getcat@?$numpunct@D@std@@SAIPAPBVfacet@locale@2@PBV42@@Z$0 10039250 f   pandamat.obj
 0001:0003825f       __unwindfunclet$?_Getcat@?$numpunct@D@std@@SAIPAPBVfacet@locale@2@PBV42@@Z$1 1003925f f   pandamat.obj
 0001:00038278       __unwindfunclet$?_Getcat@?$numpunct@D@std@@SAIPAPBVfacet@locale@2@PBV42@@Z$2 10039278 f   pandamat.obj
 0001:00038280       __ehhandler$?_Getcat@?$numpunct@D@std@@SAIPAPBVfacet@locale@2@PBV42@@Z 10039280 f   pandamat.obj
 0001:000382a0       __unwindfunclet$?_Getcat@?$num_put@DV?$ostreambuf_iterator@DU?$char_traits@D@std@@@std@@@std@@SAIPAPBVfacet@locale@2@PBV42@@Z$0 100392a0 f   pandamat.obj
 0001:000382af       __ehhandler$?_Getcat@?$num_put@DV?$ostreambuf_iterator@DU?$char_traits@D@std@@@std@@@std@@SAIPAPBVfacet@locale@2@PBV42@@Z 100392af f   pandamat.obj
 0001:000382d0       __unwindfunclet$??0?$basic_ostringstream@DU?$char_traits@D@std@@V?$allocator@D@2@@std@@QAE@H@Z$0 100392d0 f   pandamat.obj
 0001:000382ec       __unwindfunclet$??0?$basic_ostringstream@DU?$char_traits@D@std@@V?$allocator@D@2@@std@@QAE@H@Z$1 100392ec f   pandamat.obj
 0001:000382f7       __unwindfunclet$??0?$basic_ostringstream@DU?$char_traits@D@std@@V?$allocator@D@2@@std@@QAE@H@Z$4 100392f7 f   pandamat.obj
 0001:000382ff       __ehhandler$??0?$basic_ostringstream@DU?$char_traits@D@std@@V?$allocator@D@2@@std@@QAE@H@Z 100392ff f   pandamat.obj
 0001:00038320       __unwindfunclet$??0PandaPool@@QAE@XZ$0 10039320 f   pandapool.obj
 0001:00038328       __unwindfunclet$??0PandaPool@@QAE@XZ$1 10039328 f   pandapool.obj
 0001:00038336       __unwindfunclet$??0PandaPool@@QAE@XZ$2 10039336 f   pandapool.obj
 0001:00038344       __unwindfunclet$??0PandaPool@@QAE@XZ$3 10039344 f   pandapool.obj
 0001:00038352       __unwindfunclet$??0PandaPool@@QAE@XZ$4 10039352 f   pandapool.obj
 0001:00038360       __unwindfunclet$??0PandaPool@@QAE@XZ$5 10039360 f   pandapool.obj
 0001:0003836e       __unwindfunclet$??0PandaPool@@QAE@XZ$6 1003936e f   pandapool.obj
 0001:0003837c       __unwindfunclet$??0PandaPool@@QAE@XZ$7 1003937c f   pandapool.obj
 0001:0003838a       __ehhandler$??0PandaPool@@QAE@XZ 1003938a f   pandapool.obj
 0001:000383b0       __unwindfunclet$?enter@PandaPool@@QAEIPAVIsolate@v8@@@Z$0 100393b0 f   pandapool.obj
 0001:000383b8       __ehhandler$?enter@PandaPool@@QAEIPAVIsolate@v8@@@Z 100393b8 f   pandapool.obj
 0001:000383e0       __unwindfunclet$?setState@PandaPool@@QAEXIW4exceptions@@V?$basic_string@DU?$char_traits@D@std@@V?$allocator@D@2@@std@@@Z$0 100393e0 f   pandapool.obj
 0001:000383e8       __ehhandler$?setState@PandaPool@@QAEXIW4exceptions@@V?$basic_string@DU?$char_traits@D@std@@V?$allocator@D@2@@std@@@Z 100393e8 f   pandapool.obj
 0001:00038410       __unwindfunclet$?packMessage@PandaPool@@QAE?AV?$basic_string@DU?$char_traits@D@std@@V?$allocator@D@2@@std@@I@Z$0 10039410 f   pandapool.obj
 0001:00038429       __ehhandler$?packMessage@PandaPool@@QAE?AV?$basic_string@DU?$char_traits@D@std@@V?$allocator@D@2@@std@@I@Z 10039429 f   pandapool.obj
 0001:00038450       __unwindfunclet$?save@PandaPool@@QAE?AW4exceptions@@IV?$Local@VValue@v8@@@v8@@PBD@Z$14 10039450 f   pandapool.obj
 0001:00038458       __unwindfunclet$?save@PandaPool@@QAE?AW4exceptions@@IV?$Local@VValue@v8@@@v8@@PBD@Z$1 10039458 f   pandapool.obj
 0001:00038463       __unwindfunclet$?save@PandaPool@@QAE?AW4exceptions@@IV?$Local@VValue@v8@@@v8@@PBD@Z$2 10039463 f   pandapool.obj
 0001:0003846e       __unwindfunclet$?save@PandaPool@@QAE?AW4exceptions@@IV?$Local@VValue@v8@@@v8@@PBD@Z$3 1003946e f   pandapool.obj
 0001:00038476       __unwindfunclet$?save@PandaPool@@QAE?AW4exceptions@@IV?$Local@VValue@v8@@@v8@@PBD@Z$4 10039476 f   pandapool.obj
 0001:00038481       __unwindfunclet$?save@PandaPool@@QAE?AW4exceptions@@IV?$Local@VValue@v8@@@v8@@PBD@Z$5 10039481 f   pandapool.obj
 0001:0003848c       __unwindfunclet$?save@PandaPool@@QAE?AW4exceptions@@IV?$Local@VValue@v8@@@v8@@PBD@Z$6 1003948c f   pandapool.obj
 0001:00038497       __unwindfunclet$?save@PandaPool@@QAE?AW4exceptions@@IV?$Local@VValue@v8@@@v8@@PBD@Z$7 10039497 f   pandapool.obj
 0001:000384a0       __unwindfunclet$?save@PandaPool@@QAE?AW4exceptions@@IV?$Local@VValue@v8@@@v8@@PBD@Z$8 100394a0 f   pandapool.obj
 0001:000384ab       __unwindfunclet$?save@PandaPool@@QAE?AW4exceptions@@IV?$Local@VValue@v8@@@v8@@PBD@Z$9 100394ab f   pandapool.obj
 0001:000384b6       __unwindfunclet$?save@PandaPool@@QAE?AW4exceptions@@IV?$Local@VValue@v8@@@v8@@PBD@Z$10 100394b6 f   pandapool.obj
 0001:000384c1       __unwindfunclet$?save@PandaPool@@QAE?AW4exceptions@@IV?$Local@VValue@v8@@@v8@@PBD@Z$11 100394c1 f   pandapool.obj
 0001:000384cc       __unwindfunclet$?save@PandaPool@@QAE?AW4exceptions@@IV?$Local@VValue@v8@@@v8@@PBD@Z$12 100394cc f   pandapool.obj
 0001:000384d7       __unwindfunclet$?save@PandaPool@@QAE?AW4exceptions@@IV?$Local@VValue@v8@@@v8@@PBD@Z$15 100394d7 f   pandapool.obj
 0001:000384dd       __ehhandler$?save@PandaPool@@QAE?AW4exceptions@@IV?$Local@VValue@v8@@@v8@@PBD@Z 100394dd f   pandapool.obj
 0001:00038510       __unwindfunclet$?saveResult@PandaPool@@QAE?AW4exceptions@@IPBD0@Z$17 10039510 f   pandapool.obj
 0001:00038518       __unwindfunclet$?saveResult@PandaPool@@QAE?AW4exceptions@@IPBD0@Z$1 10039518 f   pandapool.obj
 0001:00038523       __unwindfunclet$?saveResult@PandaPool@@QAE?AW4exceptions@@IPBD0@Z$2 10039523 f   pandapool.obj
 0001:0003852b       __unwindfunclet$?saveResult@PandaPool@@QAE?AW4exceptions@@IPBD0@Z$3 1003952b f   pandapool.obj
 0001:00038536       __unwindfunclet$?saveResult@PandaPool@@QAE?AW4exceptions@@IPBD0@Z$4 10039536 f   pandapool.obj
 0001:00038541       __unwindfunclet$?saveResult@PandaPool@@QAE?AW4exceptions@@IPBD0@Z$5 10039541 f   pandapool.obj
 0001:0003854c       __unwindfunclet$?saveResult@PandaPool@@QAE?AW4exceptions@@IPBD0@Z$6 1003954c f   pandapool.obj
 0001:00038557       __unwindfunclet$?saveResult@PandaPool@@QAE?AW4exceptions@@IPBD0@Z$7 10039557 f   pandapool.obj
 0001:00038562       __unwindfunclet$?saveResult@PandaPool@@QAE?AW4exceptions@@IPBD0@Z$8 10039562 f   pandapool.obj
 0001:0003856d       __unwindfunclet$?saveResult@PandaPool@@QAE?AW4exceptions@@IPBD0@Z$9 1003956d f   pandapool.obj
 0001:00038578       __unwindfunclet$?saveResult@PandaPool@@QAE?AW4exceptions@@IPBD0@Z$10 10039578 f   pandapool.obj
 0001:00038583       __unwindfunclet$?saveResult@PandaPool@@QAE?AW4exceptions@@IPBD0@Z$11 10039583 f   pandapool.obj
 0001:0003858e       __unwindfunclet$?saveResult@PandaPool@@QAE?AW4exceptions@@IPBD0@Z$12 1003958e f   pandapool.obj
 0001:00038599       __unwindfunclet$?saveResult@PandaPool@@QAE?AW4exceptions@@IPBD0@Z$13 10039599 f   pandapool.obj
 0001:000385a4       __unwindfunclet$?saveResult@PandaPool@@QAE?AW4exceptions@@IPBD0@Z$14 100395a4 f   pandapool.obj
 0001:000385af       __ehhandler$?saveResult@PandaPool@@QAE?AW4exceptions@@IPBD0@Z 100395af f   pandapool.obj
 0001:000385e0       __unwindfunclet$?saveResult@PandaPool@@QAE?AW4exceptions@@IPBD@Z$13 100395e0 f   pandapool.obj
 0001:000385e8       __unwindfunclet$?saveResult@PandaPool@@QAE?AW4exceptions@@IPBD@Z$1 100395e8 f   pandapool.obj
 0001:000385f3       __unwindfunclet$?saveResult@PandaPool@@QAE?AW4exceptions@@IPBD@Z$2 100395f3 f   pandapool.obj
 0001:000385fb       __unwindfunclet$?saveResult@PandaPool@@QAE?AW4exceptions@@IPBD@Z$3 100395fb f   pandapool.obj
 0001:00038606       __unwindfunclet$?saveResult@PandaPool@@QAE?AW4exceptions@@IPBD@Z$4 10039606 f   pandapool.obj
 0001:00038611       __unwindfunclet$?saveResult@PandaPool@@QAE?AW4exceptions@@IPBD@Z$5 10039611 f   pandapool.obj
 0001:0003861c       __unwindfunclet$?saveResult@PandaPool@@QAE?AW4exceptions@@IPBD@Z$6 1003961c f   pandapool.obj
 0001:00038627       __unwindfunclet$?saveResult@PandaPool@@QAE?AW4exceptions@@IPBD@Z$7 10039627 f   pandapool.obj
 0001:00038632       __unwindfunclet$?saveResult@PandaPool@@QAE?AW4exceptions@@IPBD@Z$8 10039632 f   pandapool.obj
 0001:0003863d       __unwindfunclet$?saveResult@PandaPool@@QAE?AW4exceptions@@IPBD@Z$9 1003963d f   pandapool.obj
 0001:00038648       __unwindfunclet$?saveResult@PandaPool@@QAE?AW4exceptions@@IPBD@Z$10 10039648 f   pandapool.obj
 0001:00038653       __ehhandler$?saveResult@PandaPool@@QAE?AW4exceptions@@IPBD@Z 10039653 f   pandapool.obj
 0001:00038680       __unwindfunclet$?check@PandaPool@@QAE?AW4exceptions@@IPBD@Z$4 10039680 f   pandapool.obj
 0001:00038688       __unwindfunclet$?check@PandaPool@@QAE?AW4exceptions@@IPBD@Z$1 10039688 f   pandapool.obj
 0001:00038690       __unwindfunclet$?check@PandaPool@@QAE?AW4exceptions@@IPBD@Z$2 10039690 f   pandapool.obj
 0001:00038698       __ehhandler$?check@PandaPool@@QAE?AW4exceptions@@IPBD@Z 10039698 f   pandapool.obj
 0001:000386c0       __unwindfunclet$?get@PandaPool@@QAE?AW4exceptions@@IPBD@Z$10 100396c0 f   pandapool.obj
 0001:000386cb       __unwindfunclet$?get@PandaPool@@QAE?AW4exceptions@@IPBD@Z$1 100396cb f   pandapool.obj
 0001:000386d3       __unwindfunclet$?get@PandaPool@@QAE?AW4exceptions@@IPBD@Z$2 100396d3 f   pandapool.obj
 0001:000386de       __unwindfunclet$?get@PandaPool@@QAE?AW4exceptions@@IPBD@Z$3 100396de f   pandapool.obj
 0001:000386e6       __unwindfunclet$?get@PandaPool@@QAE?AW4exceptions@@IPBD@Z$4 100396e6 f   pandapool.obj
 0001:000386ee       __unwindfunclet$?get@PandaPool@@QAE?AW4exceptions@@IPBD@Z$5 100396ee f   pandapool.obj
 0001:000386f6       __unwindfunclet$?get@PandaPool@@QAE?AW4exceptions@@IPBD@Z$6 100396f6 f   pandapool.obj
 0001:000386fe       __unwindfunclet$?get@PandaPool@@QAE?AW4exceptions@@IPBD@Z$7 100396fe f   pandapool.obj
 0001:00038706       __unwindfunclet$?get@PandaPool@@QAE?AW4exceptions@@IPBD@Z$8 10039706 f   pandapool.obj
 0001:0003870e       __ehhandler$?get@PandaPool@@QAE?AW4exceptions@@IPBD@Z 1003970e f   pandapool.obj
 0001:00038740       __unwindfunclet$?remove@PandaPool@@QAE?AW4exceptions@@IPBD@Z$9 10039740 f   pandapool.obj
 0001:00038748       __ehhandler$?remove@PandaPool@@QAE?AW4exceptions@@IPBD@Z 10039748 f   pandapool.obj
 0001:00038770       __unwindfunclet$?send@PandaPool@@QAE?AW4exceptions@@IAAVOperationData@@W4parameterType@@PBD2@Z$10 10039770 f   pandapool.obj
 0001:0003877b       __unwindfunclet$?send@PandaPool@@QAE?AW4exceptions@@IAAVOperationData@@W4parameterType@@PBD2@Z$1 1003977b f   pandapool.obj
 0001:00038783       __unwindfunclet$?send@PandaPool@@QAE?AW4exceptions@@IAAVOperationData@@W4parameterType@@PBD2@Z$2 10039783 f   pandapool.obj
 0001:0003878b       __unwindfunclet$?send@PandaPool@@QAE?AW4exceptions@@IAAVOperationData@@W4parameterType@@PBD2@Z$4 1003978b f   pandapool.obj
 0001:00038793       __unwindfunclet$?send@PandaPool@@QAE?AW4exceptions@@IAAVOperationData@@W4parameterType@@PBD2@Z$6 10039793 f   pandapool.obj
 0001:0003879b       __unwindfunclet$?send@PandaPool@@QAE?AW4exceptions@@IAAVOperationData@@W4parameterType@@PBD2@Z$7 1003979b f   pandapool.obj
 0001:000387a3       __unwindfunclet$?send@PandaPool@@QAE?AW4exceptions@@IAAVOperationData@@W4parameterType@@PBD2@Z$9 100397a3 f   pandapool.obj
 0001:000387ab       __ehhandler$?send@PandaPool@@QAE?AW4exceptions@@IAAVOperationData@@W4parameterType@@PBD2@Z 100397ab f   pandapool.obj
 0001:000387e0       __unwindfunclet$?getResultMat@PandaPool@@QAE?AV?$Local@VArray@v8@@@v8@@I@Z$0 100397e0 f   pandapool.obj
 0001:000387eb       __unwindfunclet$?getResultMat@PandaPool@@QAE?AV?$Local@VArray@v8@@@v8@@I@Z$1 100397eb f   pandapool.obj
 0001:000387f1       __ehhandler$?getResultMat@PandaPool@@QAE?AV?$Local@VArray@v8@@@v8@@I@Z 100397f1 f   pandapool.obj
 0001:00038820       __unwindfunclet$?getResultString@PandaPool@@QAE?AV?$Local@VString@v8@@@v8@@I@Z$0 10039820 f   pandapool.obj
 0001:00038828       __ehhandler$?getResultString@PandaPool@@QAE?AV?$Local@VString@v8@@@v8@@I@Z 10039828 f   pandapool.obj
 0001:00038850       __unwindfunclet$?getResult@PandaPool@@QAE?AW4exceptions@@IAAVOperationData@@@Z$0 10039850 f   pandapool.obj
 0001:00038858       __unwindfunclet$?getResult@PandaPool@@QAE?AW4exceptions@@IAAVOperationData@@@Z$2 10039858 f   pandapool.obj
 0001:00038863       __unwindfunclet$?getResult@PandaPool@@QAE?AW4exceptions@@IAAVOperationData@@@Z$3 10039863 f   pandapool.obj
 0001:0003886b       __ehhandler$?getResult@PandaPool@@QAE?AW4exceptions@@IAAVOperationData@@@Z 1003986b f   pandapool.obj
 0001:000388a0       __unwindfunclet$?unpackArray@PandaPool@@AAEXIV?$Local@VValue@v8@@@v8@@AAV?$Mat@N@arma@@@Z$0 100398a0 f   pandapool.obj
 0001:000388a8       __unwindfunclet$?unpackArray@PandaPool@@AAEXIV?$Local@VValue@v8@@@v8@@AAV?$Mat@N@arma@@@Z$8 100398a8 f   pandapool.obj
 0001:000388ae       __unwindfunclet$?unpackArray@PandaPool@@AAEXIV?$Local@VValue@v8@@@v8@@AAV?$Mat@N@arma@@@Z$1 100398ae f   pandapool.obj
 0001:000388b9       __unwindfunclet$?unpackArray@PandaPool@@AAEXIV?$Local@VValue@v8@@@v8@@AAV?$Mat@N@arma@@@Z$2 100398b9 f   pandapool.obj
 0001:000388c4       __unwindfunclet$?unpackArray@PandaPool@@AAEXIV?$Local@VValue@v8@@@v8@@AAV?$Mat@N@arma@@@Z$3 100398c4 f   pandapool.obj
 0001:000388cf       __unwindfunclet$?unpackArray@PandaPool@@AAEXIV?$Local@VValue@v8@@@v8@@AAV?$Mat@N@arma@@@Z$4 100398cf f   pandapool.obj
 0001:000388da       __unwindfunclet$?unpackArray@PandaPool@@AAEXIV?$Local@VValue@v8@@@v8@@AAV?$Mat@N@arma@@@Z$5 100398da f   pandapool.obj
 0001:000388e5       __unwindfunclet$?unpackArray@PandaPool@@AAEXIV?$Local@VValue@v8@@@v8@@AAV?$Mat@N@arma@@@Z$9 100398e5 f   pandapool.obj
 0001:000388ed       __ehhandler$?unpackArray@PandaPool@@AAEXIV?$Local@VValue@v8@@@v8@@AAV?$Mat@N@arma@@@Z 100398ed f   pandapool.obj
 0001:00038920       __ehhandler$??4?$Mat@N@arma@@QAEABV01@ABV01@@Z 10039920 f   pandapool.obj
 0001:00038920       __ehhandler$?init_cold@?$Mat@N@arma@@IAEXXZ 10039920 f   pandapool.obj
 0001:00038920       __ehhandler$??0?$Mat@N@arma@@QAE@ABV01@@Z 10039920 f   pandapool.obj
 0001:00038940       __unwindfunclet$??$?0AAPBDAAV?$Mat@N@arma@@X$0A@@?$pair@V?$basic_string@DU?$char_traits@D@std@@V?$allocator@D@2@@std@@V?$Mat@N@arma@@@std@@QAE@AAPBDAAV?$Mat@N@arma@@@Z$0 10039940 f   pandapool.obj
 0001:00038940       __unwindfunclet$??$?0AAPBDV?$Mat@N@arma@@X$0A@@?$pair@V?$basic_string@DU?$char_traits@D@std@@V?$allocator@D@2@@std@@V?$Mat@N@arma@@@std@@QAE@AAPBD$$QAV?$Mat@N@arma@@@Z$0 10039940 f   pandapool.obj
 0001:00038948       __ehhandler$??$?0AAPBDAAV?$Mat@N@arma@@X$0A@@?$pair@V?$basic_string@DU?$char_traits@D@std@@V?$allocator@D@2@@std@@V?$Mat@N@arma@@@std@@QAE@AAPBDAAV?$Mat@N@arma@@@Z 10039948 f   pandapool.obj
 0001:00038948       __ehhandler$??$?0AAPBDV?$Mat@N@arma@@X$0A@@?$pair@V?$basic_string@DU?$char_traits@D@std@@V?$allocator@D@2@@std@@V?$Mat@N@arma@@@std@@QAE@AAPBD$$QAV?$Mat@N@arma@@@Z 10039948 f   pandapool.obj
 0001:00038970       __unwindfunclet$??$?0AAPBDAAV?$basic_string@DU?$char_traits@D@std@@V?$allocator@D@2@@std@@X$0A@@?$pair@V?$basic_string@DU?$char_traits@D@std@@V?$allocator@D@2@@std@@V12@@std@@QAE@AAPBDAAV?$basic_string@DU?$char_traits@D@std@@V?$allocator@D@2@@1@@Z$0 10039970 f   pandapool.obj
 0001:00038978       __ehhandler$??$?0AAPBDAAV?$basic_string@DU?$char_traits@D@std@@V?$allocator@D@2@@std@@X$0A@@?$pair@V?$basic_string@DU?$char_traits@D@std@@V?$allocator@D@2@@std@@V12@@std@@QAE@AAPBDAAV?$basic_string@DU?$char_traits@D@std@@V?$allocator@D@2@@1@@Z 10039978 f   pandapool.obj
 0001:000389a0       __unwindfunclet$??6?$basic_ostream@DU?$char_traits@D@std@@@std@@QAEAAV01@H@Z$2 100399a0 f   pandapool.obj
 0001:000389a8       __unwindfunclet$??6?$basic_ostream@DU?$char_traits@D@std@@@std@@QAEAAV01@H@Z$0 100399a8 f   pandapool.obj
 0001:000389b0       __unwindfunclet$??6?$basic_ostream@DU?$char_traits@D@std@@@std@@QAEAAV01@H@Z$1 100399b0 f   pandapool.obj
 0001:000389b8       __ehhandler$??6?$basic_ostream@DU?$char_traits@D@std@@@std@@QAEAAV01@H@Z 100399b8 f   pandapool.obj
 0001:000389e0       __ehhandler$?init_warm@?$Mat@N@arma@@IAEXII@Z 100399e0 f   pandapool.obj
 0001:000389e0       __ehhandler$??0?$basic_istream@DU?$char_traits@D@std@@@std@@QAE@PAV?$basic_streambuf@DU?$char_traits@D@std@@@1@_N@Z 100399e0 f   add.obj
 0001:00038a00       __unwindfunclet$??$arma_stop_logic_error@V?$basic_string@DU?$char_traits@D@std@@V?$allocator@D@2@@std@@@arma@@YAXABV?$basic_string@DU?$char_traits@D@std@@V?$allocator@D@2@@std@@@Z$0 10039a00 f   dot.obj
 0001:00038a00       __unwindfunclet$??$arma_stop_logic_error@PBD@arma@@YAXABQBD@Z$0 10039a00 f   pandapool.obj
 0001:00038a00       __unwindfunclet$??$arma_stop_logic_error@V?$basic_string@DU?$char_traits@D@std@@V?$allocator@D@2@@std@@@arma@@YAXABV?$basic_string@DU?$char_traits@D@std@@V?$allocator@D@2@@std@@@Z$0 10039a00 f   normalize.obj
 0001:00038a00       __unwindfunclet$??$arma_stop_logic_error@PBD@arma@@YAXABQBD@Z$0 10039a00 f   normalize.obj
 0001:00038a00       __unwindfunclet$??$arma_stop_logic_error@V?$basic_string@DU?$char_traits@D@std@@V?$allocator@D@2@@std@@@arma@@YAXABV?$basic_string@DU?$char_traits@D@std@@V?$allocator@D@2@@std@@@Z$0 10039a00 f   add.obj
 0001:00038a08       __ehhandler$??$arma_stop_logic_error@V?$basic_string@DU?$char_traits@D@std@@V?$allocator@D@2@@std@@@arma@@YAXABV?$basic_string@DU?$char_traits@D@std@@V?$allocator@D@2@@std@@@Z 10039a08 f   add.obj
 0001:00038a08       __ehhandler$??$arma_stop_logic_error@PBD@arma@@YAXABQBD@Z 10039a08 f   normalize.obj
 0001:00038a08       __ehhandler$??$arma_stop_logic_error@V?$basic_string@DU?$char_traits@D@std@@V?$allocator@D@2@@std@@@arma@@YAXABV?$basic_string@DU?$char_traits@D@std@@V?$allocator@D@2@@std@@@Z 10039a08 f   normalize.obj
 0001:00038a08       __ehhandler$??$arma_stop_logic_error@V?$basic_string@DU?$char_traits@D@std@@V?$allocator@D@2@@std@@@arma@@YAXABV?$basic_string@DU?$char_traits@D@std@@V?$allocator@D@2@@std@@@Z 10039a08 f   dot.obj
 0001:00038a08       __ehhandler$??$arma_stop_logic_error@PBD@arma@@YAXABQBD@Z 10039a08 f   pandapool.obj
 0001:00038a30       __unwindfunclet$??$_Buynode@U?$pair@V?$basic_string@DU?$char_traits@D@std@@V?$allocator@D@2@@std@@V?$Mat@N@arma@@@std@@@?$_Tree_comp_alloc@V?$_Tmap_traits@V?$basic_string@DU?$char_traits@D@std@@V?$allocator@D@2@@std@@V?$Mat@N@arma@@U?$less@V?$basic_string@DU?$char_traits@D@std@@V?$allocator@D@2@@std@@@2@V?$allocator@U?$pair@$$CBV?$basic_string@DU?$char_traits@D@std@@V?$allocator@D@2@@std@@V?$Mat@N@arma@@@std@@@2@$0A@@std@@@std@@QAEPAU?$_Tree_node@U?$pair@$$CBV?$basic_string@DU?$char_traits@D@std@@V?$allocator@D@2@@std@@V?$Mat@N@arma@@@std@@PAX@1@$$QAU?$pair@V?$basic_string@DU?$char_traits@D@std@@V?$allocator@D@2@@std@@V?$Mat@N@arma@@@1@@Z$0 10039a30 f   pandapool.obj
 0001:00038a41       __unwindfunclet$??$_Buynode@U?$pair@V?$basic_string@DU?$char_traits@D@std@@V?$allocator@D@2@@std@@V?$Mat@N@arma@@@std@@@?$_Tree_comp_alloc@V?$_Tmap_traits@V?$basic_string@DU?$char_traits@D@std@@V?$allocator@D@2@@std@@V?$Mat@N@arma@@U?$less@V?$basic_string@DU?$char_traits@D@std@@V?$allocator@D@2@@std@@@2@V?$allocator@U?$pair@$$CBV?$basic_string@DU?$char_traits@D@std@@V?$allocator@D@2@@std@@V?$Mat@N@arma@@@std@@@2@$0A@@std@@@std@@QAEPAU?$_Tree_node@U?$pair@$$CBV?$basic_string@DU?$char_traits@D@std@@V?$allocator@D@2@@std@@V?$Mat@N@arma@@@std@@PAX@1@$$QAU?$pair@V?$basic_string@DU?$char_traits@D@std@@V?$allocator@D@2@@std@@V?$Mat@N@arma@@@1@@Z$1 10039a41 f   pandapool.obj
 0001:00038a49       __ehhandler$??$_Buynode@U?$pair@V?$basic_string@DU?$char_traits@D@std@@V?$allocator@D@2@@std@@V?$Mat@N@arma@@@std@@@?$_Tree_comp_alloc@V?$_Tmap_traits@V?$basic_string@DU?$char_traits@D@std@@V?$allocator@D@2@@std@@V?$Mat@N@arma@@U?$less@V?$basic_string@DU?$char_traits@D@std@@V?$allocator@D@2@@std@@@2@V?$allocator@U?$pair@$$CBV?$basic_string@DU?$char_traits@D@std@@V?$allocator@D@2@@std@@V?$Mat@N@arma@@@std@@@2@$0A@@std@@@std@@QAEPAU?$_Tree_node@U?$pair@$$CBV?$basic_string@DU?$char_traits@D@std@@V?$allocator@D@2@@std@@V?$Mat@N@arma@@@std@@PAX@1@$$QAU?$pair@V?$basic_string@DU?$char_traits@D@std@@V?$allocator@D@2@@std@@V?$Mat@N@arma@@@1@@Z 10039a49 f   pandapool.obj
 0001:00038a70       __unwindfunclet$??$_Buynode@U?$pair@IV?$Mat@N@arma@@@std@@@?$_Tree_comp_alloc@V?$_Tmap_traits@IV?$Mat@N@arma@@U?$less@I@std@@V?$allocator@U?$pair@$$CBIV?$Mat@N@arma@@@std@@@4@$0A@@std@@@std@@QAEPAU?$_Tree_node@U?$pair@$$CBIV?$Mat@N@arma@@@std@@PAX@1@$$QAU?$pair@IV?$Mat@N@arma@@@1@@Z$0 10039a70 f   pandapool.obj
 0001:00038a81       __ehhandler$??$_Buynode@U?$pair@IV?$Mat@N@arma@@@std@@@?$_Tree_comp_alloc@V?$_Tmap_traits@IV?$Mat@N@arma@@U?$less@I@std@@V?$allocator@U?$pair@$$CBIV?$Mat@N@arma@@@std@@@4@$0A@@std@@@std@@QAEPAU?$_Tree_node@U?$pair@$$CBIV?$Mat@N@arma@@@std@@PAX@1@$$QAU?$pair@IV?$Mat@N@arma@@@1@@Z 10039a81 f   pandapool.obj
 0001:00038aa0       __ehhandler$?extract@?$subview@N@arma@@SAXAAV?$Mat@N@2@ABV12@@Z 10039aa0 f   normalize.obj
 0001:00038aa0       __ehhandler$??$_Insert_nohint@AAU?$pair@$$CBIV?$Mat@N@arma@@@std@@PAU?$_Tree_node@U?$pair@$$CBIV?$Mat@N@arma@@@std@@PAX@2@@?$_Tree@V?$_Tmap_traits@IV?$Mat@N@arma@@U?$less@I@std@@V?$allocator@U?$pair@$$CBIV?$Mat@N@arma@@@std@@@4@$0A@@std@@@std@@IAE?AU?$pair@V?$_Tree_iterator@V?$_Tree_val@U?$_Tree_simple_types@U?$pair@$$CBIV?$Mat@N@arma@@@std@@@std@@@std@@@std@@_N@1@_NAAU?$pair@$$CBIV?$Mat@N@arma@@@1@PAU?$_Tree_node@U?$pair@$$CBIV?$Mat@N@arma@@@std@@PAX@1@@Z 10039aa0 f   pandapool.obj
 0001:00038ac0       __unwindfunclet$?_Destroy_if_not_nil@?$_Tree@V?$_Tmap_traits@IV?$Mat@N@arma@@U?$less@I@std@@V?$allocator@U?$pair@$$CBIV?$Mat@N@arma@@@std@@@4@$0A@@std@@@std@@IAEXPAU?$_Tree_node@U?$pair@$$CBIV?$Mat@N@arma@@@std@@PAX@2@@Z$2 10039ac0 f   pandapool.obj
 0001:00038ac6       __ehhandler$?_Destroy_if_not_nil@?$_Tree@V?$_Tmap_traits@IV?$Mat@N@arma@@U?$less@I@std@@V?$allocator@U?$pair@$$CBIV?$Mat@N@arma@@@std@@@4@$0A@@std@@@std@@IAEXPAU?$_Tree_node@U?$pair@$$CBIV?$Mat@N@arma@@@std@@PAX@2@@Z 10039ac6 f   pandapool.obj
 0001:00038af0       __unwindfunclet$??0OperationCollection@@QAE@XZ$0 10039af0 f   opercollection.obj
 0001:00038af8       __unwindfunclet$??0OperationCollection@@QAE@XZ$1 10039af8 f   opercollection.obj
 0001:00038b03       __unwindfunclet$??0OperationCollection@@QAE@XZ$2 10039b03 f   opercollection.obj
 0001:00038b0e       __unwindfunclet$??0OperationCollection@@QAE@XZ$3 10039b0e f   opercollection.obj
 0001:00038b19       __unwindfunclet$??0OperationCollection@@QAE@XZ$4 10039b19 f   opercollection.obj
 0001:00038b24       __ehhandler$??0OperationCollection@@QAE@XZ 10039b24 f   opercollection.obj
 0001:00038b40       __unwindfunclet$?create@OperationCollection@@QAE?AVOperationResult@@IPBD@Z$0 10039b40 f   opercollection.obj
 0001:00038b4b       __unwindfunclet$?create@OperationCollection@@QAE?AVOperationResult@@IPBD@Z$1 10039b4b f   opercollection.obj
 0001:00038b53       __unwindfunclet$?create@OperationCollection@@QAE?AVOperationResult@@IPBD@Z$2 10039b53 f   opercollection.obj
 0001:00038b5e       __unwindfunclet$?create@OperationCollection@@QAE?AVOperationResult@@IPBD@Z$3 10039b5e f   opercollection.obj
 0001:00038b66       __unwindfunclet$?create@OperationCollection@@QAE?AVOperationResult@@IPBD@Z$5 10039b66 f   opercollection.obj
 0001:00038b71       __unwindfunclet$?create@OperationCollection@@QAE?AVOperationResult@@IPBD@Z$6 10039b71 f   opercollection.obj
 0001:00038b79       __unwindfunclet$?create@OperationCollection@@QAE?AVOperationResult@@IPBD@Z$7 10039b79 f   opercollection.obj
 0001:00038b84       __unwindfunclet$?create@OperationCollection@@QAE?AVOperationResult@@IPBD@Z$8 10039b84 f   opercollection.obj
 0001:00038b8c       __unwindfunclet$?create@OperationCollection@@QAE?AVOperationResult@@IPBD@Z$9 10039b8c f   opercollection.obj
 0001:00038b97       __unwindfunclet$?create@OperationCollection@@QAE?AVOperationResult@@IPBD@Z$10 10039b97 f   opercollection.obj
 0001:00038b9f       __unwindfunclet$?create@OperationCollection@@QAE?AVOperationResult@@IPBD@Z$11 10039b9f f   opercollection.obj
 0001:00038baa       __unwindfunclet$?create@OperationCollection@@QAE?AVOperationResult@@IPBD@Z$12 10039baa f   opercollection.obj
 0001:00038bb2       __ehhandler$?create@OperationCollection@@QAE?AVOperationResult@@IPBD@Z 10039bb2 f   opercollection.obj
 0001:00038be0       __unwindfunclet$??0OperationData@@QAE@$$QAV0@@Z$0 10039be0 f   opercollection.obj
 0001:00038be8       __unwindfunclet$??0OperationData@@QAE@$$QAV0@@Z$1 10039be8 f   opercollection.obj
 0001:00038bf3       __unwindfunclet$??0OperationData@@QAE@$$QAV0@@Z$2 10039bf3 f   opercollection.obj
 0001:00038c01       __unwindfunclet$??0OperationData@@QAE@$$QAV0@@Z$3 10039c01 f   opercollection.obj
 0001:00038c0f       __unwindfunclet$??0OperationData@@QAE@$$QAV0@@Z$4 10039c0f f   opercollection.obj
 0001:00038c1d       __unwindfunclet$??0OperationData@@QAE@$$QAV0@@Z$5 10039c1d f   opercollection.obj
 0001:00038c2b       __unwindfunclet$??0OperationData@@QAE@$$QAV0@@Z$6 10039c2b f   opercollection.obj
 0001:00038c39       __ehhandler$??0OperationData@@QAE@$$QAV0@@Z 10039c39 f   opercollection.obj
 0001:00038c60       __unwindfunclet$??$construct@U?$pair@$$CBIVAdd@@@std@@U?$pair@IVAdd@@@2@@?$_Wrap_alloc@V?$allocator@U?$_Tree_node@U?$pair@$$CBIVAdd@@@std@@PAX@std@@@std@@@std@@QAEXPAU?$pair@$$CBIVAdd@@@1@$$QAU?$pair@IVAdd@@@1@@Z$0 10039c60 f   opercollection.obj
 0001:00038c60       __unwindfunclet$??$construct@U?$pair@$$CBIVDot@@@std@@U?$pair@IVDot@@@2@@?$_Wrap_alloc@V?$allocator@U?$_Tree_node@U?$pair@$$CBIVDot@@@std@@PAX@std@@@std@@@std@@QAEXPAU?$pair@$$CBIVDot@@@1@$$QAU?$pair@IVDot@@@1@@Z$0 10039c60 f   opercollection.obj
 0001:00038c60       __unwindfunclet$??$construct@U?$pair@$$CBIVNormalize@@@std@@U?$pair@IVNormalize@@@2@@?$_Wrap_alloc@V?$allocator@U?$_Tree_node@U?$pair@$$CBIVNormalize@@@std@@PAX@std@@@std@@@std@@QAEXPAU?$pair@$$CBIVNormalize@@@1@$$QAU?$pair@IVNormalize@@@1@@Z$0 10039c60 f   opercollection.obj
 0001:00038c60       __unwindfunclet$??$construct@U?$pair@$$CBIVTranspose@@@std@@U?$pair@IVTranspose@@@2@@?$_Wrap_alloc@V?$allocator@U?$_Tree_node@U?$pair@$$CBIVTranspose@@@std@@PAX@std@@@std@@@std@@QAEXPAU?$pair@$$CBIVTranspose@@@1@$$QAU?$pair@IVTranspose@@@1@@Z$0 10039c60 f   opercollection.obj
 0001:00038c60       __unwindfunclet$??$construct@U?$pair@$$CBIVSqrtDist@@@std@@U?$pair@IVSqrtDist@@@2@@?$_Wrap_alloc@V?$allocator@U?$_Tree_node@U?$pair@$$CBIVSqrtDist@@@std@@PAX@std@@@std@@@std@@QAEXPAU?$pair@$$CBIVSqrtDist@@@1@$$QAU?$pair@IVSqrtDist@@@1@@Z$0 10039c60 f   opercollection.obj
 0001:00038c71       __ehhandler$??$construct@U?$pair@$$CBIVSqrtDist@@@std@@U?$pair@IVSqrtDist@@@2@@?$_Wrap_alloc@V?$allocator@U?$_Tree_node@U?$pair@$$CBIVSqrtDist@@@std@@PAX@std@@@std@@@std@@QAEXPAU?$pair@$$CBIVSqrtDist@@@1@$$QAU?$pair@IVSqrtDist@@@1@@Z 10039c71 f   opercollection.obj
 0001:00038c71       __ehhandler$??$construct@U?$pair@$$CBIVDot@@@std@@U?$pair@IVDot@@@2@@?$_Wrap_alloc@V?$allocator@U?$_Tree_node@U?$pair@$$CBIVDot@@@std@@PAX@std@@@std@@@std@@QAEXPAU?$pair@$$CBIVDot@@@1@$$QAU?$pair@IVDot@@@1@@Z 10039c71 f   opercollection.obj
 0001:00038c71       __ehhandler$??$construct@U?$pair@$$CBIVAdd@@@std@@U?$pair@IVAdd@@@2@@?$_Wrap_alloc@V?$allocator@U?$_Tree_node@U?$pair@$$CBIVAdd@@@std@@PAX@std@@@std@@@std@@QAEXPAU?$pair@$$CBIVAdd@@@1@$$QAU?$pair@IVAdd@@@1@@Z 10039c71 f   opercollection.obj
 0001:00038c71       __ehhandler$??$construct@U?$pair@$$CBIVTranspose@@@std@@U?$pair@IVTranspose@@@2@@?$_Wrap_alloc@V?$allocator@U?$_Tree_node@U?$pair@$$CBIVTranspose@@@std@@PAX@std@@@std@@@std@@QAEXPAU?$pair@$$CBIVTranspose@@@1@$$QAU?$pair@IVTranspose@@@1@@Z 10039c71 f   opercollection.obj
 0001:00038c71       __ehhandler$??$construct@U?$pair@$$CBIVNormalize@@@std@@U?$pair@IVNormalize@@@2@@?$_Wrap_alloc@V?$allocator@U?$_Tree_node@U?$pair@$$CBIVNormalize@@@std@@PAX@std@@@std@@@std@@QAEXPAU?$pair@$$CBIVNormalize@@@1@$$QAU?$pair@IVNormalize@@@1@@Z 10039c71 f   opercollection.obj
 0001:00038c90       __unwindfunclet$??0OperationData@@QAE@XZ$0 10039c90 f   operationdata.obj
 0001:00038c98       __unwindfunclet$??0OperationData@@QAE@XZ$1 10039c98 f   operationdata.obj
 0001:00038ca3       __unwindfunclet$??0OperationData@@QAE@XZ$2 10039ca3 f   operationdata.obj
 0001:00038cb1       __unwindfunclet$??0OperationData@@QAE@XZ$3 10039cb1 f   operationdata.obj
 0001:00038cbf       __unwindfunclet$??0OperationData@@QAE@XZ$4 10039cbf f   operationdata.obj
 0001:00038ccd       __unwindfunclet$??0OperationData@@QAE@XZ$5 10039ccd f   operationdata.obj
 0001:00038cdb       __unwindfunclet$??0OperationData@@QAE@XZ$6 10039cdb f   operationdata.obj
 0001:00038ce9       __unwindfunclet$??0OperationData@@QAE@XZ$7 10039ce9 f   operationdata.obj
 0001:00038cf7       __ehhandler$??0OperationData@@QAE@XZ 10039cf7 f   operationdata.obj
 0001:00038d20       __unwindfunclet$?find@OperationData@@QAE?AW4parameterType@@PBD@Z$1 10039d20 f   operationdata.obj
 0001:00038d28       __ehhandler$?find@OperationData@@QAE?AW4parameterType@@PBD@Z 10039d28 f   operationdata.obj
 0001:00038d50       __unwindfunclet$?getData@OperationData@@QAE_NIAAV?$Mat@N@arma@@@Z$1 10039d50 f   operationdata.obj
 0001:00038d58       __unwindfunclet$?getData@OperationData@@QAE_NIAAV?$Mat@N@arma@@@Z$0 10039d58 f   operationdata.obj
 0001:00038d60       __ehhandler$?getData@OperationData@@QAE_NIAAV?$Mat@N@arma@@@Z 10039d60 f   operationdata.obj
 0001:00038d90       __unwindfunclet$?saveData@OperationData@@QAEXV?$Mat@N@arma@@PBD@Z$0 10039d90 f   operationdata.obj
 0001:00038d98       __unwindfunclet$?saveData@OperationData@@QAEXV?$Mat@N@arma@@PBD@Z$3 10039d98 f   operationdata.obj
 0001:00038da3       __unwindfunclet$?saveData@OperationData@@QAEXV?$Mat@N@arma@@PBD@Z$1 10039da3 f   operationdata.obj
 0001:00038dae       __unwindfunclet$?saveData@OperationData@@QAEXV?$Mat@N@arma@@PBD@Z$2 10039dae f   operationdata.obj
 0001:00038db6       __unwindfunclet$?saveData@OperationData@@QAEXV?$Mat@N@arma@@PBD@Z$10 10039db6 f   operationdata.obj
 0001:00038dbc       __ehhandler$?saveData@OperationData@@QAEXV?$Mat@N@arma@@PBD@Z 10039dbc f   operationdata.obj
 0001:00038df0       __unwindfunclet$?saveData@OperationData@@QAEXNPBD@Z$0 10039df0 f   operationdata.obj
 0001:00038df8       __unwindfunclet$?saveData@OperationData@@QAEXNPBD@Z$1 10039df8 f   operationdata.obj
 0001:00038e00       __ehhandler$?saveData@OperationData@@QAEXNPBD@Z 10039e00 f   operationdata.obj
 0001:00038e30       __unwindfunclet$?saveData@OperationData@@QAEXV?$basic_string@DU?$char_traits@D@std@@V?$allocator@D@2@@std@@PBD@Z$0 10039e30 f   operationdata.obj
 0001:00038e38       __unwindfunclet$?saveData@OperationData@@QAEXV?$basic_string@DU?$char_traits@D@std@@V?$allocator@D@2@@std@@PBD@Z$3 10039e38 f   operationdata.obj
 0001:00038e40       __unwindfunclet$?saveData@OperationData@@QAEXV?$basic_string@DU?$char_traits@D@std@@V?$allocator@D@2@@std@@PBD@Z$1 10039e40 f   operationdata.obj
 0001:00038e48       __unwindfunclet$?saveData@OperationData@@QAEXV?$basic_string@DU?$char_traits@D@std@@V?$allocator@D@2@@std@@PBD@Z$2 10039e48 f   operationdata.obj
 0001:00038e50       __ehhandler$?saveData@OperationData@@QAEXV?$basic_string@DU?$char_traits@D@std@@V?$allocator@D@2@@std@@PBD@Z 10039e50 f   operationdata.obj
 0001:00038e80       __unwindfunclet$?saveData@OperationData@@QAEX_NPBD@Z$0 10039e80 f   operationdata.obj
 0001:00038e88       __unwindfunclet$?saveData@OperationData@@QAEX_NPBD@Z$1 10039e88 f   operationdata.obj
 0001:00038e90       __ehhandler$?saveData@OperationData@@QAEX_NPBD@Z 10039e90 f   operationdata.obj
 0001:00038ec0       __unwindfunclet$?operate@Operation@@UAEXXZ$1 10039ec0 f   operation.obj
 0001:00038ec8       __ehhandler$?operate@Operation@@UAEXXZ 10039ec8 f   operation.obj
 0001:00038ef0       __unwindfunclet$?arma_incompat_size_string@arma@@YA?AV?$basic_string@DU?$char_traits@D@std@@V?$allocator@D@2@@std@@IIIIPBD@Z$0 10039ef0 f   add.obj
 0001:00038efb       __ehhandler$?arma_incompat_size_string@arma@@YA?AV?$basic_string@DU?$char_traits@D@std@@V?$allocator@D@2@@std@@IIIIPBD@Z 10039efb f   add.obj
 0001:00038f20       __unwindfunclet$?operate@Dot@@UAEXXZ$0 10039f20 f   dot.obj
 0001:00038f20       __unwindfunclet$?operate@Add@@UAEXXZ$0 10039f20 f   add.obj
 0001:00038f28       __unwindfunclet$?operate@Dot@@UAEXXZ$1 10039f28 f   dot.obj
 0001:00038f28       __unwindfunclet$?operate@Add@@UAEXXZ$1 10039f28 f   add.obj
 0001:00038f33       __unwindfunclet$?operate@Add@@UAEXXZ$6 10039f33 f   add.obj
 0001:00038f33       __unwindfunclet$?operate@Dot@@UAEXXZ$6 10039f33 f   dot.obj
 0001:00038f39       __unwindfunclet$?operate@Add@@UAEXXZ$7 10039f39 f   add.obj
 0001:00038f39       __unwindfunclet$?operate@Dot@@UAEXXZ$7 10039f39 f   dot.obj
 0001:00038f3f       __unwindfunclet$?operate@Add@@UAEXXZ$4 10039f3f f   add.obj
 0001:00038f3f       __unwindfunclet$?operate@Dot@@UAEXXZ$4 10039f3f f   dot.obj
 0001:00038f44       __unwindfunclet$?operate@Add@@UAEXXZ$5 10039f44 f   add.obj
 0001:00038f44       __unwindfunclet$?operate@Dot@@UAEXXZ$5 10039f44 f   dot.obj
 0001:00038f4f       __unwindfunclet$?operate@Dot@@UAEXXZ$22 10039f4f f   dot.obj
 0001:00038f4f       __unwindfunclet$?operate@Add@@UAEXXZ$11 10039f4f f   add.obj
 0001:00038f55       __unwindfunclet$?operate@Dot@@UAEXXZ$23 10039f55 f   dot.obj
 0001:00038f55       __unwindfunclet$?operate@Add@@UAEXXZ$12 10039f55 f   add.obj
 0001:00038f5b       __unwindfunclet$?operate@Add@@UAEXXZ$13 10039f5b f   add.obj
 0001:00038f5b       __unwindfunclet$?operate@Dot@@UAEXXZ$24 10039f5b f   dot.obj
 0001:00038f61       __unwindfunclet$?operate@Add@@UAEXXZ$14 10039f61 f   add.obj
 0001:00038f61       __unwindfunclet$?operate@Dot@@UAEXXZ$25 10039f61 f   dot.obj
 0001:00038f67       __ehhandler$?operate@Dot@@UAEXXZ 10039f67 f   dot.obj
 0001:00038f67       __ehhandler$?operate@Add@@UAEXXZ 10039f67 f   add.obj
 0001:00038f90       __unwindfunclet$??0?$basic_stringstream@DU?$char_traits@D@std@@V?$allocator@D@2@@std@@QAE@H@Z$0 10039f90 f   add.obj
 0001:00038fac       __unwindfunclet$??0?$basic_stringstream@DU?$char_traits@D@std@@V?$allocator@D@2@@std@@QAE@H@Z$4 10039fac f   add.obj
 0001:00038fb7       __unwindfunclet$??0?$basic_stringstream@DU?$char_traits@D@std@@V?$allocator@D@2@@std@@QAE@H@Z$1 10039fb7 f   add.obj
 0001:00038fc2       __unwindfunclet$??0?$basic_stringstream@DU?$char_traits@D@std@@V?$allocator@D@2@@std@@QAE@H@Z$7 10039fc2 f   add.obj
 0001:00038fca       __ehhandler$??0?$basic_stringstream@DU?$char_traits@D@std@@V?$allocator@D@2@@std@@QAE@H@Z 10039fca f   add.obj
 0001:00038ff0       __ehhandler$??1?$Op@V?$Mat@N@arma@@Vop_htrans@2@@arma@@QAE@XZ 10039ff0 f   transpose.obj
 0001:00038ff0       __ehhandler$??1?$subview@N@arma@@QAE@XZ 10039ff0 f   normalize.obj
 0001:00038ff0       __ehhandler$??1?$podarray@N@arma@@QAE@XZ 10039ff0 f   dot.obj
 0001:00038ff0       __ehhandler$??1?$Op@V?$Mat@N@arma@@Vop_repmat@2@@arma@@QAE@XZ 10039ff0 f   normalize.obj
 0001:00038ff0       __ehhandler$??1?$eOp@V?$subview_col@N@arma@@Veop_scalar_div_post@2@@arma@@QAE@XZ 10039ff0 f   normalize.obj
 0001:00038ff0       __ehhandler$??1?$eGlue@V?$Mat@N@arma@@V12@Veglue_plus@2@@arma@@QAE@XZ 10039ff0 f   add.obj
 0001:00038ff0       __ehhandler$??1?$eGlue@V?$subview_row@N@arma@@V12@Veglue_minus@2@@arma@@QAE@XZ 10039ff0 f   sqrtdist.obj
 0001:00038ff0       __ehhandler$??1?$Gen@V?$Mat@N@arma@@Vgen_zeros@2@@arma@@QAE@XZ 10039ff0 f   sqrtdist.obj
 0001:00038ff0       __ehhandler$??1?$Op@V?$Mat@N@arma@@Vop_normalise_mat@2@@arma@@QAE@XZ 10039ff0 f   normalize.obj
 0001:00038ff0       __ehhandler$??1?$Op@V?$Mat@N@arma@@Vop_mean@2@@arma@@QAE@XZ 10039ff0 f   normalize.obj
 0001:00038ff0       __ehhandler$??1?$Glue@V?$Mat@N@arma@@V12@Vglue_times@2@@arma@@QAE@XZ 10039ff0 f   dot.obj
 0001:00038ff0       __ehhandler$??1?$eOp@V?$subview_row@N@arma@@Veop_scalar_div_post@2@@arma@@QAE@XZ 10039ff0 f   normalize.obj
 0001:00039010       __unwindfunclet$??$?GV?$subview_row@N@arma@@V01@@arma@@YA?BV?$eGlue@V?$subview_row@N@arma@@V12@Veglue_minus@2@@0@ABV?$subview_row@N@0@0@Z$1 1003a010 f   sqrtdist.obj
 0001:00039010       __unwindfunclet$??0?$eGlue@V?$Mat@N@arma@@V12@Veglue_plus@2@@arma@@QAE@ABV?$Mat@N@1@0@Z$0 1003a010 f   add.obj
 0001:00039018       __ehhandler$??$?GV?$subview_row@N@arma@@V01@@arma@@YA?BV?$eGlue@V?$subview_row@N@arma@@V12@Veglue_minus@2@@0@ABV?$subview_row@N@0@0@Z 1003a018 f   sqrtdist.obj
 0001:00039018       __ehhandler$??0?$eGlue@V?$Mat@N@arma@@V12@Veglue_plus@2@@arma@@QAE@ABV?$Mat@N@1@0@Z 1003a018 f   add.obj
 0001:00039040       __unwindfunclet$?arma_incompat_size_string@arma@@YA?AV?$basic_string@DU?$char_traits@D@std@@V?$allocator@D@2@@std@@IIIIPBD@Z$0 1003a040 f   dot.obj
 0001:00039040       __unwindfunclet$?arma_incompat_size_string@arma@@YA?AV?$basic_string@DU?$char_traits@D@std@@V?$allocator@D@2@@std@@IIIIPBD@Z$0 1003a040 f   normalize.obj
 0001:0003904b       __ehhandler$?arma_incompat_size_string@arma@@YA?AV?$basic_string@DU?$char_traits@D@std@@V?$allocator@D@2@@std@@IIIIPBD@Z 1003a04b f   normalize.obj
 0001:0003904b       __ehhandler$?arma_incompat_size_string@arma@@YA?AV?$basic_string@DU?$char_traits@D@std@@V?$allocator@D@2@@std@@IIIIPBD@Z 1003a04b f   dot.obj
 0001:00039070       __ehhandler$??$apply@V?$Mat@N@arma@@V12@@glue_times@arma@@SAXAAV?$Mat@N@1@ABV?$Glue@V?$Mat@N@arma@@V12@Vglue_times@2@@1@@Z 1003a070 f   dot.obj
 0001:00039090       __unwindfunclet$??$apply@V?$Mat@N@arma@@V12@@?$glue_times_redirect2_helper@$0A@@arma@@SAXAAV?$Mat@N@1@ABV?$Glue@V?$Mat@N@arma@@V12@Vglue_times@2@@1@@Z$0 1003a090 f   dot.obj
 0001:0003909b       __unwindfunclet$??$apply@V?$Mat@N@arma@@V12@@?$glue_times_redirect2_helper@$0A@@arma@@SAXAAV?$Mat@N@1@ABV?$Glue@V?$Mat@N@arma@@V12@Vglue_times@2@@1@@Z$1 1003a09b f   dot.obj
 0001:000390a1       __ehhandler$??$apply@V?$Mat@N@arma@@V12@@?$glue_times_redirect2_helper@$0A@@arma@@SAXAAV?$Mat@N@1@ABV?$Glue@V?$Mat@N@arma@@V12@Vglue_times@2@@1@@Z 1003a0a1 f   dot.obj
 0001:000390d0       __unwindfunclet$??$apply@N$0A@$0A@$0A@V?$Mat@N@arma@@V12@@glue_times@arma@@SAXAAV?$Mat@N@1@ABV21@1N@Z$0 1003a0d0 f   dot.obj
 0001:000390d8       __ehhandler$??$apply@N$0A@$0A@$0A@V?$Mat@N@arma@@V12@@glue_times@arma@@SAXAAV?$Mat@N@1@ABV21@1N@Z 1003a0d8 f   dot.obj
 0001:00039100       __unwindfunclet$??$apply@NV?$Mat@N@arma@@V12@@?$gemm_emul_large@$0A@$0A@$0A@$0A@@arma@@SAXAAV?$Mat@N@1@ABV21@1NN@Z$0 1003a100 f   dot.obj
 0001:0003910b       __unwindfunclet$??$apply@NV?$Mat@N@arma@@V12@@?$gemm_emul_large@$0A@$0A@$0A@$0A@@arma@@SAXAAV?$Mat@N@1@ABV21@1NN@Z$6 1003a10b f   dot.obj
 0001:00039111       __ehhandler$??$apply@NV?$Mat@N@arma@@V12@@?$gemm_emul_large@$0A@$0A@$0A@$0A@@arma@@SAXAAV?$Mat@N@1@ABV21@1NN@Z 1003a111 f   dot.obj
 0001:00039140       __unwindfunclet$?operate@Transpose@@UAEXXZ$0 1003a140 f   transpose.obj
 0001:00039148       __unwindfunclet$?operate@Transpose@@UAEXXZ$1 1003a148 f   transpose.obj
 0001:0003914d       __unwindfunclet$?operate@Transpose@@UAEXXZ$2 1003a14d f   transpose.obj
 0001:00039158       __unwindfunclet$?operate@Transpose@@UAEXXZ$10 1003a158 f   transpose.obj
 0001:0003915e       __unwindfunclet$?operate@Transpose@@UAEXXZ$11 1003a15e f   transpose.obj
 0001:00039164       __unwindfunclet$?operate@Transpose@@UAEXXZ$12 1003a164 f   transpose.obj
 0001:0003916a       __ehhandler$?operate@Transpose@@UAEXXZ 1003a16a f   transpose.obj
 0001:000391a0       __unwindfunclet$??$apply_mat_inplace@N@op_strans@arma@@SAXAAV?$Mat@N@1@@Z$0 1003a1a0 f   transpose.obj
 0001:000391ab       __unwindfunclet$??$apply_mat_inplace@N@op_strans@arma@@SAXAAV?$Mat@N@1@@Z$1 1003a1ab f   transpose.obj
 0001:000391b1       __ehhandler$??$apply_mat_inplace@N@op_strans@arma@@SAXAAV?$Mat@N@1@@Z 1003a1b1 f   transpose.obj
 0001:000391e0       __unwindfunclet$?operate@Normalize@@UAEXXZ$0 1003a1e0 f   normalize.obj
 0001:000391eb       __unwindfunclet$?operate@Normalize@@UAEXXZ$1 1003a1eb f   normalize.obj
 0001:000391f3       __unwindfunclet$?operate@Normalize@@UAEXXZ$2 1003a1f3 f   normalize.obj
 0001:000391fe       __unwindfunclet$?operate@Normalize@@UAEXXZ$3 1003a1fe f   normalize.obj
 0001:00039203       __unwindfunclet$?operate@Normalize@@UAEXXZ$9 1003a203 f   normalize.obj
 0001:00039209       __unwindfunclet$?operate@Normalize@@UAEXXZ$10 1003a209 f   normalize.obj
 0001:0003920f       __unwindfunclet$?operate@Normalize@@UAEXXZ$5 1003a20f f   normalize.obj
 0001:00039214       __unwindfunclet$?operate@Normalize@@UAEXXZ$6 1003a214 f   normalize.obj
 0001:0003921f       __unwindfunclet$?operate@Normalize@@UAEXXZ$13 1003a21f f   normalize.obj
 0001:00039225       __unwindfunclet$?operate@Normalize@@UAEXXZ$15 1003a225 f   normalize.obj
 0001:0003922b       __unwindfunclet$?operate@Normalize@@UAEXXZ$16 1003a22b f   normalize.obj
 0001:00039231       __unwindfunclet$?operate@Normalize@@UAEXXZ$7 1003a231 f   normalize.obj
 0001:00039236       __unwindfunclet$?operate@Normalize@@UAEXXZ$8 1003a236 f   normalize.obj
 0001:00039241       __unwindfunclet$?operate@Normalize@@UAEXXZ$20 1003a241 f   normalize.obj
 0001:00039247       __unwindfunclet$?operate@Normalize@@UAEXXZ$21 1003a247 f   normalize.obj
 0001:0003924d       __unwindfunclet$?operate@Normalize@@UAEXXZ$22 1003a24d f   normalize.obj
 0001:00039253       __unwindfunclet$?operate@Normalize@@UAEXXZ$23 1003a253 f   normalize.obj
 0001:00039259       __unwindfunclet$?operate@Normalize@@UAEXXZ$24 1003a259 f   normalize.obj
 0001:0003925f       __ehhandler$?operate@Normalize@@UAEXXZ 1003a25f f   normalize.obj
 0001:00039290       __unwindfunclet$??0?$eGlue@V?$Mat@N@arma@@V?$Op@V?$Mat@N@arma@@Vop_repmat@2@@2@Veglue_minus@2@@arma@@QAE@ABV?$Mat@N@1@ABV?$Op@V?$Mat@N@arma@@Vop_repmat@2@@1@@Z$1 1003a290 f   normalize.obj
 0001:00039298       __unwindfunclet$??0?$eGlue@V?$Mat@N@arma@@V?$Op@V?$Mat@N@arma@@Vop_repmat@2@@2@Veglue_minus@2@@arma@@QAE@ABV?$Mat@N@1@ABV?$Op@V?$Mat@N@arma@@Vop_repmat@2@@1@@Z$0 1003a298 f   normalize.obj
 0001:000392a3       __unwindfunclet$??0?$eGlue@V?$Mat@N@arma@@V?$Op@V?$Mat@N@arma@@Vop_repmat@2@@2@Veglue_minus@2@@arma@@QAE@ABV?$Mat@N@1@ABV?$Op@V?$Mat@N@arma@@Vop_repmat@2@@1@@Z$2 1003a2a3 f   normalize.obj
 0001:000392ab       __ehhandler$??0?$eGlue@V?$Mat@N@arma@@V?$Op@V?$Mat@N@arma@@Vop_repmat@2@@2@Veglue_minus@2@@arma@@QAE@ABV?$Mat@N@1@ABV?$Op@V?$Mat@N@arma@@Vop_repmat@2@@1@@Z 1003a2ab f   normalize.obj
 0001:000392d0       __unwindfunclet$??$apply@V?$Mat@N@arma@@@op_mean@arma@@SAXAAV?$Mat@N@1@ABV?$Op@V?$Mat@N@arma@@Vop_mean@2@@1@@Z$0 1003a2d0 f   normalize.obj
 0001:000392d8       __unwindfunclet$??$apply@V?$Mat@N@arma@@@op_mean@arma@@SAXAAV?$Mat@N@1@ABV?$Op@V?$Mat@N@arma@@Vop_mean@2@@1@@Z$1 1003a2d8 f   normalize.obj
 0001:000392de       __ehhandler$??$apply@V?$Mat@N@arma@@@op_mean@arma@@SAXAAV?$Mat@N@1@ABV?$Op@V?$Mat@N@arma@@Vop_mean@2@@1@@Z 1003a2de f   normalize.obj
 0001:00039310       __unwindfunclet$??$apply@V?$Mat@N@arma@@@op_normalise_mat@arma@@SAXAAV?$Mat@N@1@ABV?$Op@V?$Mat@N@arma@@Vop_normalise_mat@2@@1@@Z$0 1003a310 f   normalize.obj
 0001:00039318       __unwindfunclet$??$apply@V?$Mat@N@arma@@@op_normalise_mat@arma@@SAXAAV?$Mat@N@1@ABV?$Op@V?$Mat@N@arma@@Vop_normalise_mat@2@@1@@Z$1 1003a318 f   normalize.obj
 0001:0003931e       __ehhandler$??$apply@V?$Mat@N@arma@@@op_normalise_mat@arma@@SAXAAV?$Mat@N@1@ABV?$Op@V?$Mat@N@arma@@Vop_normalise_mat@2@@1@@Z 1003a31e f   normalize.obj
 0001:00039350       __unwindfunclet$??$apply@N@op_normalise_mat@arma@@SAXAAV?$Mat@N@1@ABV21@II@Z$0 1003a350 f   normalize.obj
 0001:00039355       __unwindfunclet$??$apply@N@op_normalise_mat@arma@@SAXAAV?$Mat@N@1@ABV21@II@Z$9 1003a355 f   normalize.obj
 0001:0003935b       __unwindfunclet$??$apply@N@op_normalise_mat@arma@@SAXAAV?$Mat@N@1@ABV21@II@Z$1 1003a35b f   normalize.obj
 0001:00039360       __unwindfunclet$??$apply@N@op_normalise_mat@arma@@SAXAAV?$Mat@N@1@ABV21@II@Z$2 1003a360 f   normalize.obj
 0001:00039365       __unwindfunclet$??$apply@N@op_normalise_mat@arma@@SAXAAV?$Mat@N@1@ABV21@II@Z$3 1003a365 f   normalize.obj
 0001:0003936a       __unwindfunclet$??$apply@N@op_normalise_mat@arma@@SAXAAV?$Mat@N@1@ABV21@II@Z$11 1003a36a f   normalize.obj
 0001:00039370       __unwindfunclet$??$apply@N@op_normalise_mat@arma@@SAXAAV?$Mat@N@1@ABV21@II@Z$12 1003a370 f   normalize.obj
 0001:00039376       __unwindfunclet$??$apply@N@op_normalise_mat@arma@@SAXAAV?$Mat@N@1@ABV21@II@Z$14 1003a376 f   normalize.obj
 0001:0003937c       __unwindfunclet$??$apply@N@op_normalise_mat@arma@@SAXAAV?$Mat@N@1@ABV21@II@Z$4 1003a37c f   normalize.obj
 0001:00039381       __unwindfunclet$??$apply@N@op_normalise_mat@arma@@SAXAAV?$Mat@N@1@ABV21@II@Z$16 1003a381 f   normalize.obj
 0001:00039387       __unwindfunclet$??$apply@N@op_normalise_mat@arma@@SAXAAV?$Mat@N@1@ABV21@II@Z$5 1003a387 f   normalize.obj
 0001:0003938c       __unwindfunclet$??$apply@N@op_normalise_mat@arma@@SAXAAV?$Mat@N@1@ABV21@II@Z$6 1003a38c f   normalize.obj
 0001:00039391       __unwindfunclet$??$apply@N@op_normalise_mat@arma@@SAXAAV?$Mat@N@1@ABV21@II@Z$7 1003a391 f   normalize.obj
 0001:00039396       __unwindfunclet$??$apply@N@op_normalise_mat@arma@@SAXAAV?$Mat@N@1@ABV21@II@Z$18 1003a396 f   normalize.obj
 0001:0003939c       __unwindfunclet$??$apply@N@op_normalise_mat@arma@@SAXAAV?$Mat@N@1@ABV21@II@Z$19 1003a39c f   normalize.obj
 0001:000393a2       __unwindfunclet$??$apply@N@op_normalise_mat@arma@@SAXAAV?$Mat@N@1@ABV21@II@Z$21 1003a3a2 f   normalize.obj
 0001:000393a8       __ehhandler$??$apply@N@op_normalise_mat@arma@@SAXAAV?$Mat@N@1@ABV21@II@Z 1003a3a8 f   normalize.obj
 0001:000393d0       __unwindfunclet$??1?$subview_col@N@arma@@QAE@XZ$0 1003a3d0 f   normalize.obj
 0001:000393d0       __unwindfunclet$??1?$subview_row@N@arma@@QAE@XZ$0 1003a3d0 f   normalize.obj
 0001:000393d6       __ehhandler$??1?$subview_row@N@arma@@QAE@XZ 1003a3d6 f   normalize.obj
 0001:000393d6       __ehhandler$??1?$subview_col@N@arma@@QAE@XZ 1003a3d6 f   normalize.obj
 0001:00039400       __unwindfunclet$?row@?$Mat@N@arma@@QBE?BV?$subview_row@N@2@I@Z$1 1003a400 f   normalize.obj
 0001:00039400       __unwindfunclet$?col@?$Mat@N@arma@@QAE?AV?$subview_col@N@2@I@Z$1 1003a400 f   normalize.obj
 0001:00039400       __unwindfunclet$?col@?$Mat@N@arma@@QBE?BV?$subview_col@N@2@I@Z$1 1003a400 f   normalize.obj
 0001:00039400       __unwindfunclet$?row@?$Mat@N@arma@@QAE?AV?$subview_row@N@2@I@Z$1 1003a400 f   normalize.obj
 0001:00039405       __ehhandler$?row@?$Mat@N@arma@@QBE?BV?$subview_row@N@2@I@Z 1003a405 f   normalize.obj
 0001:00039405       __ehhandler$?row@?$Mat@N@arma@@QAE?AV?$subview_row@N@2@I@Z 1003a405 f   normalize.obj
 0001:00039405       __ehhandler$?col@?$Mat@N@arma@@QBE?BV?$subview_col@N@2@I@Z 1003a405 f   normalize.obj
 0001:00039405       __ehhandler$?col@?$Mat@N@arma@@QAE?AV?$subview_col@N@2@I@Z 1003a405 f   normalize.obj
 0001:00039420       __unwindfunclet$??$apply@V?$Mat@N@arma@@@op_repmat@arma@@SAXAAV?$Mat@N@1@ABV?$Op@V?$Mat@N@arma@@Vop_repmat@2@@1@@Z$0 1003a420 f   normalize.obj
 0001:0003942b       __unwindfunclet$??$apply@V?$Mat@N@arma@@@op_repmat@arma@@SAXAAV?$Mat@N@1@ABV?$Op@V?$Mat@N@arma@@Vop_repmat@2@@1@@Z$1 1003a42b f   normalize.obj
 0001:00039431       __ehhandler$??$apply@V?$Mat@N@arma@@@op_repmat@arma@@SAXAAV?$Mat@N@1@ABV?$Op@V?$Mat@N@arma@@Vop_repmat@2@@1@@Z 1003a431 f   normalize.obj
 0001:00039460       __unwindfunclet$??$vec_norm_1@V?$subview_col@N@arma@@@op_norm@arma@@SANABV?$Proxy@V?$subview_col@N@arma@@@1@PBN@Z$2 1003a460 f   normalize.obj
 0001:0003946b       __unwindfunclet$??$vec_norm_1@V?$subview_col@N@arma@@@op_norm@arma@@SANABV?$Proxy@V?$subview_col@N@arma@@@1@PBN@Z$1 1003a46b f   normalize.obj
 0001:00039476       __unwindfunclet$??$vec_norm_1@V?$subview_col@N@arma@@@op_norm@arma@@SANABV?$Proxy@V?$subview_col@N@arma@@@1@PBN@Z$0 1003a476 f   normalize.obj
 0001:00039481       __unwindfunclet$??$vec_norm_1@V?$subview_col@N@arma@@@op_norm@arma@@SANABV?$Proxy@V?$subview_col@N@arma@@@1@PBN@Z$5 1003a481 f   normalize.obj
 0001:00039487       __ehhandler$??$vec_norm_1@V?$subview_col@N@arma@@@op_norm@arma@@SANABV?$Proxy@V?$subview_col@N@arma@@@1@PBN@Z 1003a487 f   normalize.obj
 0001:000394b0       __unwindfunclet$??$vec_norm_2@V?$subview_col@N@arma@@@op_norm@arma@@SANABV?$Proxy@V?$subview_col@N@arma@@@1@PBN@Z$3 1003a4b0 f   normalize.obj
 0001:000394bb       __unwindfunclet$??$vec_norm_2@V?$subview_col@N@arma@@@op_norm@arma@@SANABV?$Proxy@V?$subview_col@N@arma@@@1@PBN@Z$2 1003a4bb f   normalize.obj
 0001:000394c6       __unwindfunclet$??$vec_norm_2@V?$subview_col@N@arma@@@op_norm@arma@@SANABV?$Proxy@V?$subview_col@N@arma@@@1@PBN@Z$0 1003a4c6 f   normalize.obj
 0001:000394d1       __unwindfunclet$??$vec_norm_2@V?$subview_col@N@arma@@@op_norm@arma@@SANABV?$Proxy@V?$subview_col@N@arma@@@1@PBN@Z$6 1003a4d1 f   normalize.obj
 0001:000394d7       __ehhandler$??$vec_norm_2@V?$subview_col@N@arma@@@op_norm@arma@@SANABV?$Proxy@V?$subview_col@N@arma@@@1@PBN@Z 1003a4d7 f   normalize.obj
 0001:00039500       __ehhandler$??$vec_norm_1@V?$subview_row@N@arma@@@op_norm@arma@@SANABV?$Proxy@V?$subview_row@N@arma@@@1@PBN@Z 1003a500 f   normalize.obj
 0001:00039520       __unwindfunclet$??$vec_norm_2@V?$subview_row@N@arma@@@op_norm@arma@@SANABV?$Proxy@V?$subview_row@N@arma@@@1@PBN@Z$8 1003a520 f   normalize.obj
 0001:0003952b       __unwindfunclet$??$vec_norm_2@V?$subview_row@N@arma@@@op_norm@arma@@SANABV?$Proxy@V?$subview_row@N@arma@@@1@PBN@Z$7 1003a52b f   normalize.obj
 0001:00039536       __unwindfunclet$??$vec_norm_2@V?$subview_row@N@arma@@@op_norm@arma@@SANABV?$Proxy@V?$subview_row@N@arma@@@1@PBN@Z$1 1003a536 f   normalize.obj
 0001:00039541       __unwindfunclet$??$vec_norm_2@V?$subview_row@N@arma@@@op_norm@arma@@SANABV?$Proxy@V?$subview_row@N@arma@@@1@PBN@Z$11 1003a541 f   normalize.obj
 0001:00039547       __ehhandler$??$vec_norm_2@V?$subview_row@N@arma@@@op_norm@arma@@SANABV?$Proxy@V?$subview_row@N@arma@@@1@PBN@Z 1003a547 f   normalize.obj
 0001:00039570       __unwindfunclet$??$inplace_op@Vop_internal_equ@arma@@V?$eOp@V?$subview_col@N@arma@@Veop_scalar_div_post@2@@2@@?$subview@N@arma@@QAEXABU?$Base@NV?$eOp@V?$subview_col@N@arma@@Veop_scalar_div_post@2@@arma@@@1@PBD@Z$3 1003a570 f   normalize.obj
 0001:0003957b       __unwindfunclet$??$inplace_op@Vop_internal_equ@arma@@V?$eOp@V?$subview_col@N@arma@@Veop_scalar_div_post@2@@2@@?$subview@N@arma@@QAEXABU?$Base@NV?$eOp@V?$subview_col@N@arma@@Veop_scalar_div_post@2@@arma@@@1@PBD@Z$6 1003a57b f   normalize.obj
 0001:00039581       __unwindfunclet$??$inplace_op@Vop_internal_equ@arma@@V?$eOp@V?$subview_col@N@arma@@Veop_scalar_div_post@2@@2@@?$subview@N@arma@@QAEXABU?$Base@NV?$eOp@V?$subview_col@N@arma@@Veop_scalar_div_post@2@@arma@@@1@PBD@Z$1 1003a581 f   normalize.obj
 0001:0003958c       __ehhandler$??$inplace_op@Vop_internal_equ@arma@@V?$eOp@V?$subview_col@N@arma@@Veop_scalar_div_post@2@@2@@?$subview@N@arma@@QAEXABU?$Base@NV?$eOp@V?$subview_col@N@arma@@Veop_scalar_div_post@2@@arma@@@1@PBD@Z 1003a58c f   normalize.obj
 0001:000395c0       __unwindfunclet$??$inplace_op@Vop_internal_equ@arma@@V?$eOp@V?$subview_row@N@arma@@Veop_scalar_div_post@2@@2@@?$subview@N@arma@@QAEXABU?$Base@NV?$eOp@V?$subview_row@N@arma@@Veop_scalar_div_post@2@@arma@@@1@PBD@Z$3 1003a5c0 f   normalize.obj
 0001:000395cb       __unwindfunclet$??$inplace_op@Vop_internal_equ@arma@@V?$eOp@V?$subview_row@N@arma@@Veop_scalar_div_post@2@@2@@?$subview@N@arma@@QAEXABU?$Base@NV?$eOp@V?$subview_row@N@arma@@Veop_scalar_div_post@2@@arma@@@1@PBD@Z$6 1003a5cb f   normalize.obj
 0001:000395d1       __unwindfunclet$??$inplace_op@Vop_internal_equ@arma@@V?$eOp@V?$subview_row@N@arma@@Veop_scalar_div_post@2@@2@@?$subview@N@arma@@QAEXABU?$Base@NV?$eOp@V?$subview_row@N@arma@@Veop_scalar_div_post@2@@arma@@@1@PBD@Z$1 1003a5d1 f   normalize.obj
 0001:000395dc       __ehhandler$??$inplace_op@Vop_internal_equ@arma@@V?$eOp@V?$subview_row@N@arma@@Veop_scalar_div_post@2@@2@@?$subview@N@arma@@QAEXABU?$Base@NV?$eOp@V?$subview_row@N@arma@@Veop_scalar_div_post@2@@arma@@@1@PBD@Z 1003a5dc f   normalize.obj
 0001:00039610       __unwindfunclet$??4?$Mat@N@arma@@QAEABV01@ABV?$subview@N@1@@Z$0 1003a610 f   normalize.obj
 0001:0003961b       __unwindfunclet$??4?$Mat@N@arma@@QAEABV01@ABV?$subview@N@1@@Z$1 1003a61b f   normalize.obj
 0001:00039621       __ehhandler$??4?$Mat@N@arma@@QAEABV01@ABV?$subview@N@1@@Z 1003a621 f   normalize.obj
 0001:00039650       __unwindfunclet$?operate@SqrtDist@@UAEXXZ$0 1003a650 f   sqrtdist.obj
 0001:00039658       __unwindfunclet$?operate@SqrtDist@@UAEXXZ$1 1003a658 f   sqrtdist.obj
 0001:00039663       __unwindfunclet$?operate@SqrtDist@@UAEXXZ$7 1003a663 f   sqrtdist.obj
 0001:00039669       __unwindfunclet$?operate@SqrtDist@@UAEXXZ$3 1003a669 f   sqrtdist.obj
 0001:0003966e       __unwindfunclet$?operate@SqrtDist@@UAEXXZ$8 1003a66e f   sqrtdist.obj
 0001:00039674       __unwindfunclet$?operate@SqrtDist@@UAEXXZ$4 1003a674 f   sqrtdist.obj
 0001:00039679       __unwindfunclet$?operate@SqrtDist@@UAEXXZ$5 1003a679 f   sqrtdist.obj
 0001:0003967e       __unwindfunclet$?operate@SqrtDist@@UAEXXZ$6 1003a67e f   sqrtdist.obj
 0001:00039683       __unwindfunclet$?operate@SqrtDist@@UAEXXZ$21 1003a683 f   sqrtdist.obj
 0001:00039689       __unwindfunclet$?operate@SqrtDist@@UAEXXZ$26 1003a689 f   sqrtdist.obj
 0001:0003968f       __unwindfunclet$?operate@SqrtDist@@UAEXXZ$31 1003a68f f   sqrtdist.obj
 0001:00039695       __unwindfunclet$?operate@SqrtDist@@UAEXXZ$38 1003a695 f   sqrtdist.obj
 0001:0003969b       __unwindfunclet$?operate@SqrtDist@@UAEXXZ$40 1003a69b f   sqrtdist.obj
 0001:000396a1       __ehhandler$?operate@SqrtDist@@UAEXXZ 1003a6a1 f   sqrtdist.obj
 0001:000396d0       __unwindfunclet$??$vec_norm_2@V?$eGlue@V?$subview_row@N@arma@@V12@Veglue_minus@2@@arma@@@op_norm@arma@@SANABV?$Proxy@V?$eGlue@V?$subview_row@N@arma@@V12@Veglue_minus@2@@arma@@@1@PBN@Z$8 1003a6d0 f   sqrtdist.obj
 0001:000396db       __unwindfunclet$??$vec_norm_2@V?$eGlue@V?$subview_row@N@arma@@V12@Veglue_minus@2@@arma@@@op_norm@arma@@SANABV?$Proxy@V?$eGlue@V?$subview_row@N@arma@@V12@Veglue_minus@2@@arma@@@1@PBN@Z$1 1003a6db f   sqrtdist.obj
 0001:000396e6       __unwindfunclet$??$vec_norm_2@V?$eGlue@V?$subview_row@N@arma@@V12@Veglue_minus@2@@arma@@@op_norm@arma@@SANABV?$Proxy@V?$eGlue@V?$subview_row@N@arma@@V12@Veglue_minus@2@@arma@@@1@PBN@Z$11 1003a6e6 f   sqrtdist.obj
 0001:000396ec       __ehhandler$??$vec_norm_2@V?$eGlue@V?$subview_row@N@arma@@V12@Veglue_minus@2@@arma@@@op_norm@arma@@SANABV?$Proxy@V?$eGlue@V?$subview_row@N@arma@@V12@Veglue_minus@2@@arma@@@1@PBN@Z 1003a6ec f   sqrtdist.obj
 0001:00039714       __unwindfunclet$??$use_facet@V?$codecvt@DDU_Mbstatet@@@std@@@std@@YAABV?$codecvt@DDU_Mbstatet@@@0@ABVlocale@0@@Z$0 1003a714 f   libcpmt:cout.obj
 0001:0003971c       __ehhandler$??$use_facet@V?$codecvt@DDU_Mbstatet@@@std@@@std@@YAABV?$codecvt@DDU_Mbstatet@@@0@ABVlocale@0@@Z 1003a71c f   libcpmt:cout.obj
 0001:00039737       __unwindfunclet$?_Endwrite@?$basic_filebuf@DU?$char_traits@D@std@@@std@@IAE_NXZ$0 1003a737 f   libcpmt:cout.obj
 0001:0003973f       __ehhandler$?_Endwrite@?$basic_filebuf@DU?$char_traits@D@std@@@std@@IAE_NXZ 1003a73f f   libcpmt:cout.obj
 0001:00039764       __unwindfunclet$?_Getcat@?$codecvt@DDU_Mbstatet@@@std@@SAIPAPBVfacet@locale@2@PBV42@@Z$0 1003a764 f   libcpmt:cout.obj
 0001:00039771       __ehhandler$?_Getcat@?$codecvt@DDU_Mbstatet@@@std@@SAIPAPBVfacet@locale@2@PBV42@@Z 1003a771 f   libcpmt:cout.obj
 0001:0003978c       __unwindfunclet$?overflow@?$basic_filebuf@DU?$char_traits@D@std@@@std@@MAEHH@Z$0 1003a78c f   libcpmt:cout.obj
 0001:00039794       __ehhandler$?overflow@?$basic_filebuf@DU?$char_traits@D@std@@@std@@MAEHH@Z 1003a794 f   libcpmt:cout.obj
 0001:000397b9       __unwindfunclet$?uflow@?$basic_filebuf@DU?$char_traits@D@std@@@std@@MAEHXZ$0 1003a7b9 f   libcpmt:cout.obj
 0001:000397c1       __ehhandler$?uflow@?$basic_filebuf@DU?$char_traits@D@std@@@std@@MAEHXZ 1003a7c1 f   libcpmt:cout.obj
 0001:000397e6       __ehhandler$??1_Fac_node@std@@QAE@XZ 1003a7e6 f   libcpmt:locale0.obj
 0001:00039801       __unwindfunclet$?_Init@locale@std@@CAPAV_Locimp@12@_N@Z$0 1003a801 f   libcpmt:locale0.obj
 0001:00039809       __ehhandler$?_Init@locale@std@@CAPAV_Locimp@12@_N@Z 1003a809 f   libcpmt:locale0.obj
 0001:00039824       __unwindfunclet$?_Locimp_dtor@_Locimp@locale@std@@CAXPAV123@@Z$0 1003a824 f   libcpmt:locale0.obj
 0001:0003982c       __ehhandler$?_Locimp_dtor@_Locimp@locale@std@@CAXPAV123@@Z 1003a82c f   libcpmt:locale0.obj
 0001:00039847       __ehhandler$?CallUnexpected@@YAXPBU_s_ESTypeList@@@Z 1003a847 f   libvcruntime:frame.obj
 0001:00039870       ??__F?constructor@PandaMat@@2V?$Persistent@VFunction@v8@@V?$NonCopyablePersistentTraits@VFunction@v8@@@2@@v8@@A@@YAXXZ 1003a870 f   pandamat.obj
 0001:000398b1       ??__Finitlocks@std@@YAXXZ  1003a8b1 f   libcpmt:xlock.obj
 0001:000398bb       ??__Fcout@std@@YAXXZ       1003a8bb f   libcpmt:cout.obj
 0001:000398c5       ??__Ffout@std@@YAXXZ       1003a8c5 f   libcpmt:cout.obj
 0001:000398cf       ??__Finitlocks@@YAXXZ      1003a8cf f   libcpmt:cout.obj
 0001:000398d9       ??__F_Fac_tidy_reg@std@@YAXXZ 1003a8d9 f   libcpmt:locale0.obj
 0001:000398e3       ??__Fclassic_locale@std@@YAXXZ 1003a8e3 f   libcpmt:locale0.obj
 0001:000398ed       ??__Finit_atexit@@YAXXZ    1003a8ed f   libcpmt:iosptrs.obj
 0001:000398f7       ??__Finitlocks@std@@YAXXZ  1003a8f7 f   libcpmt:iosptrs.obj
 0002:00000158       ?initlocks$initializer$@std@@3P6AXXZA 1003b158     libcpmt:xlock.obj
 0002:0000015c       ?initlocks$initializer$@@3P6AXXZA 1003b15c     libcpmt:cout.obj
 0002:00000160       ?fout$initializer$@std@@3P6AXXZA 1003b160     libcpmt:cout.obj
 0002:00000164       ?cout$initializer$@std@@3P6AXXZA 1003b164     libcpmt:cout.obj
 0002:00000168       ?init_cout$initializer$@std@@3P6AXXZA 1003b168     libcpmt:cout.obj
 0002:0000016c       ?initlocks$initializer$@std@@3P6AXXZA 1003b16c     libcpmt:iosptrs.obj
 0002:00000170       ?init_atexit$initializer$@@3P6AXXZA 1003b170     libcpmt:iosptrs.obj
 0002:00000174       ?_Fac_tidy_reg$initializer$@std@@3P6AXXZA 1003b174     libcpmt:locale0.obj
 0002:00000178       ?classic_locale$initializer$@std@@3P6AXXZA 1003b178     libcpmt:locale0.obj
 0002:0000017c       ?ones$initializer$@fill@arma@@3P6AXXZA 1003b17c     addon.obj
 0002:00000180       ?zeros$initializer$@fill@arma@@3P6AXXZA 1003b180     addon.obj
 0002:00000184       ?static_subset$initializer$@arma@@3P6AXXZA 1003b184     addon.obj
 0002:00000188       ?eucl_dist$initializer$@arma@@3P6AXXZA 1003b188     addon.obj
 0002:0000018c       ?fast$initializer$@solve_opts@arma@@3P6AXXZA 1003b18c     addon.obj
 0002:00000190       ?prob_dist$initializer$@arma@@3P6AXXZA 1003b190     addon.obj
 0002:00000194       ?none$initializer$@solve_opts@arma@@3P6AXXZA 1003b194     addon.obj
 0002:00000198       ?none$initializer$@fill@arma@@3P6AXXZA 1003b198     addon.obj
 0002:0000019c       ?equilibrate$initializer$@solve_opts@arma@@3P6AXXZA 1003b19c     addon.obj
 0002:000001a0       ?endr$initializer$@arma@@3P6AXXZA 1003b1a0     addon.obj
 0002:000001a4       ?static_spread$initializer$@arma@@3P6AXXZA 1003b1a4     addon.obj
 0002:000001a8       ?maha_dist$initializer$@arma@@3P6AXXZA 1003b1a8     addon.obj
 0002:000001ac       ?random_subset$initializer$@arma@@3P6AXXZA 1003b1ac     addon.obj
 0002:000001b0       ?randn$initializer$@fill@arma@@3P6AXXZA 1003b1b0     addon.obj
 0002:000001b4       ?keep_existing$initializer$@arma@@3P6AXXZA 1003b1b4     addon.obj
 0002:000001b8       ?randu$initializer$@fill@arma@@3P6AXXZA 1003b1b8     addon.obj
 0002:000001bc       ?random_spread$initializer$@arma@@3P6AXXZA 1003b1bc     addon.obj
 0002:000001c0       ?tril$initializer$@solve_opts@arma@@3P6AXXZA 1003b1c0     addon.obj
 0002:000001c4       ?eye$initializer$@fill@arma@@3P6AXXZA 1003b1c4     addon.obj
 0002:000001c8       ?triu$initializer$@solve_opts@arma@@3P6AXXZA 1003b1c8     addon.obj
 0002:000001cc       ?no_approx$initializer$@solve_opts@arma@@3P6AXXZA 1003b1cc     addon.obj
 0002:000001d0       ?ones$initializer$@fill@arma@@3P6AXXZA 1003b1d0     pandamat.obj
 0002:000001d4       ?zeros$initializer$@fill@arma@@3P6AXXZA 1003b1d4     pandamat.obj
 0002:000001d8       ?static_subset$initializer$@arma@@3P6AXXZA 1003b1d8     pandamat.obj
 0002:000001dc       ?eucl_dist$initializer$@arma@@3P6AXXZA 1003b1dc     pandamat.obj
 0002:000001e0       ?fast$initializer$@solve_opts@arma@@3P6AXXZA 1003b1e0     pandamat.obj
 0002:000001e4       ?prob_dist$initializer$@arma@@3P6AXXZA 1003b1e4     pandamat.obj
 0002:000001e8       ?none$initializer$@solve_opts@arma@@3P6AXXZA 1003b1e8     pandamat.obj
 0002:000001ec       ?none$initializer$@fill@arma@@3P6AXXZA 1003b1ec     pandamat.obj
 0002:000001f0       ?equilibrate$initializer$@solve_opts@arma@@3P6AXXZA 1003b1f0     pandamat.obj
 0002:000001f4       ?endr$initializer$@arma@@3P6AXXZA 1003b1f4     pandamat.obj
 0002:000001f8       ?static_spread$initializer$@arma@@3P6AXXZA 1003b1f8     pandamat.obj
 0002:000001fc       ?maha_dist$initializer$@arma@@3P6AXXZA 1003b1fc     pandamat.obj
 0002:00000200       ?random_subset$initializer$@arma@@3P6AXXZA 1003b200     pandamat.obj
 0002:00000204       ?randn$initializer$@fill@arma@@3P6AXXZA 1003b204     pandamat.obj
 0002:00000208       ?keep_existing$initializer$@arma@@3P6AXXZA 1003b208     pandamat.obj
 0002:0000020c       ?randu$initializer$@fill@arma@@3P6AXXZA 1003b20c     pandamat.obj
 0002:00000210       ?random_spread$initializer$@arma@@3P6AXXZA 1003b210     pandamat.obj
 0002:00000214       ?tril$initializer$@solve_opts@arma@@3P6AXXZA 1003b214     pandamat.obj
 0002:00000218       ?eye$initializer$@fill@arma@@3P6AXXZA 1003b218     pandamat.obj
 0002:0000021c       ?triu$initializer$@solve_opts@arma@@3P6AXXZA 1003b21c     pandamat.obj
 0002:00000220       ?no_approx$initializer$@solve_opts@arma@@3P6AXXZA 1003b220     pandamat.obj
 0002:00000224       ??constructor$initializer$@PandaMat@@2P6AXXZA@@3P6AXXZA 1003b224     pandamat.obj
 0002:00000228       ?ones$initializer$@fill@arma@@3P6AXXZA 1003b228     pandapool.obj
 0002:0000022c       ?zeros$initializer$@fill@arma@@3P6AXXZA 1003b22c     pandapool.obj
 0002:00000230       ?static_subset$initializer$@arma@@3P6AXXZA 1003b230     pandapool.obj
 0002:00000234       ?eucl_dist$initializer$@arma@@3P6AXXZA 1003b234     pandapool.obj
 0002:00000238       ?fast$initializer$@solve_opts@arma@@3P6AXXZA 1003b238     pandapool.obj
 0002:0000023c       ?prob_dist$initializer$@arma@@3P6AXXZA 1003b23c     pandapool.obj
 0002:00000240       ?none$initializer$@solve_opts@arma@@3P6AXXZA 1003b240     pandapool.obj
 0002:00000244       ?none$initializer$@fill@arma@@3P6AXXZA 1003b244     pandapool.obj
 0002:00000248       ?equilibrate$initializer$@solve_opts@arma@@3P6AXXZA 1003b248     pandapool.obj
 0002:0000024c       ?endr$initializer$@arma@@3P6AXXZA 1003b24c     pandapool.obj
 0002:00000250       ?static_spread$initializer$@arma@@3P6AXXZA 1003b250     pandapool.obj
 0002:00000254       ?maha_dist$initializer$@arma@@3P6AXXZA 1003b254     pandapool.obj
 0002:00000258       ?random_subset$initializer$@arma@@3P6AXXZA 1003b258     pandapool.obj
 0002:0000025c       ?randn$initializer$@fill@arma@@3P6AXXZA 1003b25c     pandapool.obj
 0002:00000260       ?keep_existing$initializer$@arma@@3P6AXXZA 1003b260     pandapool.obj
 0002:00000264       ?randu$initializer$@fill@arma@@3P6AXXZA 1003b264     pandapool.obj
 0002:00000268       ?random_spread$initializer$@arma@@3P6AXXZA 1003b268     pandapool.obj
 0002:0000026c       ?tril$initializer$@solve_opts@arma@@3P6AXXZA 1003b26c     pandapool.obj
 0002:00000270       ?eye$initializer$@fill@arma@@3P6AXXZA 1003b270     pandapool.obj
 0002:00000274       ?triu$initializer$@solve_opts@arma@@3P6AXXZA 1003b274     pandapool.obj
 0002:00000278       ?no_approx$initializer$@solve_opts@arma@@3P6AXXZA 1003b278     pandapool.obj
 0002:0000027c       ?ones$initializer$@fill@arma@@3P6AXXZA 1003b27c     opercollection.obj
 0002:00000280       ?zeros$initializer$@fill@arma@@3P6AXXZA 1003b280     opercollection.obj
 0002:00000284       ?static_subset$initializer$@arma@@3P6AXXZA 1003b284     opercollection.obj
 0002:00000288       ?eucl_dist$initializer$@arma@@3P6AXXZA 1003b288     opercollection.obj
 0002:0000028c       ?fast$initializer$@solve_opts@arma@@3P6AXXZA 1003b28c     opercollection.obj
 0002:00000290       ?prob_dist$initializer$@arma@@3P6AXXZA 1003b290     opercollection.obj
 0002:00000294       ?none$initializer$@solve_opts@arma@@3P6AXXZA 1003b294     opercollection.obj
 0002:00000298       ?none$initializer$@fill@arma@@3P6AXXZA 1003b298     opercollection.obj
 0002:0000029c       ?equilibrate$initializer$@solve_opts@arma@@3P6AXXZA 1003b29c     opercollection.obj
 0002:000002a0       ?endr$initializer$@arma@@3P6AXXZA 1003b2a0     opercollection.obj
 0002:000002a4       ?static_spread$initializer$@arma@@3P6AXXZA 1003b2a4     opercollection.obj
 0002:000002a8       ?maha_dist$initializer$@arma@@3P6AXXZA 1003b2a8     opercollection.obj
 0002:000002ac       ?random_subset$initializer$@arma@@3P6AXXZA 1003b2ac     opercollection.obj
 0002:000002b0       ?randn$initializer$@fill@arma@@3P6AXXZA 1003b2b0     opercollection.obj
 0002:000002b4       ?keep_existing$initializer$@arma@@3P6AXXZA 1003b2b4     opercollection.obj
 0002:000002b8       ?randu$initializer$@fill@arma@@3P6AXXZA 1003b2b8     opercollection.obj
 0002:000002bc       ?random_spread$initializer$@arma@@3P6AXXZA 1003b2bc     opercollection.obj
 0002:000002c0       ?tril$initializer$@solve_opts@arma@@3P6AXXZA 1003b2c0     opercollection.obj
 0002:000002c4       ?eye$initializer$@fill@arma@@3P6AXXZA 1003b2c4     opercollection.obj
 0002:000002c8       ?triu$initializer$@solve_opts@arma@@3P6AXXZA 1003b2c8     opercollection.obj
 0002:000002cc       ?no_approx$initializer$@solve_opts@arma@@3P6AXXZA 1003b2cc     opercollection.obj
 0002:000002d0       ?ones$initializer$@fill@arma@@3P6AXXZA 1003b2d0     operationdata.obj
 0002:000002d4       ?zeros$initializer$@fill@arma@@3P6AXXZA 1003b2d4     operationdata.obj
 0002:000002d8       ?static_subset$initializer$@arma@@3P6AXXZA 1003b2d8     operationdata.obj
 0002:000002dc       ?eucl_dist$initializer$@arma@@3P6AXXZA 1003b2dc     operationdata.obj
 0002:000002e0       ?fast$initializer$@solve_opts@arma@@3P6AXXZA 1003b2e0     operationdata.obj
 0002:000002e4       ?prob_dist$initializer$@arma@@3P6AXXZA 1003b2e4     operationdata.obj
 0002:000002e8       ?none$initializer$@solve_opts@arma@@3P6AXXZA 1003b2e8     operationdata.obj
 0002:000002ec       ?none$initializer$@fill@arma@@3P6AXXZA 1003b2ec     operationdata.obj
 0002:000002f0       ?equilibrate$initializer$@solve_opts@arma@@3P6AXXZA 1003b2f0     operationdata.obj
 0002:000002f4       ?endr$initializer$@arma@@3P6AXXZA 1003b2f4     operationdata.obj
 0002:000002f8       ?static_spread$initializer$@arma@@3P6AXXZA 1003b2f8     operationdata.obj
 0002:000002fc       ?maha_dist$initializer$@arma@@3P6AXXZA 1003b2fc     operationdata.obj
 0002:00000300       ?random_subset$initializer$@arma@@3P6AXXZA 1003b300     operationdata.obj
 0002:00000304       ?randn$initializer$@fill@arma@@3P6AXXZA 1003b304     operationdata.obj
 0002:00000308       ?keep_existing$initializer$@arma@@3P6AXXZA 1003b308     operationdata.obj
 0002:0000030c       ?randu$initializer$@fill@arma@@3P6AXXZA 1003b30c     operationdata.obj
 0002:00000310       ?random_spread$initializer$@arma@@3P6AXXZA 1003b310     operationdata.obj
 0002:00000314       ?tril$initializer$@solve_opts@arma@@3P6AXXZA 1003b314     operationdata.obj
 0002:00000318       ?eye$initializer$@fill@arma@@3P6AXXZA 1003b318     operationdata.obj
 0002:0000031c       ?triu$initializer$@solve_opts@arma@@3P6AXXZA 1003b31c     operationdata.obj
 0002:00000320       ?no_approx$initializer$@solve_opts@arma@@3P6AXXZA 1003b320     operationdata.obj
 0002:00000324       ?ones$initializer$@fill@arma@@3P6AXXZA 1003b324     operation.obj
 0002:00000328       ?zeros$initializer$@fill@arma@@3P6AXXZA 1003b328     operation.obj
 0002:0000032c       ?static_subset$initializer$@arma@@3P6AXXZA 1003b32c     operation.obj
 0002:00000330       ?eucl_dist$initializer$@arma@@3P6AXXZA 1003b330     operation.obj
 0002:00000334       ?fast$initializer$@solve_opts@arma@@3P6AXXZA 1003b334     operation.obj
 0002:00000338       ?prob_dist$initializer$@arma@@3P6AXXZA 1003b338     operation.obj
 0002:0000033c       ?none$initializer$@solve_opts@arma@@3P6AXXZA 1003b33c     operation.obj
 0002:00000340       ?none$initializer$@fill@arma@@3P6AXXZA 1003b340     operation.obj
 0002:00000344       ?equilibrate$initializer$@solve_opts@arma@@3P6AXXZA 1003b344     operation.obj
 0002:00000348       ?endr$initializer$@arma@@3P6AXXZA 1003b348     operation.obj
 0002:0000034c       ?static_spread$initializer$@arma@@3P6AXXZA 1003b34c     operation.obj
 0002:00000350       ?maha_dist$initializer$@arma@@3P6AXXZA 1003b350     operation.obj
 0002:00000354       ?random_subset$initializer$@arma@@3P6AXXZA 1003b354     operation.obj
 0002:00000358       ?randn$initializer$@fill@arma@@3P6AXXZA 1003b358     operation.obj
 0002:0000035c       ?keep_existing$initializer$@arma@@3P6AXXZA 1003b35c     operation.obj
 0002:00000360       ?randu$initializer$@fill@arma@@3P6AXXZA 1003b360     operation.obj
 0002:00000364       ?random_spread$initializer$@arma@@3P6AXXZA 1003b364     operation.obj
 0002:00000368       ?tril$initializer$@solve_opts@arma@@3P6AXXZA 1003b368     operation.obj
 0002:0000036c       ?eye$initializer$@fill@arma@@3P6AXXZA 1003b36c     operation.obj
 0002:00000370       ?triu$initializer$@solve_opts@arma@@3P6AXXZA 1003b370     operation.obj
 0002:00000374       ?no_approx$initializer$@solve_opts@arma@@3P6AXXZA 1003b374     operation.obj
 0002:00000378       ?ones$initializer$@fill@arma@@3P6AXXZA 1003b378     add.obj
 0002:0000037c       ?zeros$initializer$@fill@arma@@3P6AXXZA 1003b37c     add.obj
 0002:00000380       ?static_subset$initializer$@arma@@3P6AXXZA 1003b380     add.obj
 0002:00000384       ?eucl_dist$initializer$@arma@@3P6AXXZA 1003b384     add.obj
 0002:00000388       ?fast$initializer$@solve_opts@arma@@3P6AXXZA 1003b388     add.obj
 0002:0000038c       ?prob_dist$initializer$@arma@@3P6AXXZA 1003b38c     add.obj
 0002:00000390       ?none$initializer$@solve_opts@arma@@3P6AXXZA 1003b390     add.obj
 0002:00000394       ?none$initializer$@fill@arma@@3P6AXXZA 1003b394     add.obj
 0002:00000398       ?equilibrate$initializer$@solve_opts@arma@@3P6AXXZA 1003b398     add.obj
 0002:0000039c       ?endr$initializer$@arma@@3P6AXXZA 1003b39c     add.obj
 0002:000003a0       ?static_spread$initializer$@arma@@3P6AXXZA 1003b3a0     add.obj
 0002:000003a4       ?maha_dist$initializer$@arma@@3P6AXXZA 1003b3a4     add.obj
 0002:000003a8       ?random_subset$initializer$@arma@@3P6AXXZA 1003b3a8     add.obj
 0002:000003ac       ?randn$initializer$@fill@arma@@3P6AXXZA 1003b3ac     add.obj
 0002:000003b0       ?keep_existing$initializer$@arma@@3P6AXXZA 1003b3b0     add.obj
 0002:000003b4       ?randu$initializer$@fill@arma@@3P6AXXZA 1003b3b4     add.obj
 0002:000003b8       ?random_spread$initializer$@arma@@3P6AXXZA 1003b3b8     add.obj
 0002:000003bc       ?tril$initializer$@solve_opts@arma@@3P6AXXZA 1003b3bc     add.obj
 0002:000003c0       ?eye$initializer$@fill@arma@@3P6AXXZA 1003b3c0     add.obj
 0002:000003c4       ?triu$initializer$@solve_opts@arma@@3P6AXXZA 1003b3c4     add.obj
 0002:000003c8       ?no_approx$initializer$@solve_opts@arma@@3P6AXXZA 1003b3c8     add.obj
 0002:000003cc       ?ones$initializer$@fill@arma@@3P6AXXZA 1003b3cc     dot.obj
 0002:000003d0       ?zeros$initializer$@fill@arma@@3P6AXXZA 1003b3d0     dot.obj
 0002:000003d4       ?static_subset$initializer$@arma@@3P6AXXZA 1003b3d4     dot.obj
 0002:000003d8       ?eucl_dist$initializer$@arma@@3P6AXXZA 1003b3d8     dot.obj
 0002:000003dc       ?fast$initializer$@solve_opts@arma@@3P6AXXZA 1003b3dc     dot.obj
 0002:000003e0       ?prob_dist$initializer$@arma@@3P6AXXZA 1003b3e0     dot.obj
 0002:000003e4       ?none$initializer$@solve_opts@arma@@3P6AXXZA 1003b3e4     dot.obj
 0002:000003e8       ?none$initializer$@fill@arma@@3P6AXXZA 1003b3e8     dot.obj
 0002:000003ec       ?equilibrate$initializer$@solve_opts@arma@@3P6AXXZA 1003b3ec     dot.obj
 0002:000003f0       ?endr$initializer$@arma@@3P6AXXZA 1003b3f0     dot.obj
 0002:000003f4       ?static_spread$initializer$@arma@@3P6AXXZA 1003b3f4     dot.obj
 0002:000003f8       ?maha_dist$initializer$@arma@@3P6AXXZA 1003b3f8     dot.obj
 0002:000003fc       ?random_subset$initializer$@arma@@3P6AXXZA 1003b3fc     dot.obj
 0002:00000400       ?randn$initializer$@fill@arma@@3P6AXXZA 1003b400     dot.obj
 0002:00000404       ?keep_existing$initializer$@arma@@3P6AXXZA 1003b404     dot.obj
 0002:00000408       ?randu$initializer$@fill@arma@@3P6AXXZA 1003b408     dot.obj
 0002:0000040c       ?random_spread$initializer$@arma@@3P6AXXZA 1003b40c     dot.obj
 0002:00000410       ?tril$initializer$@solve_opts@arma@@3P6AXXZA 1003b410     dot.obj
 0002:00000414       ?eye$initializer$@fill@arma@@3P6AXXZA 1003b414     dot.obj
 0002:00000418       ?triu$initializer$@solve_opts@arma@@3P6AXXZA 1003b418     dot.obj
 0002:0000041c       ?no_approx$initializer$@solve_opts@arma@@3P6AXXZA 1003b41c     dot.obj
 0002:00000420       ?ones$initializer$@fill@arma@@3P6AXXZA 1003b420     transpose.obj
 0002:00000424       ?zeros$initializer$@fill@arma@@3P6AXXZA 1003b424     transpose.obj
 0002:00000428       ?static_subset$initializer$@arma@@3P6AXXZA 1003b428     transpose.obj
 0002:0000042c       ?eucl_dist$initializer$@arma@@3P6AXXZA 1003b42c     transpose.obj
 0002:00000430       ?fast$initializer$@solve_opts@arma@@3P6AXXZA 1003b430     transpose.obj
 0002:00000434       ?prob_dist$initializer$@arma@@3P6AXXZA 1003b434     transpose.obj
 0002:00000438       ?none$initializer$@solve_opts@arma@@3P6AXXZA 1003b438     transpose.obj
 0002:0000043c       ?none$initializer$@fill@arma@@3P6AXXZA 1003b43c     transpose.obj
 0002:00000440       ?equilibrate$initializer$@solve_opts@arma@@3P6AXXZA 1003b440     transpose.obj
 0002:00000444       ?endr$initializer$@arma@@3P6AXXZA 1003b444     transpose.obj
 0002:00000448       ?static_spread$initializer$@arma@@3P6AXXZA 1003b448     transpose.obj
 0002:0000044c       ?maha_dist$initializer$@arma@@3P6AXXZA 1003b44c     transpose.obj
 0002:00000450       ?random_subset$initializer$@arma@@3P6AXXZA 1003b450     transpose.obj
 0002:00000454       ?randn$initializer$@fill@arma@@3P6AXXZA 1003b454     transpose.obj
 0002:00000458       ?keep_existing$initializer$@arma@@3P6AXXZA 1003b458     transpose.obj
 0002:0000045c       ?randu$initializer$@fill@arma@@3P6AXXZA 1003b45c     transpose.obj
 0002:00000460       ?random_spread$initializer$@arma@@3P6AXXZA 1003b460     transpose.obj
 0002:00000464       ?tril$initializer$@solve_opts@arma@@3P6AXXZA 1003b464     transpose.obj
 0002:00000468       ?eye$initializer$@fill@arma@@3P6AXXZA 1003b468     transpose.obj
 0002:0000046c       ?triu$initializer$@solve_opts@arma@@3P6AXXZA 1003b46c     transpose.obj
 0002:00000470       ?no_approx$initializer$@solve_opts@arma@@3P6AXXZA 1003b470     transpose.obj
 0002:00000474       ?ones$initializer$@fill@arma@@3P6AXXZA 1003b474     normalize.obj
 0002:00000478       ?zeros$initializer$@fill@arma@@3P6AXXZA 1003b478     normalize.obj
 0002:0000047c       ?static_subset$initializer$@arma@@3P6AXXZA 1003b47c     normalize.obj
 0002:00000480       ?eucl_dist$initializer$@arma@@3P6AXXZA 1003b480     normalize.obj
 0002:00000484       ?fast$initializer$@solve_opts@arma@@3P6AXXZA 1003b484     normalize.obj
 0002:00000488       ?prob_dist$initializer$@arma@@3P6AXXZA 1003b488     normalize.obj
 0002:0000048c       ?none$initializer$@solve_opts@arma@@3P6AXXZA 1003b48c     normalize.obj
 0002:00000490       ?none$initializer$@fill@arma@@3P6AXXZA 1003b490     normalize.obj
 0002:00000494       ?equilibrate$initializer$@solve_opts@arma@@3P6AXXZA 1003b494     normalize.obj
 0002:00000498       ?endr$initializer$@arma@@3P6AXXZA 1003b498     normalize.obj
 0002:0000049c       ?static_spread$initializer$@arma@@3P6AXXZA 1003b49c     normalize.obj
 0002:000004a0       ?maha_dist$initializer$@arma@@3P6AXXZA 1003b4a0     normalize.obj
 0002:000004a4       ?random_subset$initializer$@arma@@3P6AXXZA 1003b4a4     normalize.obj
 0002:000004a8       ?randn$initializer$@fill@arma@@3P6AXXZA 1003b4a8     normalize.obj
 0002:000004ac       ?keep_existing$initializer$@arma@@3P6AXXZA 1003b4ac     normalize.obj
 0002:000004b0       ?randu$initializer$@fill@arma@@3P6AXXZA 1003b4b0     normalize.obj
 0002:000004b4       ?random_spread$initializer$@arma@@3P6AXXZA 1003b4b4     normalize.obj
 0002:000004b8       ?tril$initializer$@solve_opts@arma@@3P6AXXZA 1003b4b8     normalize.obj
 0002:000004bc       ?eye$initializer$@fill@arma@@3P6AXXZA 1003b4bc     normalize.obj
 0002:000004c0       ?triu$initializer$@solve_opts@arma@@3P6AXXZA 1003b4c0     normalize.obj
 0002:000004c4       ?no_approx$initializer$@solve_opts@arma@@3P6AXXZA 1003b4c4     normalize.obj
 0002:000004c8       ?ones$initializer$@fill@arma@@3P6AXXZA 1003b4c8     sqrtdist.obj
 0002:000004cc       ?zeros$initializer$@fill@arma@@3P6AXXZA 1003b4cc     sqrtdist.obj
 0002:000004d0       ?static_subset$initializer$@arma@@3P6AXXZA 1003b4d0     sqrtdist.obj
 0002:000004d4       ?eucl_dist$initializer$@arma@@3P6AXXZA 1003b4d4     sqrtdist.obj
 0002:000004d8       ?fast$initializer$@solve_opts@arma@@3P6AXXZA 1003b4d8     sqrtdist.obj
 0002:000004dc       ?prob_dist$initializer$@arma@@3P6AXXZA 1003b4dc     sqrtdist.obj
 0002:000004e0       ?none$initializer$@solve_opts@arma@@3P6AXXZA 1003b4e0     sqrtdist.obj
 0002:000004e4       ?none$initializer$@fill@arma@@3P6AXXZA 1003b4e4     sqrtdist.obj
 0002:000004e8       ?equilibrate$initializer$@solve_opts@arma@@3P6AXXZA 1003b4e8     sqrtdist.obj
 0002:000004ec       ?endr$initializer$@arma@@3P6AXXZA 1003b4ec     sqrtdist.obj
 0002:000004f0       ?static_spread$initializer$@arma@@3P6AXXZA 1003b4f0     sqrtdist.obj
 0002:000004f4       ?maha_dist$initializer$@arma@@3P6AXXZA 1003b4f4     sqrtdist.obj
 0002:000004f8       ?random_subset$initializer$@arma@@3P6AXXZA 1003b4f8     sqrtdist.obj
 0002:000004fc       ?randn$initializer$@fill@arma@@3P6AXXZA 1003b4fc     sqrtdist.obj
 0002:00000500       ?keep_existing$initializer$@arma@@3P6AXXZA 1003b500     sqrtdist.obj
 0002:00000504       ?randu$initializer$@fill@arma@@3P6AXXZA 1003b504     sqrtdist.obj
 0002:00000508       ?random_spread$initializer$@arma@@3P6AXXZA 1003b508     sqrtdist.obj
 0002:0000050c       ?tril$initializer$@solve_opts@arma@@3P6AXXZA 1003b50c     sqrtdist.obj
 0002:00000510       ?eye$initializer$@fill@arma@@3P6AXXZA 1003b510     sqrtdist.obj
 0002:00000514       ?triu$initializer$@solve_opts@arma@@3P6AXXZA 1003b514     sqrtdist.obj
 0002:00000518       ?no_approx$initializer$@solve_opts@arma@@3P6AXXZA 1003b518     sqrtdist.obj
 0002:00000528       ?pinit@@3P6AHXZA           1003b528     libcpmt:winapisupp.obj
 0002:0000052c       ?__scrt_initialize_tss_var@@3P6AHXZA 1003b52c     LIBCMT:thread_safe_statics.obj
 0002:00000ba0       ?_Win_errtab@std@@3QBU_Win_errtab_t@1@B 1003bba0     libcpmt:syserror.obj
 0002:00000df0       ?_Sys_errtab@std@@3QBU_Sys_errtab_t@1@B 1003bdf0     libcpmt:syserror.obj
 0002:0000165c       _digits                    1003c65c     libcpmt:xstoul.obj
 0002:00001684       _ndigs                     1003c684     libcpmt:xstoul.obj
 0002:000016ac       _digits                    1003c6ac     libcpmt:xstoull.obj
 0002:000016d4       _ndigs                     1003c6d4     libcpmt:xstoull.obj
 0002:00001700       ?LcidToLocaleNameTable@@3QBULcidToLocaleName@@B 1003c700     libcpmt:winapinls.obj
 0002:00001e20       ?LocaleNameToIndexTable@@3QBULocaleNameIndex@@B 1003ce20     libcpmt:winapinls.obj
 0002:000037bc       _GS_ExceptionPointers      1003e7bc     LIBCMT:gs_report.obj
 0002:00003808       ?ExceptionTemplate@?1??_CxxThrowException@@9@8@4UEHExceptionRecord@@B 1003e808     libvcruntime:throw.obj
 0002:00003828       ?module_names@?A0x89697e75@@3QBQB_WB 1003e828     libvcruntime:winapi_downlevel.obj
 0002:000038d8       ?candidate_modules@?1??try_get_FlsAlloc@@YAP6GKP6GXPAX@Z@ZXZ@4QBW4module_id@?A0x89697e75@@B 1003e8d8     libvcruntime:winapi_downlevel.obj
 0002:000038e0       ?candidate_modules@?1??try_get_FlsFree@@YAP6GHK@ZXZ@4QBW4module_id@?A0x89697e75@@B 1003e8e0     libvcruntime:winapi_downlevel.obj
 0002:000038e8       ?candidate_modules@?1??try_get_FlsGetValue@@YAP6GPAXK@ZXZ@4QBW4module_id@?A0x89697e75@@B 1003e8e8     libvcruntime:winapi_downlevel.obj
 0002:000038f0       ?candidate_modules@?1??try_get_FlsSetValue@@YAP6GHKPAX@ZXZ@4QBW4module_id@?A0x89697e75@@B 1003e8f0     libvcruntime:winapi_downlevel.obj
 0002:000038f8       ?candidate_modules@?1??try_get_InitializeCriticalSectionEx@@YAP6GHPAU_RTL_CRITICAL_SECTION@@KK@ZXZ@4QBW4module_id@?A0x89697e75@@B 1003e8f8     libvcruntime:winapi_downlevel.obj
 0002:00003900       ?tokenTable@@3QBQBDB       1003e900     libvcruntime:undname.obj
 0002:00003938       ?nameTable@@3QBQBDB        1003e938     libvcruntime:undname.obj
 0002:00003a7c       ?rttiTable@@3QBQBDB        1003ea7c     libvcruntime:undname.obj
 0002:000043f0       _errtable                  1003f3f0     libucrt:errno.obj
 0002:00005730       POW_name                   10040730     libucrt:pow.obj
 0002:00005808       ___acrt_initializers       10040808     libucrt:initialization.obj
 0002:00005990       __first_127char            10040990     libucrt:wsetlocale.obj
 0002:00005f90       ?_names@?1??_get_fname@@9@9 10040f90     libucrt:fpexcept.obj
 0002:000060b8       _over                      100410b8     libucrt:fpctrl.obj
 0002:000060c4       _under                     100410c4     libucrt:fpctrl.obj
 0002:000060d0       _module_names              100410d0     libucrt:winapi_thunks.obj
 0002:00006570       ?candidate_modules@?1??try_get_CompareStringEx@@YAP6GHPB_WK0H0HPAU_nlsversioninfo@@PAXJ@ZXZ@4QBW4module_id@?A0x352e5c4b@@B 10041570     libucrt:winapi_thunks.obj
 0002:00006578       ?candidate_modules@?1??try_get_EnumSystemLocalesEx@@YAP6GHP6GHPA_WKJ@ZKJPAX@ZXZ@4QBW4module_id@?A0x352e5c4b@@B 10041578     libucrt:winapi_thunks.obj
 0002:00006594       ?candidate_modules@?1??try_get_FlsAlloc@@YAP6GKP6GXPAX@Z@ZXZ@4QBW4module_id@?A0x352e5c4b@@B 10041594     libucrt:winapi_thunks.obj
 0002:0000659c       ?candidate_modules@?1??try_get_FlsFree@@YAP6GHK@ZXZ@4QBW4module_id@?A0x352e5c4b@@B 1004159c     libucrt:winapi_thunks.obj
 0002:000065a4       ?candidate_modules@?1??try_get_FlsGetValue@@YAP6GPAXK@ZXZ@4QBW4module_id@?A0x352e5c4b@@B 100415a4     libucrt:winapi_thunks.obj
 0002:000065ac       ?candidate_modules@?1??try_get_FlsSetValue@@YAP6GHKPAX@ZXZ@4QBW4module_id@?A0x352e5c4b@@B 100415ac     libucrt:winapi_thunks.obj
 0002:000065b4       ?candidate_modules@?1??try_get_GetActiveWindow@@YAP6GPAUHWND__@@XZXZ@4QBW4module_id@?A0x352e5c4b@@B 100415b4     libucrt:winapi_thunks.obj
 0002:000065cc       ?candidate_modules@?1??try_get_GetCurrentPackageId@@YAP6GJPAIPAE@ZXZ@4QBW4module_id@?A0x352e5c4b@@B 100415cc     libucrt:winapi_thunks.obj
 0002:000065d4       ?candidate_modules@?1??try_get_GetLastActivePopup@@YAP6GPAUHWND__@@PAU2@@ZXZ@4QBW4module_id@?A0x352e5c4b@@B 100415d4     libucrt:winapi_thunks.obj
 0002:000065f0       ?candidate_modules@?1??try_get_GetLocaleInfoEx@@YAP6GHPB_WKPA_WH@ZXZ@4QBW4module_id@?A0x352e5c4b@@B 100415f0     libucrt:winapi_thunks.obj
 0002:000065f8       ?candidate_modules@?1??try_get_GetProcessWindowStation@@YAP6GPAUHWINSTA__@@XZXZ@4QBW4module_id@?A0x352e5c4b@@B 100415f8     libucrt:winapi_thunks.obj
 0002:00006618       ?candidate_modules@?1??try_get_GetUserDefaultLocaleName@@YAP6GHPA_WH@ZXZ@4QBW4module_id@?A0x352e5c4b@@B 10041618     libucrt:winapi_thunks.obj
 0002:0000663c       ?candidate_modules@?1??try_get_GetUserObjectInformationW@@YAP6GHPAXH0KPAK@ZXZ@4QBW4module_id@?A0x352e5c4b@@B 1004163c     libucrt:winapi_thunks.obj
 0002:00006660       ?candidate_modules@?1??try_get_InitializeCriticalSectionEx@@YAP6GHPAU_RTL_CRITICAL_SECTION@@KK@ZXZ@4QBW4module_id@?A0x352e5c4b@@B 10041660     libucrt:winapi_thunks.obj
 0002:00006668       ?candidate_modules@?1??try_get_IsValidLocaleName@@YAP6GHPB_W@ZXZ@4QBW4module_id@?A0x352e5c4b@@B 10041668     libucrt:winapi_thunks.obj
 0002:00006684       ?candidate_modules@?1??try_get_LCMapStringEx@@YAP6GHPB_WK0HPA_WHPAU_nlsversioninfo@@PAXJ@ZXZ@4QBW4module_id@?A0x352e5c4b@@B 10041684     libucrt:winapi_thunks.obj
 0002:0000668c       ?candidate_modules@?1??try_get_LCIDToLocaleName@@YAP6GHKPA_WHK@ZXZ@4QBW4module_id@?A0x352e5c4b@@B 1004168c     libucrt:winapi_thunks.obj
 0002:000066a8       ?candidate_modules@?1??try_get_LocaleNameToLCID@@YAP6GKPB_WK@ZXZ@4QBW4module_id@?A0x352e5c4b@@B 100416a8     libucrt:winapi_thunks.obj
 0002:000066c4       ?candidate_modules@?1??try_get_MessageBoxA@@YAP6GHPAUHWND__@@PBD1I@ZXZ@4QBW4module_id@?A0x352e5c4b@@B 100416c4     libucrt:winapi_thunks.obj
 0002:000066d8       ?candidate_modules@?1??try_get_MessageBoxW@@YAP6GHPAUHWND__@@PB_W1I@ZXZ@4QBW4module_id@?A0x352e5c4b@@B 100416d8     libucrt:winapi_thunks.obj
 0002:000066f0       Shifter                    100416f0     libucrt:pow_pentium4.obj
 0002:00006700       SIGMASK                    10041700     libucrt:pow_pentium4.obj
 0002:00006710       ONEMASK                    10041710     libucrt:pow_pentium4.obj
 0002:00006720       ABSVALMASK                 10041720     libucrt:pow_pentium4.obj
 0002:00006730       cev                        10041730     libucrt:pow_pentium4.obj
 0002:00006758       HALFSIG                    10041758     libucrt:pow_pentium4.obj
 0002:00006760       LHN                        10041760     libucrt:pow_pentium4.obj
 0002:00006768       sNaN                       10041768     libucrt:pow_pentium4.obj
 0002:00006770       INF                        10041770     libucrt:pow_pentium4.obj
 0002:00006778       NEG_INF                    10041778     libucrt:pow_pentium4.obj
 0002:00006780       NEG_ZERO                   10041780     libucrt:pow_pentium4.obj
 0002:00006788       NEG_BIG                    10041788     libucrt:pow_pentium4.obj
 0002:00006790       POS_BIG                    10041790     libucrt:pow_pentium4.obj
 0002:00006798       EMIN                       10041798     libucrt:pow_pentium4.obj
 0002:000067a0       QIND                       100417a0     libucrt:pow_pentium4.obj
 0002:000067ce       _log2max                   100417ce     libucrt:87tran.obj
 0002:000067d8       _smallarg                  100417d8     libucrt:87tran.obj
 0002:000067e2       _half                      100417e2     libucrt:87tran.obj
 0002:0000682e       One                        1004182e     libucrt:87disp.obj
 0002:00006836       Three                      10041836     libucrt:87disp.obj
 0002:0000683e       XAMtoTagTab                1004183e     libucrt:87disp.obj
 0002:00006850       One                        10041850     libucrt:common.obj
 0002:00006864       DblMax                     10041864     libucrt:common.obj
 0002:0000686c       DblMin                     1004186c     libucrt:common.obj
 0002:00006874       IeeeAdjO                   10041874     libucrt:common.obj
 0002:0000687c       IeeeAdjU                   1004187c     libucrt:common.obj
 0002:00006884       _infinity                  10041884     libucrt:common.obj
 0002:0000688c       _zero                      1004188c     libucrt:common.obj
 0002:00006894       __mb_locale_names          10041894     libucrt:mbctype.obj
 0002:00007680       _LcidToLocaleNameTable     10042680     libucrt:lcidtoname_downlevel.obj
 0002:00007da0       _LocaleNameToIndexTable    10042da0     libucrt:lcidtoname_downlevel.obj
 0002:0000bd40       LOG_name                   10046d40     libucrt:log10.obj
 0002:0000bd50       _One                       10046d50     libucrt:ceil_pentium4.obj
 0002:0000bd60       _Bns                       10046d60     libucrt:ceil_pentium4.obj
 0002:0000bd70       _Zero                      10046d70     libucrt:ceil_pentium4.obj
 0002:0000bd80       _S                         10046d80     libucrt:ceil_pentium4.obj
 0002:0000bd90       _NegZero                   10046d90     libucrt:ceil_pentium4.obj
 0002:0000bdb0       emask                      10046db0     libucrt:log10_pentium4.obj
 0002:0000bdc0       CC                         10046dc0     libucrt:log10_pentium4.obj
 0002:0000bdd0       Magic                      10046dd0     libucrt:log10_pentium4.obj
 0002:0000bde0       hi_mask                    10046de0     libucrt:log10_pentium4.obj
 0002:0000bdf0       LOG10_2                    10046df0     libucrt:log10_pentium4.obj
 0002:0000be00       place_L                    10046e00     libucrt:log10_pentium4.obj
 0002:0000be20       One                        10046e20     libucrt:log10_pentium4.obj
 0002:0000be30       Zero                       10046e30     libucrt:log10_pentium4.obj
 0002:0000be40       Two52                      10046e40     libucrt:log10_pentium4.obj
 0002:0000be50       Infs                       10046e50     libucrt:log10_pentium4.obj
 0002:0000be60       NaN                        10046e60     libucrt:log10_pentium4.obj
 0002:0000be70       coeff                      10046e70     libucrt:log10_pentium4.obj
 0002:0000cb68       ?piecewise_construct@std@@3Upiecewise_construct_t@1@B 10047b68     pandapool.obj
 0002:0000d190       emask                      10048190     libucrt:log_sse2_precise.obj
 0002:0000d1a0       Magic                      100481a0     libucrt:log_sse2_precise.obj
 0002:0000d1b0       hi_mask                    100481b0     libucrt:log_sse2_precise.obj
 0002:0000d1c0       LOG_2                      100481c0     libucrt:log_sse2_precise.obj
 0002:0000d1d0       place_L                    100481d0     libucrt:log_sse2_precise.obj
 0002:0000d1f0       One                        100481f0     libucrt:log_sse2_precise.obj
 0002:0000d200       Zero                       10048200     libucrt:log_sse2_precise.obj
 0002:0000d210       Two52                      10048210     libucrt:log_sse2_precise.obj
 0002:0000d220       Infs                       10048220     libucrt:log_sse2_precise.obj
 0002:0000d230       NaN                        10048230     libucrt:log_sse2_precise.obj
 0002:0000d240       coeff                      10048240     libucrt:log_sse2_precise.obj
 0002:0000d270       Shifter                    10048270     libucrt:pow_sse2_precise.obj
 0002:0000d280       SIGMASK                    10048280     libucrt:pow_sse2_precise.obj
 0002:0000d290       ONEMASK                    10048290     libucrt:pow_sse2_precise.obj
 0002:0000d2a0       ABSVALMASK                 100482a0     libucrt:pow_sse2_precise.obj
 0002:0000d2b0       cev                        100482b0     libucrt:pow_sse2_precise.obj
 0002:0000d2d8       HALFSIG                    100482d8     libucrt:pow_sse2_precise.obj
 0002:0000d2e0       LHN                        100482e0     libucrt:pow_sse2_precise.obj
 0002:0000d2e8       sNaN                       100482e8     libucrt:pow_sse2_precise.obj
 0002:0000d2f0       INF                        100482f0     libucrt:pow_sse2_precise.obj
 0002:0000d2f8       NEG_INF                    100482f8     libucrt:pow_sse2_precise.obj
 0002:0000d300       NEG_ZERO                   10048300     libucrt:pow_sse2_precise.obj
 0002:0000d308       NEG_BIG                    10048308     libucrt:pow_sse2_precise.obj
 0002:0000d310       POS_BIG                    10048310     libucrt:pow_sse2_precise.obj
 0002:0000d318       EMIN                       10048318     libucrt:pow_sse2_precise.obj
 0002:0000d320       QIND                       10048320     libucrt:pow_sse2_precise.obj
 0002:0000d330       LOG_name                   10048330     libucrt:log.obj
 0002:0000db60       _NAME_                     10048b60     libucrt:sqrt.obj
 0002:0000db70       emask                      10048b70     libucrt:log_pentium4.obj
 0002:0000db80       Magic                      10048b80     libucrt:log_pentium4.obj
 0002:0000db90       hi_mask                    10048b90     libucrt:log_pentium4.obj
 0002:0000dba0       LOG_2                      10048ba0     libucrt:log_pentium4.obj
 0002:0000dbb0       place_L                    10048bb0     libucrt:log_pentium4.obj
 0002:0000dbd0       One                        10048bd0     libucrt:log_pentium4.obj
 0002:0000dbe0       Zero                       10048be0     libucrt:log_pentium4.obj
 0002:0000dbf0       Two52                      10048bf0     libucrt:log_pentium4.obj
 0002:0000dc00       Infs                       10048c00     libucrt:log_pentium4.obj
 0002:0000dc10       NaN                        10048c10     libucrt:log_pentium4.obj
 0002:0000dc20       coeff                      10048c20     libucrt:log_pentium4.obj
 0002:0000ed30       __ehfuncinfo$?NODE_SET_METHOD@node@@YAXV?$Local@VObject@v8@@@v8@@PBDP6AXABV?$FunctionCallbackInfo@VValue@v8@@@3@@Z@Z 10049d30     addon.obj
 0002:0000ed54       __unwindtable$?NODE_SET_METHOD@node@@YAXV?$Local@VObject@v8@@@v8@@PBDP6AXABV?$FunctionCallbackInfo@VValue@v8@@@3@@Z@Z 10049d54     addon.obj
 0002:0000ed60       __ehfuncinfo$??0_Locinfo@std@@QAE@PBD@Z 10049d60     pandamat.obj
 0002:0000ed88       __unwindtable$??0_Locinfo@std@@QAE@PBD@Z 10049d88     pandamat.obj
 0002:0000edc8       __ehfuncinfo$?_Getcat@?$ctype@D@std@@SAIPAPBVfacet@locale@2@PBV42@@Z 10049dc8     pandamat.obj
 0002:0000edec       __unwindtable$?_Getcat@?$ctype@D@std@@SAIPAPBVfacet@locale@2@PBV42@@Z 10049dec     pandamat.obj
 0002:0000edf4       __ehfuncinfo$?_Makestr@_System_error@std@@CA?AV?$basic_string@DU?$char_traits@D@std@@V?$allocator@D@2@@2@Verror_code@2@V32@@Z 10049df4     pandamat.obj
 0002:0000ee18       __unwindtable$?_Makestr@_System_error@std@@CA?AV?$basic_string@DU?$char_traits@D@std@@V?$allocator@D@2@@2@Verror_code@2@V32@@Z 10049e18     pandamat.obj
 0002:0000ee28       __ehfuncinfo$??0system_error@std@@QAE@Verror_code@1@PBD@Z 10049e28     pandamat.obj
 0002:0000ee4c       __unwindtable$??0system_error@std@@QAE@Verror_code@1@PBD@Z 10049e4c     pandamat.obj
 0002:0000ee54       __ehfuncinfo$?clear@ios_base@std@@QAEXH_N@Z 10049e54     pandamat.obj
 0002:0000ee78       __unwindtable$?clear@ios_base@std@@QAEXH_N@Z 10049e78     pandamat.obj
 0002:0000ee90       __ehfuncinfo$?_Init@ios_base@std@@IAEXXZ 10049e90     pandamat.obj
 0002:0000eeb4       __unwindtable$?_Init@ios_base@std@@IAEXXZ 10049eb4     pandamat.obj
 0002:0000eebc       __ehfuncinfo$?NODE_SET_PROTOTYPE_METHOD@node@@YAXV?$Local@VFunctionTemplate@v8@@@v8@@PBDP6AXABV?$FunctionCallbackInfo@VValue@v8@@@3@@Z@Z 10049ebc     pandamat.obj
 0002:0000eee0       __unwindtable$?NODE_SET_PROTOTYPE_METHOD@node@@YAXV?$Local@VFunctionTemplate@v8@@@v8@@PBDP6AXABV?$FunctionCallbackInfo@VValue@v8@@@3@@Z@Z 10049ee0     pandamat.obj
 0002:0000eee8       __ehfuncinfo$??1?$pair@V?$basic_string@DU?$char_traits@D@std@@V?$allocator@D@2@@std@@V?$Mat@N@arma@@@std@@QAE@XZ 10049ee8     pandapool.obj
 0002:0000eee8       __ehfuncinfo$??1?$Col@N@arma@@QAE@XZ 10049ee8     normalize.obj
 0002:0000eee8       __ehfuncinfo$??1?$quasi_unwrap@V?$eGlue@V?$subview_row@N@arma@@V12@Veglue_minus@2@@arma@@@arma@@QAE@XZ 10049ee8     sqrtdist.obj
 0002:0000eee8       __ehfuncinfo$??1?$Proxy@V?$Op@V?$Mat@N@arma@@Vop_repmat@2@@arma@@@arma@@QAE@XZ 10049ee8     normalize.obj
 0002:0000eee8       __ehfuncinfo$??1?$Row@N@arma@@QAE@XZ 10049ee8     normalize.obj
 0002:0000eee8       __ehfuncinfo$??1?$eGlue@V?$Mat@N@arma@@V?$Op@V?$Mat@N@arma@@Vop_repmat@2@@2@Veglue_minus@2@@arma@@QAE@XZ 10049ee8     normalize.obj
 0002:0000eee8       __ehfuncinfo$??1?$quasi_unwrap@V?$subview_row@N@arma@@@arma@@QAE@XZ 10049ee8     normalize.obj
 0002:0000eee8       __ehfuncinfo$??1?$pair@IV?$Mat@N@arma@@@std@@QAE@XZ 10049ee8     pandapool.obj
 0002:0000eee8       __ehfuncinfo$??1?$pair@$$CBV?$basic_string@DU?$char_traits@D@std@@V?$allocator@D@2@@std@@V?$Mat@N@arma@@@std@@QAE@XZ 10049ee8     pandamat.obj
 0002:0000eee8       __ehfuncinfo$??1?$quasi_unwrap@V?$subview_col@N@arma@@@arma@@QAE@XZ 10049ee8     normalize.obj
 0002:0000eee8       __ehfuncinfo$??1ObjectWrap@node@@UAE@XZ 10049ee8     pandamat.obj
 0002:0000ef0c       __unwindtable$??1ObjectWrap@node@@UAE@XZ 10049f0c     pandamat.obj
 0002:0000ef0c       __unwindtable$??1?$quasi_unwrap@V?$subview_col@N@arma@@@arma@@QAE@XZ 10049f0c     normalize.obj
 0002:0000ef0c       __unwindtable$??1?$pair@$$CBV?$basic_string@DU?$char_traits@D@std@@V?$allocator@D@2@@std@@V?$Mat@N@arma@@@std@@QAE@XZ 10049f0c     pandamat.obj
 0002:0000ef0c       __unwindtable$??1?$pair@V?$basic_string@DU?$char_traits@D@std@@V?$allocator@D@2@@std@@V?$Mat@N@arma@@@std@@QAE@XZ 10049f0c     pandapool.obj
 0002:0000ef0c       __unwindtable$??1?$pair@IV?$Mat@N@arma@@@std@@QAE@XZ 10049f0c     pandapool.obj
 0002:0000ef0c       __unwindtable$??1?$quasi_unwrap@V?$eGlue@V?$subview_row@N@arma@@V12@Veglue_minus@2@@arma@@@arma@@QAE@XZ 10049f0c     sqrtdist.obj
 0002:0000ef0c       __unwindtable$??1?$quasi_unwrap@V?$subview_row@N@arma@@@arma@@QAE@XZ 10049f0c     normalize.obj
 0002:0000ef0c       __unwindtable$??1?$Col@N@arma@@QAE@XZ 10049f0c     normalize.obj
 0002:0000ef0c       __unwindtable$??1?$eGlue@V?$Mat@N@arma@@V?$Op@V?$Mat@N@arma@@Vop_repmat@2@@2@Veglue_minus@2@@arma@@QAE@XZ 10049f0c     normalize.obj
 0002:0000ef0c       __unwindtable$??1?$Proxy@V?$Op@V?$Mat@N@arma@@Vop_repmat@2@@arma@@@arma@@QAE@XZ 10049f0c     normalize.obj
 0002:0000ef0c       __unwindtable$??1?$Row@N@arma@@QAE@XZ 10049f0c     normalize.obj
 0002:0000ef14       __ehfuncinfo$??1OperationData@@QAE@XZ 10049f14     pandamat.obj
 0002:0000ef38       __unwindtable$??1OperationData@@QAE@XZ 10049f38     pandamat.obj
 0002:0000ef40       __ehfuncinfo$??__F?constructor@PandaMat@@2V?$Persistent@VFunction@v8@@V?$NonCopyablePersistentTraits@VFunction@v8@@@2@@v8@@A@@YAXXZ 10049f40     pandamat.obj
 0002:0000ef64       __unwindtable$??__F?constructor@PandaMat@@2V?$Persistent@VFunction@v8@@V?$NonCopyablePersistentTraits@VFunction@v8@@@2@@v8@@A@@YAXXZ 10049f64     pandamat.obj
 0002:0000ef6c       __ehfuncinfo$?setState@PandaMat@@IAEXIW4exceptions@@V?$basic_string@DU?$char_traits@D@std@@V?$allocator@D@2@@std@@@Z 10049f6c     pandamat.obj
 0002:0000ef90       __unwindtable$?setState@PandaMat@@IAEXIW4exceptions@@V?$basic_string@DU?$char_traits@D@std@@V?$allocator@D@2@@std@@@Z 10049f90     pandamat.obj
 0002:0000ef98       __ehfuncinfo$?send@PandaMat@@IAEXIPAVOperation@@PBDI@Z 10049f98     pandamat.obj
 0002:0000efbc       __unwindtable$?send@PandaMat@@IAEXIPAVOperation@@PBDI@Z 10049fbc     pandamat.obj
 0002:0000efc4       __ehfuncinfo$?getOperation@PandaMat@@IAEPAVOperation@@IPBD@Z 10049fc4     pandamat.obj
 0002:0000efe8       __unwindtable$?getOperation@PandaMat@@IAEPAVOperation@@IPBD@Z 10049fe8     pandamat.obj
 0002:0000eff8       __ehfuncinfo$?packResult@PandaMat@@IAE?AV?$Local@VObject@v8@@@v8@@I@Z 10049ff8     pandamat.obj
 0002:0000f01c       __unwindtable$?packResult@PandaMat@@IAE?AV?$Local@VObject@v8@@@v8@@I@Z 1004a01c     pandamat.obj
 0002:0000f028       __ehfuncinfo$?Operate@PandaMat@@CAXABV?$FunctionCallbackInfo@VValue@v8@@@v8@@@Z 1004a028     pandamat.obj
 0002:0000f04c       __tryblocktable$?Operate@PandaMat@@CAXABV?$FunctionCallbackInfo@VValue@v8@@@v8@@@Z 1004a04c     pandamat.obj
 0002:0000f060       __unwindtable$?Operate@PandaMat@@CAXABV?$FunctionCallbackInfo@VValue@v8@@@v8@@@Z 1004a060     pandamat.obj
 0002:0000f0b8       __catchsym$?Operate@PandaMat@@CAXABV?$FunctionCallbackInfo@VValue@v8@@@v8@@@Z$15 1004a0b8     pandamat.obj
 0002:0000f0c8       __ehfuncinfo$?saveData@PandaMat@@CAXABV?$FunctionCallbackInfo@VValue@v8@@@v8@@@Z 1004a0c8     pandamat.obj
 0002:0000f0ec       __unwindtable$?saveData@PandaMat@@CAXABV?$FunctionCallbackInfo@VValue@v8@@@v8@@@Z 1004a0ec     pandamat.obj
 0002:0000f114       __tryblocktable$?saveData@PandaMat@@CAXABV?$FunctionCallbackInfo@VValue@v8@@@v8@@@Z 1004a114     pandamat.obj
 0002:0000f128       __catchsym$?saveData@PandaMat@@CAXABV?$FunctionCallbackInfo@VValue@v8@@@v8@@@Z$7 1004a128     pandamat.obj
 0002:0000f138       __ehfuncinfo$?removeData@PandaMat@@CAXABV?$FunctionCallbackInfo@VValue@v8@@@v8@@@Z 1004a138     pandamat.obj
 0002:0000f15c       __unwindtable$?removeData@PandaMat@@CAXABV?$FunctionCallbackInfo@VValue@v8@@@v8@@@Z 1004a15c     pandamat.obj
 0002:0000f174       __tryblocktable$?removeData@PandaMat@@CAXABV?$FunctionCallbackInfo@VValue@v8@@@v8@@@Z 1004a174     pandamat.obj
 0002:0000f188       __catchsym$?removeData@PandaMat@@CAXABV?$FunctionCallbackInfo@VValue@v8@@@v8@@@Z$3 1004a188     pandamat.obj
 0002:0000f198       __ehfuncinfo$?getData@PandaMat@@CAXABV?$FunctionCallbackInfo@VValue@v8@@@v8@@@Z 1004a198     pandamat.obj
 0002:0000f1bc       __unwindtable$?getData@PandaMat@@CAXABV?$FunctionCallbackInfo@VValue@v8@@@v8@@@Z 1004a1bc     pandamat.obj
 0002:0000f1e4       __tryblocktable$?getData@PandaMat@@CAXABV?$FunctionCallbackInfo@VValue@v8@@@v8@@@Z 1004a1e4     pandamat.obj
 0002:0000f1f8       __catchsym$?getData@PandaMat@@CAXABV?$FunctionCallbackInfo@VValue@v8@@@v8@@@Z$7 1004a1f8     pandamat.obj
 0002:0000f208       __ehfuncinfo$?New@PandaMat@@CAXABV?$FunctionCallbackInfo@VValue@v8@@@v8@@@Z 1004a208     pandamat.obj
 0002:0000f22c       __unwindtable$?New@PandaMat@@CAXABV?$FunctionCallbackInfo@VValue@v8@@@v8@@@Z 1004a22c     pandamat.obj
 0002:0000f244       __ehfuncinfo$?flush@?$basic_ostream@DU?$char_traits@D@std@@@std@@QAEAAV12@XZ 1004a244     pandamat.obj
 0002:0000f268       __unwindtable$?flush@?$basic_ostream@DU?$char_traits@D@std@@@std@@QAEAAV12@XZ 1004a268     pandamat.obj
 0002:0000f270       __ehfuncinfo$?put@?$basic_ostream@DU?$char_traits@D@std@@@std@@QAEAAV12@D@Z 1004a270     pandamat.obj
 0002:0000f294       __unwindtable$?put@?$basic_ostream@DU?$char_traits@D@std@@@std@@QAEAAV12@D@Z 1004a294     pandamat.obj
 0002:0000f2a4       __ehfuncinfo$??6?$basic_ostream@DU?$char_traits@D@std@@@std@@QAEAAV01@I@Z 1004a2a4     pandamat.obj
 0002:0000f2c8       __unwindtable$??6?$basic_ostream@DU?$char_traits@D@std@@@std@@QAEAAV01@I@Z 1004a2c8     pandamat.obj
 0002:0000f2e0       __ehfuncinfo$??0sentry@?$basic_ostream@DU?$char_traits@D@std@@@std@@QAE@AAV12@@Z 1004a2e0     pandamat.obj
 0002:0000f304       __unwindtable$??0sentry@?$basic_ostream@DU?$char_traits@D@std@@@std@@QAE@AAV12@@Z 1004a304     pandamat.obj
 0002:0000f30c       __ehfuncinfo$?do_put@?$num_put@DV?$ostreambuf_iterator@DU?$char_traits@D@std@@@std@@@std@@MBE?AV?$ostreambuf_iterator@DU?$char_traits@D@std@@@2@V32@AAVios_base@2@DN@Z 1004a30c     pandamat.obj
 0002:0000f30c       __ehfuncinfo$?do_put@?$num_put@DV?$ostreambuf_iterator@DU?$char_traits@D@std@@@std@@@std@@MBE?AV?$ostreambuf_iterator@DU?$char_traits@D@std@@@2@V32@AAVios_base@2@DO@Z 1004a30c     pandamat.obj
 0002:0000f330       __unwindtable$?do_put@?$num_put@DV?$ostreambuf_iterator@DU?$char_traits@D@std@@@std@@@std@@MBE?AV?$ostreambuf_iterator@DU?$char_traits@D@std@@@2@V32@AAVios_base@2@DO@Z 1004a330     pandamat.obj
 0002:0000f330       __unwindtable$?do_put@?$num_put@DV?$ostreambuf_iterator@DU?$char_traits@D@std@@@std@@@std@@MBE?AV?$ostreambuf_iterator@DU?$char_traits@D@std@@@2@V32@AAVios_base@2@DN@Z 1004a330     pandamat.obj
 0002:0000f338       __ehfuncinfo$?do_put@?$num_put@DV?$ostreambuf_iterator@DU?$char_traits@D@std@@@std@@@std@@MBE?AV?$ostreambuf_iterator@DU?$char_traits@D@std@@@2@V32@AAVios_base@2@D_N@Z 1004a338     pandamat.obj
 0002:0000f35c       __unwindtable$?do_put@?$num_put@DV?$ostreambuf_iterator@DU?$char_traits@D@std@@@std@@@std@@MBE?AV?$ostreambuf_iterator@DU?$char_traits@D@std@@@2@V32@AAVios_base@2@D_N@Z 1004a35c     pandamat.obj
 0002:0000f36c       __ehfuncinfo$??0?$basic_ostream@DU?$char_traits@D@std@@@std@@QAE@PAV?$basic_streambuf@DU?$char_traits@D@std@@@1@_N@Z 1004a36c     pandamat.obj
 0002:0000f390       __unwindtable$??0?$basic_ostream@DU?$char_traits@D@std@@@std@@QAE@PAV?$basic_streambuf@DU?$char_traits@D@std@@@1@_N@Z 1004a390     pandamat.obj
 0002:0000f398       __ehfuncinfo$?_Iput@?$num_put@DV?$ostreambuf_iterator@DU?$char_traits@D@std@@@std@@@std@@ABA?AV?$ostreambuf_iterator@DU?$char_traits@D@std@@@2@V32@AAVios_base@2@DPADI@Z 1004a398     pandamat.obj
 0002:0000f3bc       __unwindtable$?_Iput@?$num_put@DV?$ostreambuf_iterator@DU?$char_traits@D@std@@@std@@@std@@ABA?AV?$ostreambuf_iterator@DU?$char_traits@D@std@@@2@V32@AAVios_base@2@DPADI@Z 1004a3bc     pandamat.obj
 0002:0000f3dc       __ehfuncinfo$?_Fput@?$num_put@DV?$ostreambuf_iterator@DU?$char_traits@D@std@@@std@@@std@@ABA?AV?$ostreambuf_iterator@DU?$char_traits@D@std@@@2@V32@AAVios_base@2@DPBDI@Z 1004a3dc     pandamat.obj
 0002:0000f400       __unwindtable$?_Fput@?$num_put@DV?$ostreambuf_iterator@DU?$char_traits@D@std@@@std@@@std@@ABA?AV?$ostreambuf_iterator@DU?$char_traits@D@std@@@2@V32@AAVios_base@2@DPBDI@Z 1004a400     pandamat.obj
 0002:0000f420       __ehfuncinfo$??0?$basic_streambuf@DU?$char_traits@D@std@@@std@@IAE@XZ 1004a420     pandamat.obj
 0002:0000f444       __unwindtable$??0?$basic_streambuf@DU?$char_traits@D@std@@@std@@IAE@XZ 1004a444     pandamat.obj
 0002:0000f44c       __ehfuncinfo$?erase@?$_Tree@V?$_Tmap_traits@V?$basic_string@DU?$char_traits@D@std@@V?$allocator@D@2@@std@@V?$Mat@N@arma@@U?$less@V?$basic_string@DU?$char_traits@D@std@@V?$allocator@D@2@@std@@@2@V?$allocator@U?$pair@$$CBV?$basic_string@DU?$char_traits@D@std@@V?$allocator@D@2@@std@@V?$Mat@N@arma@@@std@@@2@$0A@@std@@@std@@QAE?AV?$_Tree_iterator@V?$_Tree_val@U?$_Tree_simple_types@U?$pair@$$CBV?$basic_string@DU?$char_traits@D@std@@V?$allocator@D@2@@std@@V?$Mat@N@arma@@@std@@@std@@@std@@@2@V?$_Tree_const_iterator@V?$_Tree_val@U?$_Tree_simple_types@U?$pair@$$CBV?$basic_string@DU?$char_traits@D@std@@V?$allocator@D@2@@std@@V?$Mat@N@arma@@@std@@@std@@@std@@@2@@Z 1004a44c     pandamat.obj
 0002:0000f44c       __ehfuncinfo$?erase@?$_Tree@V?$_Tmap_traits@IV?$Mat@N@arma@@U?$less@I@std@@V?$allocator@U?$pair@$$CBIV?$Mat@N@arma@@@std@@@4@$0A@@std@@@std@@QAE?AV?$_Tree_iterator@V?$_Tree_val@U?$_Tree_simple_types@U?$pair@$$CBIV?$Mat@N@arma@@@std@@@std@@@std@@@2@V?$_Tree_const_iterator@V?$_Tree_val@U?$_Tree_simple_types@U?$pair@$$CBIV?$Mat@N@arma@@@std@@@std@@@std@@@2@@Z 1004a44c     pandamat.obj
 0002:0000f470       __unwindtable$?erase@?$_Tree@V?$_Tmap_traits@IV?$Mat@N@arma@@U?$less@I@std@@V?$allocator@U?$pair@$$CBIV?$Mat@N@arma@@@std@@@4@$0A@@std@@@std@@QAE?AV?$_Tree_iterator@V?$_Tree_val@U?$_Tree_simple_types@U?$pair@$$CBIV?$Mat@N@arma@@@std@@@std@@@std@@@2@V?$_Tree_const_iterator@V?$_Tree_val@U?$_Tree_simple_types@U?$pair@$$CBIV?$Mat@N@arma@@@std@@@std@@@std@@@2@@Z 1004a470     pandamat.obj
 0002:0000f470       __unwindtable$?erase@?$_Tree@V?$_Tmap_traits@V?$basic_string@DU?$char_traits@D@std@@V?$allocator@D@2@@std@@V?$Mat@N@arma@@U?$less@V?$basic_string@DU?$char_traits@D@std@@V?$allocator@D@2@@std@@@2@V?$allocator@U?$pair@$$CBV?$basic_string@DU?$char_traits@D@std@@V?$allocator@D@2@@std@@V?$Mat@N@arma@@@std@@@2@$0A@@std@@@std@@QAE?AV?$_Tree_iterator@V?$_Tree_val@U?$_Tree_simple_types@U?$pair@$$CBV?$basic_string@DU?$char_traits@D@std@@V?$allocator@D@2@@std@@V?$Mat@N@arma@@@std@@@std@@@std@@@2@V?$_Tree_const_iterator@V?$_Tree_val@U?$_Tree_simple_types@U?$pair@$$CBV?$basic_string@DU?$char_traits@D@std@@V?$allocator@D@2@@std@@V?$Mat@N@arma@@@std@@@std@@@std@@@2@@Z 1004a470     pandamat.obj
 0002:0000f478       __ehfuncinfo$?widen@?$basic_ios@DU?$char_traits@D@std@@@std@@QBEDD@Z 1004a478     pandamat.obj
 0002:0000f49c       __unwindtable$?widen@?$basic_ios@DU?$char_traits@D@std@@@std@@QBEDD@Z 1004a49c     pandamat.obj
 0002:0000f4a4       __ehfuncinfo$??$_Insert_at@AAU?$pair@$$CBIV?$Mat@N@arma@@@std@@PAU?$_Tree_node@U?$pair@$$CBIV?$Mat@N@arma@@@std@@PAX@2@@?$_Tree@V?$_Tmap_traits@IV?$Mat@N@arma@@U?$less@I@std@@V?$allocator@U?$pair@$$CBIV?$Mat@N@arma@@@std@@@4@$0A@@std@@@std@@IAE?AV?$_Tree_iterator@V?$_Tree_val@U?$_Tree_simple_types@U?$pair@$$CBIV?$Mat@N@arma@@@std@@@std@@@std@@@1@_NPAU?$_Tree_node@U?$pair@$$CBIV?$Mat@N@arma@@@std@@PAX@1@AAU?$pair@$$CBIV?$Mat@N@arma@@@1@1@Z 1004a4a4     pandapool.obj
 0002:0000f4a4       __ehfuncinfo$?_Erase@?$_Tree@V?$_Tmap_traits@IV?$Mat@N@arma@@U?$less@I@std@@V?$allocator@U?$pair@$$CBIV?$Mat@N@arma@@@std@@@4@$0A@@std@@@std@@IAEXPAU?$_Tree_node@U?$pair@$$CBIV?$Mat@N@arma@@@std@@PAX@2@@Z 1004a4a4     pandamat.obj
 0002:0000f4c8       __unwindtable$?_Erase@?$_Tree@V?$_Tmap_traits@IV?$Mat@N@arma@@U?$less@I@std@@V?$allocator@U?$pair@$$CBIV?$Mat@N@arma@@@std@@@4@$0A@@std@@@std@@IAEXPAU?$_Tree_node@U?$pair@$$CBIV?$Mat@N@arma@@@std@@PAX@2@@Z 1004a4c8     pandamat.obj
 0002:0000f4c8       __unwindtable$??$_Insert_at@AAU?$pair@$$CBIV?$Mat@N@arma@@@std@@PAU?$_Tree_node@U?$pair@$$CBIV?$Mat@N@arma@@@std@@PAX@2@@?$_Tree@V?$_Tmap_traits@IV?$Mat@N@arma@@U?$less@I@std@@V?$allocator@U?$pair@$$CBIV?$Mat@N@arma@@@std@@@4@$0A@@std@@@std@@IAE?AV?$_Tree_iterator@V?$_Tree_val@U?$_Tree_simple_types@U?$pair@$$CBIV?$Mat@N@arma@@@std@@@std@@@std@@@1@_NPAU?$_Tree_node@U?$pair@$$CBIV?$Mat@N@arma@@@std@@PAX@1@AAU?$pair@$$CBIV?$Mat@N@arma@@@1@1@Z 1004a4c8     pandapool.obj
 0002:0000f4d0       __ehfuncinfo$?_Erase@?$_Tree@V?$_Tmap_traits@V?$basic_string@DU?$char_traits@D@std@@V?$allocator@D@2@@std@@V?$Mat@N@arma@@U?$less@V?$basic_string@DU?$char_traits@D@std@@V?$allocator@D@2@@std@@@2@V?$allocator@U?$pair@$$CBV?$basic_string@DU?$char_traits@D@std@@V?$allocator@D@2@@std@@V?$Mat@N@arma@@@std@@@2@$0A@@std@@@std@@IAEXPAU?$_Tree_node@U?$pair@$$CBV?$basic_string@DU?$char_traits@D@std@@V?$allocator@D@2@@std@@V?$Mat@N@arma@@@std@@PAX@2@@Z 1004a4d0     pandamat.obj
 0002:0000f4f4       __unwindtable$?_Erase@?$_Tree@V?$_Tmap_traits@V?$basic_string@DU?$char_traits@D@std@@V?$allocator@D@2@@std@@V?$Mat@N@arma@@U?$less@V?$basic_string@DU?$char_traits@D@std@@V?$allocator@D@2@@std@@@2@V?$allocator@U?$pair@$$CBV?$basic_string@DU?$char_traits@D@std@@V?$allocator@D@2@@std@@V?$Mat@N@arma@@@std@@@2@$0A@@std@@@std@@IAEXPAU?$_Tree_node@U?$pair@$$CBV?$basic_string@DU?$char_traits@D@std@@V?$allocator@D@2@@std@@V?$Mat@N@arma@@@std@@PAX@2@@Z 1004a4f4     pandamat.obj
 0002:0000f4fc       __ehfuncinfo$??$use_facet@V?$ctype@D@std@@@std@@YAABV?$ctype@D@0@ABVlocale@0@@Z 1004a4fc     pandamat.obj
 0002:0000f520       __unwindtable$??$use_facet@V?$ctype@D@std@@@std@@YAABV?$ctype@D@0@ABVlocale@0@@Z 1004a520     pandamat.obj
 0002:0000f528       __ehfuncinfo$??1?$eOp@V?$subview_col@N@arma@@Veop_scalar_div_post@2@@arma@@QAE@XZ 1004a528     normalize.obj
 0002:0000f528       __ehfuncinfo$??1?$subview@N@arma@@QAE@XZ 1004a528     normalize.obj
 0002:0000f528       __ehfuncinfo$??1?$Op@V?$Mat@N@arma@@Vop_normalise_mat@2@@arma@@QAE@XZ 1004a528     normalize.obj
 0002:0000f528       __ehfuncinfo$??1?$Op@V?$Mat@N@arma@@Vop_repmat@2@@arma@@QAE@XZ 1004a528     normalize.obj
 0002:0000f528       __ehfuncinfo$??1?$Op@V?$Mat@N@arma@@Vop_mean@2@@arma@@QAE@XZ 1004a528     normalize.obj
 0002:0000f528       __ehfuncinfo$??1?$Op@V?$Mat@N@arma@@Vop_htrans@2@@arma@@QAE@XZ 1004a528     transpose.obj
 0002:0000f528       __ehfuncinfo$??1?$Glue@V?$Mat@N@arma@@V12@Vglue_times@2@@arma@@QAE@XZ 1004a528     dot.obj
 0002:0000f528       __ehfuncinfo$??1?$podarray@N@arma@@QAE@XZ 1004a528     dot.obj
 0002:0000f528       __ehfuncinfo$??1_Locimp@locale@std@@MAE@XZ 1004a528     libcpmt:locale0.obj
 0002:0000f528       __ehfuncinfo$??1?$eOp@V?$subview_row@N@arma@@Veop_scalar_div_post@2@@arma@@QAE@XZ 1004a528     normalize.obj
 0002:0000f528       __ehfuncinfo$??1_Fac_node@std@@QAE@XZ 1004a528     libcpmt:locale0.obj
 0002:0000f528       __ehfuncinfo$??1?$eGlue@V?$Mat@N@arma@@V12@Veglue_plus@2@@arma@@QAE@XZ 1004a528     add.obj
 0002:0000f528       __ehfuncinfo$??1?$basic_filebuf@DU?$char_traits@D@std@@@std@@UAE@XZ 1004a528     libcpmt:cout.obj
 0002:0000f528       __ehfuncinfo$??1?$Gen@V?$Mat@N@arma@@Vgen_zeros@2@@arma@@QAE@XZ 1004a528     sqrtdist.obj
 0002:0000f528       __ehfuncinfo$??1?$Mat@N@arma@@QAE@XZ 1004a528     pandamat.obj
 0002:0000f528       __ehfuncinfo$??1_Init_atexit@@QAE@XZ 1004a528     libcpmt:iosptrs.obj
 0002:0000f528       __ehfuncinfo$??1?$eGlue@V?$subview_row@N@arma@@V12@Veglue_minus@2@@arma@@QAE@XZ 1004a528     sqrtdist.obj
 0002:0000f54c       __ehfuncinfo$??$?6U?$char_traits@D@std@@@std@@YAAAV?$basic_ostream@DU?$char_traits@D@std@@@0@AAV10@PBD@Z 1004a54c     pandamat.obj
 0002:0000f54c       __ehfuncinfo$??$?6DU?$char_traits@D@std@@V?$allocator@D@1@@std@@YAAAV?$basic_ostream@DU?$char_traits@D@std@@@0@AAV10@ABV?$basic_string@DU?$char_traits@D@std@@V?$allocator@D@2@@0@@Z 1004a54c     pandapool.obj
 0002:0000f570       __unwindtable$??$?6U?$char_traits@D@std@@@std@@YAAAV?$basic_ostream@DU?$char_traits@D@std@@@0@AAV10@PBD@Z 1004a570     pandamat.obj
 0002:0000f570       __unwindtable$??$?6DU?$char_traits@D@std@@V?$allocator@D@1@@std@@YAAAV?$basic_ostream@DU?$char_traits@D@std@@@0@AAV10@ABV?$basic_string@DU?$char_traits@D@std@@V?$allocator@D@2@@0@@Z 1004a570     pandapool.obj
 0002:0000f580       __ehfuncinfo$??$?6U?$char_traits@D@std@@@std@@YAAAV?$basic_ostream@DU?$char_traits@D@std@@@0@AAV10@D@Z 1004a580     pandamat.obj
 0002:0000f5a4       __unwindtable$??$?6U?$char_traits@D@std@@@std@@YAAAV?$basic_ostream@DU?$char_traits@D@std@@@0@AAV10@D@Z 1004a5a4     pandamat.obj
 0002:0000f5b4       __ehfuncinfo$??$num2str@H@@YA?AV?$basic_string@DU?$char_traits@D@std@@V?$allocator@D@2@@std@@H@Z 1004a5b4     pandapool.obj
 0002:0000f5b4       __ehfuncinfo$??$num2str@I@@YA?AV?$basic_string@DU?$char_traits@D@std@@V?$allocator@D@2@@std@@I@Z 1004a5b4     pandamat.obj
 0002:0000f5d8       __unwindtable$??$num2str@I@@YA?AV?$basic_string@DU?$char_traits@D@std@@V?$allocator@D@2@@std@@I@Z 1004a5d8     pandamat.obj
 0002:0000f5d8       __unwindtable$??$num2str@H@@YA?AV?$basic_string@DU?$char_traits@D@std@@V?$allocator@D@2@@std@@H@Z 1004a5d8     pandapool.obj
 0002:0000f5e0       __ehfuncinfo$??$use_facet@V?$num_put@DV?$ostreambuf_iterator@DU?$char_traits@D@std@@@std@@@std@@@std@@YAABV?$num_put@DV?$ostreambuf_iterator@DU?$char_traits@D@std@@@std@@@0@ABVlocale@0@@Z 1004a5e0     pandamat.obj
 0002:0000f5e0       __ehfuncinfo$??$use_facet@V?$numpunct@D@std@@@std@@YAABV?$numpunct@D@0@ABVlocale@0@@Z 1004a5e0     pandamat.obj
 0002:0000f604       __unwindtable$??$use_facet@V?$num_put@DV?$ostreambuf_iterator@DU?$char_traits@D@std@@@std@@@std@@@std@@YAABV?$num_put@DV?$ostreambuf_iterator@DU?$char_traits@D@std@@@std@@@0@ABVlocale@0@@Z 1004a604     pandamat.obj
 0002:0000f604       __unwindtable$??$use_facet@V?$numpunct@D@std@@@std@@YAABV?$numpunct@D@0@ABVlocale@0@@Z 1004a604     pandamat.obj
 0002:0000f60c       __ehfuncinfo$?_Getcat@?$numpunct@D@std@@SAIPAPBVfacet@locale@2@PBV42@@Z 1004a60c     pandamat.obj
 0002:0000f630       __unwindtable$?_Getcat@?$numpunct@D@std@@SAIPAPBVfacet@locale@2@PBV42@@Z 1004a630     pandamat.obj
 0002:0000f650       __ehfuncinfo$?_Getcat@?$num_put@DV?$ostreambuf_iterator@DU?$char_traits@D@std@@@std@@@std@@SAIPAPBVfacet@locale@2@PBV42@@Z 1004a650     pandamat.obj
 0002:0000f674       __unwindtable$?_Getcat@?$num_put@DV?$ostreambuf_iterator@DU?$char_traits@D@std@@@std@@@std@@SAIPAPBVfacet@locale@2@PBV42@@Z 1004a674     pandamat.obj
 0002:0000f67c       __ehfuncinfo$??0?$basic_ostringstream@DU?$char_traits@D@std@@V?$allocator@D@2@@std@@QAE@H@Z 1004a67c     pandamat.obj
 0002:0000f6a0       __unwindtable$??0?$basic_ostringstream@DU?$char_traits@D@std@@V?$allocator@D@2@@std@@QAE@H@Z 1004a6a0     pandamat.obj
 0002:0000f6c0       __ehfuncinfo$??0PandaPool@@QAE@XZ 1004a6c0     pandapool.obj
 0002:0000f6e8       __unwindtable$??0PandaPool@@QAE@XZ 1004a6e8     pandapool.obj
 0002:0000f728       __ehfuncinfo$?enter@PandaPool@@QAEIPAVIsolate@v8@@@Z 1004a728     pandapool.obj
 0002:0000f74c       __unwindtable$?enter@PandaPool@@QAEIPAVIsolate@v8@@@Z 1004a74c     pandapool.obj
 0002:0000f754       __ehfuncinfo$?setState@PandaPool@@QAEXIW4exceptions@@V?$basic_string@DU?$char_traits@D@std@@V?$allocator@D@2@@std@@@Z 1004a754     pandapool.obj
 0002:0000f778       __unwindtable$?setState@PandaPool@@QAEXIW4exceptions@@V?$basic_string@DU?$char_traits@D@std@@V?$allocator@D@2@@std@@@Z 1004a778     pandapool.obj
 0002:0000f780       __ehfuncinfo$?packMessage@PandaPool@@QAE?AV?$basic_string@DU?$char_traits@D@std@@V?$allocator@D@2@@std@@I@Z 1004a780     pandapool.obj
 0002:0000f7a4       __unwindtable$?packMessage@PandaPool@@QAE?AV?$basic_string@DU?$char_traits@D@std@@V?$allocator@D@2@@std@@I@Z 1004a7a4     pandapool.obj
 0002:0000f7b0       __ehfuncinfo$?save@PandaPool@@QAE?AW4exceptions@@IV?$Local@VValue@v8@@@v8@@PBD@Z 1004a7b0     pandapool.obj
 0002:0000f7d8       __unwindtable$?save@PandaPool@@QAE?AW4exceptions@@IV?$Local@VValue@v8@@@v8@@PBD@Z 1004a7d8     pandapool.obj
 0002:0000f848       __ehfuncinfo$?saveResult@PandaPool@@QAE?AW4exceptions@@IPBD0@Z 1004a848     pandapool.obj
 0002:0000f870       __unwindtable$?saveResult@PandaPool@@QAE?AW4exceptions@@IPBD0@Z 1004a870     pandapool.obj
 0002:0000f8e8       __ehfuncinfo$?saveResult@PandaPool@@QAE?AW4exceptions@@IPBD@Z 1004a8e8     pandapool.obj
 0002:0000f910       __unwindtable$?saveResult@PandaPool@@QAE?AW4exceptions@@IPBD@Z 1004a910     pandapool.obj
 0002:0000f968       __ehfuncinfo$?check@PandaPool@@QAE?AW4exceptions@@IPBD@Z 1004a968     pandapool.obj
 0002:0000f98c       __unwindtable$?check@PandaPool@@QAE?AW4exceptions@@IPBD@Z 1004a98c     pandapool.obj
 0002:0000f9a8       __ehfuncinfo$?get@PandaPool@@QAE?AW4exceptions@@IPBD@Z 1004a9a8     pandapool.obj
 0002:0000f9d0       __unwindtable$?get@PandaPool@@QAE?AW4exceptions@@IPBD@Z 1004a9d0     pandapool.obj
 0002:0000fa18       __ehfuncinfo$?remove@PandaPool@@QAE?AW4exceptions@@IPBD@Z 1004aa18     pandapool.obj
 0002:0000fa3c       __unwindtable$?remove@PandaPool@@QAE?AW4exceptions@@IPBD@Z 1004aa3c     pandapool.obj
 0002:0000fa44       __ehfuncinfo$?send@PandaPool@@QAE?AW4exceptions@@IAAVOperationData@@W4parameterType@@PBD2@Z 1004aa44     pandapool.obj
 0002:0000fa68       __unwindtable$?send@PandaPool@@QAE?AW4exceptions@@IAAVOperationData@@W4parameterType@@PBD2@Z 1004aa68     pandapool.obj
 0002:0000faa0       __ehfuncinfo$?getResultMat@PandaPool@@QAE?AV?$Local@VArray@v8@@@v8@@I@Z 1004aaa0     pandapool.obj
 0002:0000fac4       __unwindtable$?getResultMat@PandaPool@@QAE?AV?$Local@VArray@v8@@@v8@@I@Z 1004aac4     pandapool.obj
 0002:0000fad4       __ehfuncinfo$?getResultString@PandaPool@@QAE?AV?$Local@VString@v8@@@v8@@I@Z 1004aad4     pandapool.obj
 0002:0000faf8       __unwindtable$?getResultString@PandaPool@@QAE?AV?$Local@VString@v8@@@v8@@I@Z 1004aaf8     pandapool.obj
 0002:0000fb00       __ehfuncinfo$?getResult@PandaPool@@QAE?AW4exceptions@@IAAVOperationData@@@Z 1004ab00     pandapool.obj
 0002:0000fb24       __unwindtable$?getResult@PandaPool@@QAE?AW4exceptions@@IAAVOperationData@@@Z 1004ab24     pandapool.obj
 0002:0000fb40       __ehfuncinfo$?unpackArray@PandaPool@@AAEXIV?$Local@VValue@v8@@@v8@@AAV?$Mat@N@arma@@@Z 1004ab40     pandapool.obj
 0002:0000fb68       __unwindtable$?unpackArray@PandaPool@@AAEXIV?$Local@VValue@v8@@@v8@@AAV?$Mat@N@arma@@@Z 1004ab68     pandapool.obj
 0002:0000fba8       __ehfuncinfo$?init_warm@?$Mat@N@arma@@IAEXII@Z 1004aba8     pandapool.obj
 0002:0000fba8       __ehfuncinfo$??$_Insert_nohint@AAU?$pair@$$CBIV?$Mat@N@arma@@@std@@PAU?$_Tree_node@U?$pair@$$CBIV?$Mat@N@arma@@@std@@PAX@2@@?$_Tree@V?$_Tmap_traits@IV?$Mat@N@arma@@U?$less@I@std@@V?$allocator@U?$pair@$$CBIV?$Mat@N@arma@@@std@@@4@$0A@@std@@@std@@IAE?AU?$pair@V?$_Tree_iterator@V?$_Tree_val@U?$_Tree_simple_types@U?$pair@$$CBIV?$Mat@N@arma@@@std@@@std@@@std@@@std@@_N@1@_NAAU?$pair@$$CBIV?$Mat@N@arma@@@1@PAU?$_Tree_node@U?$pair@$$CBIV?$Mat@N@arma@@@std@@PAX@1@@Z 1004aba8     pandapool.obj
 0002:0000fba8       __ehfuncinfo$??0?$basic_istream@DU?$char_traits@D@std@@@std@@QAE@PAV?$basic_streambuf@DU?$char_traits@D@std@@@1@_N@Z 1004aba8     add.obj
 0002:0000fba8       __ehfuncinfo$??0?$Mat@N@arma@@QAE@ABV01@@Z 1004aba8     pandapool.obj
 0002:0000fba8       __ehfuncinfo$?extract@?$subview@N@arma@@SAXAAV?$Mat@N@2@ABV12@@Z 1004aba8     normalize.obj
 0002:0000fba8       __ehfuncinfo$??4?$Mat@N@arma@@QAEABV01@ABV01@@Z 1004aba8     pandapool.obj
 0002:0000fba8       __ehfuncinfo$?init_cold@?$Mat@N@arma@@IAEXXZ 1004aba8     pandapool.obj
 0002:0000fbcc       __unwindtable$?init_warm@?$Mat@N@arma@@IAEXII@Z 1004abcc     pandapool.obj
 0002:0000fbcc       __unwindtable$??0?$Mat@N@arma@@QAE@ABV01@@Z 1004abcc     pandapool.obj
 0002:0000fbcc       __unwindtable$??4?$Mat@N@arma@@QAEABV01@ABV01@@Z 1004abcc     pandapool.obj
 0002:0000fbcc       __unwindtable$??$_Insert_nohint@AAU?$pair@$$CBIV?$Mat@N@arma@@@std@@PAU?$_Tree_node@U?$pair@$$CBIV?$Mat@N@arma@@@std@@PAX@2@@?$_Tree@V?$_Tmap_traits@IV?$Mat@N@arma@@U?$less@I@std@@V?$allocator@U?$pair@$$CBIV?$Mat@N@arma@@@std@@@4@$0A@@std@@@std@@IAE?AU?$pair@V?$_Tree_iterator@V?$_Tree_val@U?$_Tree_simple_types@U?$pair@$$CBIV?$Mat@N@arma@@@std@@@std@@@std@@@std@@_N@1@_NAAU?$pair@$$CBIV?$Mat@N@arma@@@1@PAU?$_Tree_node@U?$pair@$$CBIV?$Mat@N@arma@@@std@@PAX@1@@Z 1004abcc     pandapool.obj
 0002:0000fbcc       __unwindtable$?extract@?$subview@N@arma@@SAXAAV?$Mat@N@2@ABV12@@Z 1004abcc     normalize.obj
 0002:0000fbcc       __unwindtable$??0?$basic_istream@DU?$char_traits@D@std@@@std@@QAE@PAV?$basic_streambuf@DU?$char_traits@D@std@@@1@_N@Z 1004abcc     add.obj
 0002:0000fbcc       __unwindtable$?init_cold@?$Mat@N@arma@@IAEXXZ 1004abcc     pandapool.obj
 0002:0000fbd4       __ehfuncinfo$??$?0AAPBDV?$Mat@N@arma@@X$0A@@?$pair@V?$basic_string@DU?$char_traits@D@std@@V?$allocator@D@2@@std@@V?$Mat@N@arma@@@std@@QAE@AAPBD$$QAV?$Mat@N@arma@@@Z 1004abd4     pandapool.obj
 0002:0000fbd4       __ehfuncinfo$??$?0AAPBDAAV?$Mat@N@arma@@X$0A@@?$pair@V?$basic_string@DU?$char_traits@D@std@@V?$allocator@D@2@@std@@V?$Mat@N@arma@@@std@@QAE@AAPBDAAV?$Mat@N@arma@@@Z 1004abd4     pandapool.obj
 0002:0000fbf8       __unwindtable$??$?0AAPBDV?$Mat@N@arma@@X$0A@@?$pair@V?$basic_string@DU?$char_traits@D@std@@V?$allocator@D@2@@std@@V?$Mat@N@arma@@@std@@QAE@AAPBD$$QAV?$Mat@N@arma@@@Z 1004abf8     pandapool.obj
 0002:0000fbf8       __unwindtable$??$?0AAPBDAAV?$Mat@N@arma@@X$0A@@?$pair@V?$basic_string@DU?$char_traits@D@std@@V?$allocator@D@2@@std@@V?$Mat@N@arma@@@std@@QAE@AAPBDAAV?$Mat@N@arma@@@Z 1004abf8     pandapool.obj
 0002:0000fc00       __ehfuncinfo$??$?0AAPBDAAV?$basic_string@DU?$char_traits@D@std@@V?$allocator@D@2@@std@@X$0A@@?$pair@V?$basic_string@DU?$char_traits@D@std@@V?$allocator@D@2@@std@@V12@@std@@QAE@AAPBDAAV?$basic_string@DU?$char_traits@D@std@@V?$allocator@D@2@@1@@Z 1004ac00     pandapool.obj
 0002:0000fc24       __unwindtable$??$?0AAPBDAAV?$basic_string@DU?$char_traits@D@std@@V?$allocator@D@2@@std@@X$0A@@?$pair@V?$basic_string@DU?$char_traits@D@std@@V?$allocator@D@2@@std@@V12@@std@@QAE@AAPBDAAV?$basic_string@DU?$char_traits@D@std@@V?$allocator@D@2@@1@@Z 1004ac24     pandapool.obj
 0002:0000fc2c       __ehfuncinfo$??6?$basic_ostream@DU?$char_traits@D@std@@@std@@QAEAAV01@H@Z 1004ac2c     pandapool.obj
 0002:0000fc50       __unwindtable$??6?$basic_ostream@DU?$char_traits@D@std@@@std@@QAEAAV01@H@Z 1004ac50     pandapool.obj
 0002:0000fc68       __ehfuncinfo$??$arma_stop_logic_error@PBD@arma@@YAXABQBD@Z 1004ac68     normalize.obj
 0002:0000fc68       __ehfuncinfo$??$arma_stop_logic_error@V?$basic_string@DU?$char_traits@D@std@@V?$allocator@D@2@@std@@@arma@@YAXABV?$basic_string@DU?$char_traits@D@std@@V?$allocator@D@2@@std@@@Z 1004ac68     normalize.obj
 0002:0000fc68       __ehfuncinfo$??$arma_stop_logic_error@V?$basic_string@DU?$char_traits@D@std@@V?$allocator@D@2@@std@@@arma@@YAXABV?$basic_string@DU?$char_traits@D@std@@V?$allocator@D@2@@std@@@Z 1004ac68     add.obj
 0002:0000fc68       __ehfuncinfo$??$arma_stop_logic_error@PBD@arma@@YAXABQBD@Z 1004ac68     pandapool.obj
 0002:0000fc68       __ehfuncinfo$??$arma_stop_logic_error@V?$basic_string@DU?$char_traits@D@std@@V?$allocator@D@2@@std@@@arma@@YAXABV?$basic_string@DU?$char_traits@D@std@@V?$allocator@D@2@@std@@@Z 1004ac68     dot.obj
 0002:0000fc8c       __unwindtable$??$arma_stop_logic_error@V?$basic_string@DU?$char_traits@D@std@@V?$allocator@D@2@@std@@@arma@@YAXABV?$basic_string@DU?$char_traits@D@std@@V?$allocator@D@2@@std@@@Z 1004ac8c     normalize.obj
 0002:0000fc8c       __unwindtable$??$arma_stop_logic_error@PBD@arma@@YAXABQBD@Z 1004ac8c     normalize.obj
 0002:0000fc8c       __unwindtable$??$arma_stop_logic_error@V?$basic_string@DU?$char_traits@D@std@@V?$allocator@D@2@@std@@@arma@@YAXABV?$basic_string@DU?$char_traits@D@std@@V?$allocator@D@2@@std@@@Z 1004ac8c     add.obj
 0002:0000fc8c       __unwindtable$??$arma_stop_logic_error@PBD@arma@@YAXABQBD@Z 1004ac8c     pandapool.obj
 0002:0000fc8c       __unwindtable$??$arma_stop_logic_error@V?$basic_string@DU?$char_traits@D@std@@V?$allocator@D@2@@std@@@arma@@YAXABV?$basic_string@DU?$char_traits@D@std@@V?$allocator@D@2@@std@@@Z 1004ac8c     dot.obj
 0002:0000fc94       __ehfuncinfo$??$_Buynode@U?$pair@V?$basic_string@DU?$char_traits@D@std@@V?$allocator@D@2@@std@@V?$Mat@N@arma@@@std@@@?$_Tree_comp_alloc@V?$_Tmap_traits@V?$basic_string@DU?$char_traits@D@std@@V?$allocator@D@2@@std@@V?$Mat@N@arma@@U?$less@V?$basic_string@DU?$char_traits@D@std@@V?$allocator@D@2@@std@@@2@V?$allocator@U?$pair@$$CBV?$basic_string@DU?$char_traits@D@std@@V?$allocator@D@2@@std@@V?$Mat@N@arma@@@std@@@2@$0A@@std@@@std@@QAEPAU?$_Tree_node@U?$pair@$$CBV?$basic_string@DU?$char_traits@D@std@@V?$allocator@D@2@@std@@V?$Mat@N@arma@@@std@@PAX@1@$$QAU?$pair@V?$basic_string@DU?$char_traits@D@std@@V?$allocator@D@2@@std@@V?$Mat@N@arma@@@1@@Z 1004ac94     pandapool.obj
 0002:0000fcb8       __unwindtable$??$_Buynode@U?$pair@V?$basic_string@DU?$char_traits@D@std@@V?$allocator@D@2@@std@@V?$Mat@N@arma@@@std@@@?$_Tree_comp_alloc@V?$_Tmap_traits@V?$basic_string@DU?$char_traits@D@std@@V?$allocator@D@2@@std@@V?$Mat@N@arma@@U?$less@V?$basic_string@DU?$char_traits@D@std@@V?$allocator@D@2@@std@@@2@V?$allocator@U?$pair@$$CBV?$basic_string@DU?$char_traits@D@std@@V?$allocator@D@2@@std@@V?$Mat@N@arma@@@std@@@2@$0A@@std@@@std@@QAEPAU?$_Tree_node@U?$pair@$$CBV?$basic_string@DU?$char_traits@D@std@@V?$allocator@D@2@@std@@V?$Mat@N@arma@@@std@@PAX@1@$$QAU?$pair@V?$basic_string@DU?$char_traits@D@std@@V?$allocator@D@2@@std@@V?$Mat@N@arma@@@1@@Z 1004acb8     pandapool.obj
 0002:0000fcc8       __ehfuncinfo$??$_Buynode@U?$pair@IV?$Mat@N@arma@@@std@@@?$_Tree_comp_alloc@V?$_Tmap_traits@IV?$Mat@N@arma@@U?$less@I@std@@V?$allocator@U?$pair@$$CBIV?$Mat@N@arma@@@std@@@4@$0A@@std@@@std@@QAEPAU?$_Tree_node@U?$pair@$$CBIV?$Mat@N@arma@@@std@@PAX@1@$$QAU?$pair@IV?$Mat@N@arma@@@1@@Z 1004acc8     pandapool.obj
 0002:0000fcec       __unwindtable$??$_Buynode@U?$pair@IV?$Mat@N@arma@@@std@@@?$_Tree_comp_alloc@V?$_Tmap_traits@IV?$Mat@N@arma@@U?$less@I@std@@V?$allocator@U?$pair@$$CBIV?$Mat@N@arma@@@std@@@4@$0A@@std@@@std@@QAEPAU?$_Tree_node@U?$pair@$$CBIV?$Mat@N@arma@@@std@@PAX@1@$$QAU?$pair@IV?$Mat@N@arma@@@1@@Z 1004acec     pandapool.obj
 0002:0000fcf4       __ehfuncinfo$?_Destroy_if_not_nil@?$_Tree@V?$_Tmap_traits@IV?$Mat@N@arma@@U?$less@I@std@@V?$allocator@U?$pair@$$CBIV?$Mat@N@arma@@@std@@@4@$0A@@std@@@std@@IAEXPAU?$_Tree_node@U?$pair@$$CBIV?$Mat@N@arma@@@std@@PAX@2@@Z 1004acf4     pandapool.obj
 0002:0000fd18       __unwindtable$?_Destroy_if_not_nil@?$_Tree@V?$_Tmap_traits@IV?$Mat@N@arma@@U?$less@I@std@@V?$allocator@U?$pair@$$CBIV?$Mat@N@arma@@@std@@@4@$0A@@std@@@std@@IAEXPAU?$_Tree_node@U?$pair@$$CBIV?$Mat@N@arma@@@std@@PAX@2@@Z 1004ad18     pandapool.obj
 0002:0000fd20       __ehfuncinfo$??0OperationCollection@@QAE@XZ 1004ad20     opercollection.obj
 0002:0000fd44       __unwindtable$??0OperationCollection@@QAE@XZ 1004ad44     opercollection.obj
 0002:0000fd70       __ehfuncinfo$?create@OperationCollection@@QAE?AVOperationResult@@IPBD@Z 1004ad70     opercollection.obj
 0002:0000fd98       __unwindtable$?create@OperationCollection@@QAE?AVOperationResult@@IPBD@Z 1004ad98     opercollection.obj
 0002:0000fe00       __ehfuncinfo$??0OperationData@@QAE@$$QAV0@@Z 1004ae00     opercollection.obj
 0002:0000fe24       __unwindtable$??0OperationData@@QAE@$$QAV0@@Z 1004ae24     opercollection.obj
 0002:0000fe5c       __ehfuncinfo$??$construct@U?$pair@$$CBIVDot@@@std@@U?$pair@IVDot@@@2@@?$_Wrap_alloc@V?$allocator@U?$_Tree_node@U?$pair@$$CBIVDot@@@std@@PAX@std@@@std@@@std@@QAEXPAU?$pair@$$CBIVDot@@@1@$$QAU?$pair@IVDot@@@1@@Z 1004ae5c     opercollection.obj
 0002:0000fe5c       __ehfuncinfo$??$construct@U?$pair@$$CBIVTranspose@@@std@@U?$pair@IVTranspose@@@2@@?$_Wrap_alloc@V?$allocator@U?$_Tree_node@U?$pair@$$CBIVTranspose@@@std@@PAX@std@@@std@@@std@@QAEXPAU?$pair@$$CBIVTranspose@@@1@$$QAU?$pair@IVTranspose@@@1@@Z 1004ae5c     opercollection.obj
 0002:0000fe5c       __ehfuncinfo$??$construct@U?$pair@$$CBIVNormalize@@@std@@U?$pair@IVNormalize@@@2@@?$_Wrap_alloc@V?$allocator@U?$_Tree_node@U?$pair@$$CBIVNormalize@@@std@@PAX@std@@@std@@@std@@QAEXPAU?$pair@$$CBIVNormalize@@@1@$$QAU?$pair@IVNormalize@@@1@@Z 1004ae5c     opercollection.obj
 0002:0000fe5c       __ehfuncinfo$??$construct@U?$pair@$$CBIVSqrtDist@@@std@@U?$pair@IVSqrtDist@@@2@@?$_Wrap_alloc@V?$allocator@U?$_Tree_node@U?$pair@$$CBIVSqrtDist@@@std@@PAX@std@@@std@@@std@@QAEXPAU?$pair@$$CBIVSqrtDist@@@1@$$QAU?$pair@IVSqrtDist@@@1@@Z 1004ae5c     opercollection.obj
 0002:0000fe5c       __ehfuncinfo$??$construct@U?$pair@$$CBIVAdd@@@std@@U?$pair@IVAdd@@@2@@?$_Wrap_alloc@V?$allocator@U?$_Tree_node@U?$pair@$$CBIVAdd@@@std@@PAX@std@@@std@@@std@@QAEXPAU?$pair@$$CBIVAdd@@@1@$$QAU?$pair@IVAdd@@@1@@Z 1004ae5c     opercollection.obj
 0002:0000fe80       __unwindtable$??$construct@U?$pair@$$CBIVDot@@@std@@U?$pair@IVDot@@@2@@?$_Wrap_alloc@V?$allocator@U?$_Tree_node@U?$pair@$$CBIVDot@@@std@@PAX@std@@@std@@@std@@QAEXPAU?$pair@$$CBIVDot@@@1@$$QAU?$pair@IVDot@@@1@@Z 1004ae80     opercollection.obj
 0002:0000fe80       __unwindtable$??$construct@U?$pair@$$CBIVSqrtDist@@@std@@U?$pair@IVSqrtDist@@@2@@?$_Wrap_alloc@V?$allocator@U?$_Tree_node@U?$pair@$$CBIVSqrtDist@@@std@@PAX@std@@@std@@@std@@QAEXPAU?$pair@$$CBIVSqrtDist@@@1@$$QAU?$pair@IVSqrtDist@@@1@@Z 1004ae80     opercollection.obj
 0002:0000fe80       __unwindtable$??$construct@U?$pair@$$CBIVTranspose@@@std@@U?$pair@IVTranspose@@@2@@?$_Wrap_alloc@V?$allocator@U?$_Tree_node@U?$pair@$$CBIVTranspose@@@std@@PAX@std@@@std@@@std@@QAEXPAU?$pair@$$CBIVTranspose@@@1@$$QAU?$pair@IVTranspose@@@1@@Z 1004ae80     opercollection.obj
 0002:0000fe80       __unwindtable$??$construct@U?$pair@$$CBIVNormalize@@@std@@U?$pair@IVNormalize@@@2@@?$_Wrap_alloc@V?$allocator@U?$_Tree_node@U?$pair@$$CBIVNormalize@@@std@@PAX@std@@@std@@@std@@QAEXPAU?$pair@$$CBIVNormalize@@@1@$$QAU?$pair@IVNormalize@@@1@@Z 1004ae80     opercollection.obj
 0002:0000fe80       __unwindtable$??$construct@U?$pair@$$CBIVAdd@@@std@@U?$pair@IVAdd@@@2@@?$_Wrap_alloc@V?$allocator@U?$_Tree_node@U?$pair@$$CBIVAdd@@@std@@PAX@std@@@std@@@std@@QAEXPAU?$pair@$$CBIVAdd@@@1@$$QAU?$pair@IVAdd@@@1@@Z 1004ae80     opercollection.obj
 0002:0000fe88       __ehfuncinfo$??0OperationData@@QAE@XZ 1004ae88     operationdata.obj
 0002:0000feb0       __unwindtable$??0OperationData@@QAE@XZ 1004aeb0     operationdata.obj
 0002:0000fef0       __ehfuncinfo$?find@OperationData@@QAE?AW4parameterType@@PBD@Z 1004aef0     operationdata.obj
 0002:0000ff14       __unwindtable$?find@OperationData@@QAE?AW4parameterType@@PBD@Z 1004af14     operationdata.obj
 0002:0000ff1c       __ehfuncinfo$?getData@OperationData@@QAE_NIAAV?$Mat@N@arma@@@Z 1004af1c     operationdata.obj
 0002:0000ff40       __unwindtable$?getData@OperationData@@QAE_NIAAV?$Mat@N@arma@@@Z 1004af40     operationdata.obj
 0002:0000ff50       __ehfuncinfo$?saveData@OperationData@@QAEXV?$Mat@N@arma@@PBD@Z 1004af50     operationdata.obj
 0002:0000ff74       __unwindtable$?saveData@OperationData@@QAEXV?$Mat@N@arma@@PBD@Z 1004af74     operationdata.obj
 0002:0000ff9c       __ehfuncinfo$?saveData@OperationData@@QAEXNPBD@Z 1004af9c     operationdata.obj
 0002:0000ffc0       __unwindtable$?saveData@OperationData@@QAEXNPBD@Z 1004afc0     operationdata.obj
 0002:0000ffd0       __ehfuncinfo$?saveData@OperationData@@QAEXV?$basic_string@DU?$char_traits@D@std@@V?$allocator@D@2@@std@@PBD@Z 1004afd0     operationdata.obj
 0002:0000fff4       __unwindtable$?saveData@OperationData@@QAEXV?$basic_string@DU?$char_traits@D@std@@V?$allocator@D@2@@std@@PBD@Z 1004aff4     operationdata.obj
 0002:00010014       __ehfuncinfo$?saveData@OperationData@@QAEX_NPBD@Z 1004b014     operationdata.obj
 0002:00010038       __unwindtable$?saveData@OperationData@@QAEX_NPBD@Z 1004b038     operationdata.obj
 0002:00010048       __ehfuncinfo$?operate@Operation@@UAEXXZ 1004b048     operation.obj
 0002:0001006c       __unwindtable$?operate@Operation@@UAEXXZ 1004b06c     operation.obj
 0002:00010074       __ehfuncinfo$?arma_incompat_size_string@arma@@YA?AV?$basic_string@DU?$char_traits@D@std@@V?$allocator@D@2@@std@@IIIIPBD@Z 1004b074     add.obj
 0002:00010098       __unwindtable$?arma_incompat_size_string@arma@@YA?AV?$basic_string@DU?$char_traits@D@std@@V?$allocator@D@2@@std@@IIIIPBD@Z 1004b098     add.obj
 0002:000100a0       __ehfuncinfo$?operate@Add@@UAEXXZ 1004b0a0     add.obj
 0002:000100a0       __ehfuncinfo$?operate@Dot@@UAEXXZ 1004b0a0     dot.obj
 0002:000100c8       __unwindtable$?operate@Add@@UAEXXZ 1004b0c8     add.obj
 0002:000100c8       __unwindtable$?operate@Dot@@UAEXXZ 1004b0c8     dot.obj
 0002:00010118       __ehfuncinfo$??0?$basic_stringstream@DU?$char_traits@D@std@@V?$allocator@D@2@@std@@QAE@H@Z 1004b118     add.obj
 0002:0001013c       __unwindtable$??0?$basic_stringstream@DU?$char_traits@D@std@@V?$allocator@D@2@@std@@QAE@H@Z 1004b13c     add.obj
 0002:0001016c       __ehfuncinfo$??$?GV?$subview_row@N@arma@@V01@@arma@@YA?BV?$eGlue@V?$subview_row@N@arma@@V12@Veglue_minus@2@@0@ABV?$subview_row@N@0@0@Z 1004b16c     sqrtdist.obj
 0002:0001016c       __ehfuncinfo$??0?$eGlue@V?$Mat@N@arma@@V12@Veglue_plus@2@@arma@@QAE@ABV?$Mat@N@1@0@Z 1004b16c     add.obj
 0002:00010190       __unwindtable$??0?$eGlue@V?$Mat@N@arma@@V12@Veglue_plus@2@@arma@@QAE@ABV?$Mat@N@1@0@Z 1004b190     add.obj
 0002:00010190       __unwindtable$??$?GV?$subview_row@N@arma@@V01@@arma@@YA?BV?$eGlue@V?$subview_row@N@arma@@V12@Veglue_minus@2@@0@ABV?$subview_row@N@0@0@Z 1004b190     sqrtdist.obj
 0002:00010198       __ehfuncinfo$?arma_incompat_size_string@arma@@YA?AV?$basic_string@DU?$char_traits@D@std@@V?$allocator@D@2@@std@@IIIIPBD@Z 1004b198     dot.obj
 0002:00010198       __ehfuncinfo$?arma_incompat_size_string@arma@@YA?AV?$basic_string@DU?$char_traits@D@std@@V?$allocator@D@2@@std@@IIIIPBD@Z 1004b198     normalize.obj
 0002:000101bc       __unwindtable$?arma_incompat_size_string@arma@@YA?AV?$basic_string@DU?$char_traits@D@std@@V?$allocator@D@2@@std@@IIIIPBD@Z 1004b1bc     dot.obj
 0002:000101bc       __unwindtable$?arma_incompat_size_string@arma@@YA?AV?$basic_string@DU?$char_traits@D@std@@V?$allocator@D@2@@std@@IIIIPBD@Z 1004b1bc     normalize.obj
 0002:000101c8       __ehfuncinfo$??$apply@V?$Mat@N@arma@@V12@@glue_times@arma@@SAXAAV?$Mat@N@1@ABV?$Glue@V?$Mat@N@arma@@V12@Vglue_times@2@@1@@Z 1004b1c8     dot.obj
 0002:000101f0       __unwindtable$??$apply@V?$Mat@N@arma@@V12@@glue_times@arma@@SAXAAV?$Mat@N@1@ABV?$Glue@V?$Mat@N@arma@@V12@Vglue_times@2@@1@@Z 1004b1f0     dot.obj
 0002:00010230       __ehfuncinfo$??$apply@V?$Mat@N@arma@@V12@@?$glue_times_redirect2_helper@$0A@@arma@@SAXAAV?$Mat@N@1@ABV?$Glue@V?$Mat@N@arma@@V12@Vglue_times@2@@1@@Z 1004b230     dot.obj
 0002:00010254       __unwindtable$??$apply@V?$Mat@N@arma@@V12@@?$glue_times_redirect2_helper@$0A@@arma@@SAXAAV?$Mat@N@1@ABV?$Glue@V?$Mat@N@arma@@V12@Vglue_times@2@@1@@Z 1004b254     dot.obj
 0002:00010264       __ehfuncinfo$??$apply@N$0A@$0A@$0A@V?$Mat@N@arma@@V12@@glue_times@arma@@SAXAAV?$Mat@N@1@ABV21@1N@Z 1004b264     dot.obj
 0002:00010288       __unwindtable$??$apply@N$0A@$0A@$0A@V?$Mat@N@arma@@V12@@glue_times@arma@@SAXAAV?$Mat@N@1@ABV21@1N@Z 1004b288     dot.obj
 0002:000102a0       __ehfuncinfo$??$apply@NV?$Mat@N@arma@@V12@@?$gemm_emul_large@$0A@$0A@$0A@$0A@@arma@@SAXAAV?$Mat@N@1@ABV21@1NN@Z 1004b2a0     dot.obj
 0002:000102c4       __unwindtable$??$apply@NV?$Mat@N@arma@@V12@@?$gemm_emul_large@$0A@$0A@$0A@$0A@@arma@@SAXAAV?$Mat@N@1@ABV21@1NN@Z 1004b2c4     dot.obj
 0002:000102f8       __ehfuncinfo$?operate@Transpose@@UAEXXZ 1004b2f8     transpose.obj
 0002:00010320       __unwindtable$?operate@Transpose@@UAEXXZ 1004b320     transpose.obj
 0002:00010370       __ehfuncinfo$??$apply_mat_inplace@N@op_strans@arma@@SAXAAV?$Mat@N@1@@Z 1004b370     transpose.obj
 0002:00010394       __unwindtable$??$apply_mat_inplace@N@op_strans@arma@@SAXAAV?$Mat@N@1@@Z 1004b394     transpose.obj
 0002:000103a8       __ehfuncinfo$?operate@Normalize@@UAEXXZ 1004b3a8     normalize.obj
 0002:000103d0       __unwindtable$?operate@Normalize@@UAEXXZ 1004b3d0     normalize.obj
 0002:00010470       __ehfuncinfo$??0?$eGlue@V?$Mat@N@arma@@V?$Op@V?$Mat@N@arma@@Vop_repmat@2@@2@Veglue_minus@2@@arma@@QAE@ABV?$Mat@N@1@ABV?$Op@V?$Mat@N@arma@@Vop_repmat@2@@1@@Z 1004b470     normalize.obj
 0002:00010494       __unwindtable$??0?$eGlue@V?$Mat@N@arma@@V?$Op@V?$Mat@N@arma@@Vop_repmat@2@@2@Veglue_minus@2@@arma@@QAE@ABV?$Mat@N@1@ABV?$Op@V?$Mat@N@arma@@Vop_repmat@2@@1@@Z 1004b494     normalize.obj
 0002:000104ac       __ehfuncinfo$??$apply@V?$Mat@N@arma@@@op_mean@arma@@SAXAAV?$Mat@N@1@ABV?$Op@V?$Mat@N@arma@@Vop_mean@2@@1@@Z 1004b4ac     normalize.obj
 0002:000104d0       __unwindtable$??$apply@V?$Mat@N@arma@@@op_mean@arma@@SAXAAV?$Mat@N@1@ABV?$Op@V?$Mat@N@arma@@Vop_mean@2@@1@@Z 1004b4d0     normalize.obj
 0002:000104e0       __ehfuncinfo$??$apply@V?$Mat@N@arma@@@op_normalise_mat@arma@@SAXAAV?$Mat@N@1@ABV?$Op@V?$Mat@N@arma@@Vop_normalise_mat@2@@1@@Z 1004b4e0     normalize.obj
 0002:00010504       __unwindtable$??$apply@V?$Mat@N@arma@@@op_normalise_mat@arma@@SAXAAV?$Mat@N@1@ABV?$Op@V?$Mat@N@arma@@Vop_normalise_mat@2@@1@@Z 1004b504     normalize.obj
 0002:00010518       __ehfuncinfo$??$apply@N@op_normalise_mat@arma@@SAXAAV?$Mat@N@1@ABV21@II@Z 1004b518     normalize.obj
 0002:00010540       __unwindtable$??$apply@N@op_normalise_mat@arma@@SAXAAV?$Mat@N@1@ABV21@II@Z 1004b540     normalize.obj
 0002:000105c0       __ehfuncinfo$??1?$subview_row@N@arma@@QAE@XZ 1004b5c0     normalize.obj
 0002:000105c0       __ehfuncinfo$??1?$subview_col@N@arma@@QAE@XZ 1004b5c0     normalize.obj
 0002:000105e4       __unwindtable$??1?$subview_row@N@arma@@QAE@XZ 1004b5e4     normalize.obj
 0002:000105e4       __unwindtable$??1?$subview_col@N@arma@@QAE@XZ 1004b5e4     normalize.obj
 0002:000105ec       __ehfuncinfo$?col@?$Mat@N@arma@@QBE?BV?$subview_col@N@2@I@Z 1004b5ec     normalize.obj
 0002:000105ec       __ehfuncinfo$?row@?$Mat@N@arma@@QBE?BV?$subview_row@N@2@I@Z 1004b5ec     normalize.obj
 0002:000105ec       __ehfuncinfo$?row@?$Mat@N@arma@@QAE?AV?$subview_row@N@2@I@Z 1004b5ec     normalize.obj
 0002:000105ec       __ehfuncinfo$?col@?$Mat@N@arma@@QAE?AV?$subview_col@N@2@I@Z 1004b5ec     normalize.obj
 0002:00010610       __unwindtable$?row@?$Mat@N@arma@@QBE?BV?$subview_row@N@2@I@Z 1004b610     normalize.obj
 0002:00010610       __unwindtable$?col@?$Mat@N@arma@@QAE?AV?$subview_col@N@2@I@Z 1004b610     normalize.obj
 0002:00010610       __unwindtable$?col@?$Mat@N@arma@@QBE?BV?$subview_col@N@2@I@Z 1004b610     normalize.obj
 0002:00010610       __unwindtable$?row@?$Mat@N@arma@@QAE?AV?$subview_row@N@2@I@Z 1004b610     normalize.obj
 0002:00010618       __ehfuncinfo$??$apply@V?$Mat@N@arma@@@op_repmat@arma@@SAXAAV?$Mat@N@1@ABV?$Op@V?$Mat@N@arma@@Vop_repmat@2@@1@@Z 1004b618     normalize.obj
 0002:0001063c       __unwindtable$??$apply@V?$Mat@N@arma@@@op_repmat@arma@@SAXAAV?$Mat@N@1@ABV?$Op@V?$Mat@N@arma@@Vop_repmat@2@@1@@Z 1004b63c     normalize.obj
 0002:0001064c       __ehfuncinfo$??$vec_norm_1@V?$subview_col@N@arma@@@op_norm@arma@@SANABV?$Proxy@V?$subview_col@N@arma@@@1@PBN@Z 1004b64c     normalize.obj
 0002:00010670       __unwindtable$??$vec_norm_1@V?$subview_col@N@arma@@@op_norm@arma@@SANABV?$Proxy@V?$subview_col@N@arma@@@1@PBN@Z 1004b670     normalize.obj
 0002:00010690       __ehfuncinfo$??$vec_norm_2@V?$subview_col@N@arma@@@op_norm@arma@@SANABV?$Proxy@V?$subview_col@N@arma@@@1@PBN@Z 1004b690     normalize.obj
 0002:000106b8       __unwindtable$??$vec_norm_2@V?$subview_col@N@arma@@@op_norm@arma@@SANABV?$Proxy@V?$subview_col@N@arma@@@1@PBN@Z 1004b6b8     normalize.obj
 0002:000106f8       __ehfuncinfo$??$vec_norm_1@V?$subview_row@N@arma@@@op_norm@arma@@SANABV?$Proxy@V?$subview_row@N@arma@@@1@PBN@Z 1004b6f8     normalize.obj
 0002:0001071c       __unwindtable$??$vec_norm_1@V?$subview_row@N@arma@@@op_norm@arma@@SANABV?$Proxy@V?$subview_row@N@arma@@@1@PBN@Z 1004b71c     normalize.obj
 0002:00010740       __ehfuncinfo$??$vec_norm_2@V?$subview_row@N@arma@@@op_norm@arma@@SANABV?$Proxy@V?$subview_row@N@arma@@@1@PBN@Z 1004b740     normalize.obj
 0002:00010768       __unwindtable$??$vec_norm_2@V?$subview_row@N@arma@@@op_norm@arma@@SANABV?$Proxy@V?$subview_row@N@arma@@@1@PBN@Z 1004b768     normalize.obj
 0002:000107a8       __ehfuncinfo$??$inplace_op@Vop_internal_equ@arma@@V?$eOp@V?$subview_col@N@arma@@Veop_scalar_div_post@2@@2@@?$subview@N@arma@@QAEXABU?$Base@NV?$eOp@V?$subview_col@N@arma@@Veop_scalar_div_post@2@@arma@@@1@PBD@Z 1004b7a8     normalize.obj
 0002:000107cc       __unwindtable$??$inplace_op@Vop_internal_equ@arma@@V?$eOp@V?$subview_col@N@arma@@Veop_scalar_div_post@2@@2@@?$subview@N@arma@@QAEXABU?$Base@NV?$eOp@V?$subview_col@N@arma@@Veop_scalar_div_post@2@@arma@@@1@PBD@Z 1004b7cc     normalize.obj
 0002:000107e4       __ehfuncinfo$??$inplace_op@Vop_internal_equ@arma@@V?$eOp@V?$subview_row@N@arma@@Veop_scalar_div_post@2@@2@@?$subview@N@arma@@QAEXABU?$Base@NV?$eOp@V?$subview_row@N@arma@@Veop_scalar_div_post@2@@arma@@@1@PBD@Z 1004b7e4     normalize.obj
 0002:00010808       __unwindtable$??$inplace_op@Vop_internal_equ@arma@@V?$eOp@V?$subview_row@N@arma@@Veop_scalar_div_post@2@@2@@?$subview@N@arma@@QAEXABU?$Base@NV?$eOp@V?$subview_row@N@arma@@Veop_scalar_div_post@2@@arma@@@1@PBD@Z 1004b808     normalize.obj
 0002:00010820       __ehfuncinfo$??4?$Mat@N@arma@@QAEABV01@ABV?$subview@N@1@@Z 1004b820     normalize.obj
 0002:00010844       __unwindtable$??4?$Mat@N@arma@@QAEABV01@ABV?$subview@N@1@@Z 1004b844     normalize.obj
 0002:00010858       __ehfuncinfo$?operate@SqrtDist@@UAEXXZ 1004b858     sqrtdist.obj
 0002:00010880       __unwindtable$?operate@SqrtDist@@UAEXXZ 1004b880     sqrtdist.obj
 0002:000108e8       __ehfuncinfo$??$vec_norm_2@V?$eGlue@V?$subview_row@N@arma@@V12@Veglue_minus@2@@arma@@@op_norm@arma@@SANABV?$Proxy@V?$eGlue@V?$subview_row@N@arma@@V12@Veglue_minus@2@@arma@@@1@PBN@Z 1004b8e8     sqrtdist.obj
 0002:0001090c       __unwindtable$??$vec_norm_2@V?$eGlue@V?$subview_row@N@arma@@V12@Veglue_minus@2@@arma@@@op_norm@arma@@SANABV?$Proxy@V?$eGlue@V?$subview_row@N@arma@@V12@Veglue_minus@2@@arma@@@1@PBN@Z 1004b90c     sqrtdist.obj
 0002:0001093c       __unwindtable$?overflow@?$basic_filebuf@DU?$char_traits@D@std@@@std@@MAEHH@Z 1004b93c     libcpmt:cout.obj
 0002:00010944       __ehfuncinfo$?overflow@?$basic_filebuf@DU?$char_traits@D@std@@@std@@MAEHH@Z 1004b944     libcpmt:cout.obj
 0002:00010968       __unwindtable$?uflow@?$basic_filebuf@DU?$char_traits@D@std@@@std@@MAEHXZ 1004b968     libcpmt:cout.obj
 0002:00010970       __ehfuncinfo$?uflow@?$basic_filebuf@DU?$char_traits@D@std@@@std@@MAEHXZ 1004b970     libcpmt:cout.obj
 0002:00010994       __unwindtable$?_Endwrite@?$basic_filebuf@DU?$char_traits@D@std@@@std@@IAE_NXZ 1004b994     libcpmt:cout.obj
 0002:0001099c       __ehfuncinfo$?_Endwrite@?$basic_filebuf@DU?$char_traits@D@std@@@std@@IAE_NXZ 1004b99c     libcpmt:cout.obj
 0002:000109c0       __unwindtable$??$use_facet@V?$codecvt@DDU_Mbstatet@@@std@@@std@@YAABV?$codecvt@DDU_Mbstatet@@@0@ABVlocale@0@@Z 1004b9c0     libcpmt:cout.obj
 0002:000109c8       __ehfuncinfo$??$use_facet@V?$codecvt@DDU_Mbstatet@@@std@@@std@@YAABV?$codecvt@DDU_Mbstatet@@@0@ABVlocale@0@@Z 1004b9c8     libcpmt:cout.obj
 0002:000109ec       __unwindtable$?_Getcat@?$codecvt@DDU_Mbstatet@@@std@@SAIPAPBVfacet@locale@2@PBV42@@Z 1004b9ec     libcpmt:cout.obj
 0002:000109f4       __ehfuncinfo$?_Getcat@?$codecvt@DDU_Mbstatet@@@std@@SAIPAPBVfacet@locale@2@PBV42@@Z 1004b9f4     libcpmt:cout.obj
 0002:00010a6c       __unwindtable$?_Locimp_dtor@_Locimp@locale@std@@CAXPAV123@@Z 1004ba6c     libcpmt:locale0.obj
 0002:00010a74       __ehfuncinfo$?_Locimp_dtor@_Locimp@locale@std@@CAXPAV123@@Z 1004ba74     libcpmt:locale0.obj
 0002:00010a98       __unwindtable$?_Init@locale@std@@CAPAV_Locimp@12@_N@Z 1004ba98     libcpmt:locale0.obj
 0002:00010aa0       __ehfuncinfo$?_Init@locale@std@@CAPAV_Locimp@12@_N@Z 1004baa0     libcpmt:locale0.obj
 0002:00010b90       __sehtable$___scrt_is_nonwritable_in_current_image 1004bb90     LIBCMT:utility.obj
 0002:00010bb0       __sehtable$?dllmain_crt_process_attach@@YAHQAUHINSTANCE__@@QAX@Z 1004bbb0     LIBCMT:dll_dllmain.obj
 0002:00010bd0       __sehtable$?dllmain_crt_process_detach@@YAH_N@Z 1004bbd0     LIBCMT:dll_dllmain.obj
 0002:00010bf0       __sehtable$?dllmain_dispatch@@YAHQAUHINSTANCE__@@KQAX@Z 1004bbf0     LIBCMT:dll_dllmain.obj
 0002:00010c48       __sehtable$___FrameUnwindToState 1004bc48     libvcruntime:frame.obj
 0002:00010c70       __sehtable$?CallCatchBlock@@YAPAXPAUEHExceptionRecord@@PAUEHRegistrationNode@@PAU_CONTEXT@@PBU_s_FuncInfo@@PAXHK@Z 1004bc70     libvcruntime:frame.obj
 0002:00010c98       __sehtable$___BuildCatchObject 1004bc98     libvcruntime:frame.obj
 0002:00010cb8       __sehtable$___DestructExceptionObject 1004bcb8     libvcruntime:frame.obj
 0002:00010cd4       __catchsym$?CallUnexpected@@YAXPBU_s_ESTypeList@@@Z$2 1004bcd4     libvcruntime:frame.obj
 0002:00010ce4       __unwindtable$?CallUnexpected@@YAXPBU_s_ESTypeList@@@Z 1004bce4     libvcruntime:frame.obj
 0002:00010cf4       __tryblocktable$?CallUnexpected@@YAXPBU_s_ESTypeList@@@Z 1004bcf4     libvcruntime:frame.obj
 0002:00010d08       __ehfuncinfo$?CallUnexpected@@YAXPBU_s_ESTypeList@@@Z 1004bd08     libvcruntime:frame.obj
 0002:00010d30       __sehtable$___BuildCatchObjectHelper 1004bd30     libvcruntime:frame.obj
 0002:00010d88       __sehtable$??$?RV<lambda_ab9923ffb5d694ec0d78876dd103e44f>@@AAV<lambda_481dd5778c961fbcd3b60b650e9b9dc4>@@V<lambda_7923d86c9e3f319b415918ec4b39749c>@@@?$__crt_seh_guarded_call@H@@QAEH$$QAV<lambda_ab9923ffb5d694ec0d78876dd103e44f>@@AAV<lambda_481dd5778c961fbcd3b60b650e9b9dc4>@@$$QAV<lambda_7923d86c9e3f319b415918ec4b39749c>@@@Z 1004bd88     libucrt:output.obj
 0002:00010da8       __sehtable$_fclose         1004bda8     libucrt:fclose.obj
 0002:00010dc8       __sehtable$_fflush         1004bdc8     libucrt:fflush.obj
 0002:00010de8       __sehtable$_common_flush_all 1004bde8     libucrt:fflush.obj
 0002:00010e10       __sehtable$_fgetc          1004be10     libucrt:fgetc.obj
 0002:00010e30       __sehtable$_fputc          1004be30     libucrt:fputc.obj
 0002:00010e50       __sehtable$?common_fseek@@YAHV__crt_stdio_stream@@_JH@Z 1004be50     libucrt:fseek.obj
 0002:00010e70       __sehtable$??$?RV<lambda_11b4f7b0d3157825a5656a18eba1ae27>@@AAV<lambda_b51c0495177f500e782686251704ae76>@@V<lambda_cf89b47920b5017557bfe891e78aca36>@@@?$__crt_seh_guarded_call@I@@QAEI$$QAV<lambda_11b4f7b0d3157825a5656a18eba1ae27>@@AAV<lambda_b51c0495177f500e782686251704ae76>@@$$QAV<lambda_cf89b47920b5017557bfe891e78aca36>@@@Z 1004be70     libucrt:fwrite.obj
 0002:00010e90       __sehtable$??$?RV<lambda_d92cfe8357b99225085016881b624cb0>@@AAV<lambda_b721fa326cdb32351d23dfa67958c160>@@V<lambda_42d75b0848218ec137fa420c8ba9fdf9>@@@?$__crt_seh_guarded_call@H@@QAEH$$QAV<lambda_d92cfe8357b99225085016881b624cb0>@@AAV<lambda_b721fa326cdb32351d23dfa67958c160>@@$$QAV<lambda_42d75b0848218ec137fa420c8ba9fdf9>@@@Z 1004be90     libucrt:setvbuf.obj
 0002:00010eb0       __sehtable$_ungetc         1004beb0     libucrt:ungetc.obj
 0002:00010ed0       __sehtable$_setlocale      1004bed0     libucrt:setlocale.obj
 0002:00010ef0       __sehtable$__query_new_handler 1004bef0     libucrt:new_handler.obj
 0002:00010f10       __sehtable$?common_exit@@YAXHW4_crt_exit_cleanup_mode@@W4_crt_exit_return_mode@@@Z 1004bf10     libucrt:exit.obj
 0002:00010f38       __sehtable$??$?RV<lambda_800076c951b434888f4765a74a194fcc>@@AAV<lambda_4e60a939b0d047cfe11ddc22648dfba9>@@V<lambda_6dbb1268764f43b569ce7b67e331d33a>@@@?$__crt_seh_guarded_call@H@@QAEH$$QAV<lambda_800076c951b434888f4765a74a194fcc>@@AAV<lambda_4e60a939b0d047cfe11ddc22648dfba9>@@$$QAV<lambda_6dbb1268764f43b569ce7b67e331d33a>@@@Z 1004bf38     libucrt:onexit.obj
 0002:00010f58       __sehtable$??$?RV<lambda_995298e7d72eb4c2aab26c0585b3abe5>@@AAV<lambda_275893d493268fdec8709772e3fcec0e>@@V<lambda_293819299cbf9a7022e18b56a874bb5c>@@@?$__crt_seh_guarded_call@H@@QAEH$$QAV<lambda_995298e7d72eb4c2aab26c0585b3abe5>@@AAV<lambda_275893d493268fdec8709772e3fcec0e>@@$$QAV<lambda_293819299cbf9a7022e18b56a874bb5c>@@@Z 1004bf58     libucrt:onexit.obj
 0002:00010f78       __sehtable$_terminate      1004bf78     libucrt:terminate.obj
 0002:00010f98       __sehtable$_raise          1004bf98     libucrt:signal.obj
 0002:00010fb8       __sehtable$??$?RV<lambda_a048d3beccc847880fc8490e18b82769>@@AAV<lambda_ec61778202f4f5fc7e7711acc23c3bca>@@V<lambda_f7496a158712204296dd6628a163878e>@@@?$__crt_seh_guarded_call@P6AXH@Z@@QAEP6AXH@Z$$QAV<lambda_a048d3beccc847880fc8490e18b82769>@@AAV<lambda_ec61778202f4f5fc7e7711acc23c3bca>@@$$QAV<lambda_f7496a158712204296dd6628a163878e>@@@Z 1004bfb8     libucrt:signal.obj
 0002:00010fd8       __sehtable$??$?RV<lambda_9df27f884b057bc3edfc946cb5b7cf47>@@AAV<lambda_e69574bed617af4e071282c136b37893>@@V<lambda_cc0d902bcbbeb830f749456577db4721>@@@?$__crt_seh_guarded_call@X@@QAEX$$QAV<lambda_9df27f884b057bc3edfc946cb5b7cf47>@@AAV<lambda_e69574bed617af4e071282c136b37893>@@$$QAV<lambda_cc0d902bcbbeb830f749456577db4721>@@@Z 1004bfd8     libucrt:per_thread_data.obj
 0002:00010ff8       __sehtable$??$?RV<lambda_3518db117f0e7cdb002338c5d3c47b6c>@@AAV<lambda_b2ea41f6bbb362cd97d94c6828d90b61>@@V<lambda_abdedf541bb04549bc734292b4a045d4>@@@?$__crt_seh_guarded_call@X@@QAEX$$QAV<lambda_3518db117f0e7cdb002338c5d3c47b6c>@@AAV<lambda_b2ea41f6bbb362cd97d94c6828d90b61>@@$$QAV<lambda_abdedf541bb04549bc734292b4a045d4>@@@Z 1004bff8     libucrt:per_thread_data.obj
 0002:00011018       __sehtable$??$?RV<lambda_51b6e8b1eb166f2a3faf91f424b38130>@@AAV<lambda_6250bd4b2a391816dd638c3bf72b0bcb>@@V<lambda_0b5a4a3e68152e1d9b943535f5f47bed>@@@?$__crt_seh_guarded_call@X@@QAEX$$QAV<lambda_51b6e8b1eb166f2a3faf91f424b38130>@@AAV<lambda_6250bd4b2a391816dd638c3bf72b0bcb>@@$$QAV<lambda_0b5a4a3e68152e1d9b943535f5f47bed>@@@Z 1004c018     libucrt:per_thread_data.obj
 0002:00011038       __sehtable$??$?RV<lambda_5b71d36f03204c0beab531769a5b5694>@@AAV<lambda_be2b3da3f62db62e9dad5dc70221a656>@@V<lambda_8f9ce462984622f9bf76b59e2aaaf805>@@@?$__crt_seh_guarded_call@X@@QAEX$$QAV<lambda_5b71d36f03204c0beab531769a5b5694>@@AAV<lambda_be2b3da3f62db62e9dad5dc70221a656>@@$$QAV<lambda_8f9ce462984622f9bf76b59e2aaaf805>@@@Z 1004c038     libucrt:per_thread_data.obj
 0002:00011058       __sehtable$___acrt_uninitialize_locale 1004c058     libucrt:wsetlocale.obj
 0002:00011078       __sehtable$??$?RV<lambda_70818de7b02deff9841e8b0962a60ed9>@@AAV<lambda_2af78c5f5901b1372d98f9ab3177dfa6>@@AAV<lambda_f51fe5fd7c79a33db34fc9310f277369>@@@?$__crt_seh_guarded_call@X@@QAEX$$QAV<lambda_70818de7b02deff9841e8b0962a60ed9>@@AAV<lambda_2af78c5f5901b1372d98f9ab3177dfa6>@@AAV<lambda_f51fe5fd7c79a33db34fc9310f277369>@@@Z 1004c078     libucrt:wsetlocale.obj
 0002:00011098       __sehtable$??$?RV<lambda_c76fdea48760d5f9368b465f31df4405>@@AAV<lambda_e378711a6f6581bf7f0efd7cdf97f5d9>@@V<lambda_e927a58b2a85c081d733e8c6192ae2d2>@@@?$__crt_seh_guarded_call@X@@QAEX$$QAV<lambda_c76fdea48760d5f9368b465f31df4405>@@AAV<lambda_e378711a6f6581bf7f0efd7cdf97f5d9>@@$$QAV<lambda_e927a58b2a85c081d733e8c6192ae2d2>@@@Z 1004c098     libucrt:wsetlocale.obj
 0002:000110b8       __sehtable$___acrt_initialize_lowio 1004c0b8     libucrt:ioinit.obj
 0002:000110d8       __sehtable$??$?RV<lambda_9227be29367c048ad7fd93a717dcb1a1>@@AAV<lambda_a463b7b0560cfcaf9b17f27c6ef46564>@@V<lambda_ccea11b5727ccf69be64f5f5d9a08d9f>@@@?$__crt_seh_guarded_call@H@@QAEH$$QAV<lambda_9227be29367c048ad7fd93a717dcb1a1>@@AAV<lambda_a463b7b0560cfcaf9b17f27c6ef46564>@@$$QAV<lambda_ccea11b5727ccf69be64f5f5d9a08d9f>@@@Z 1004c0d8     libucrt:winapi_thunks.obj
 0002:000110f8       __sehtable$__fcloseall     1004c0f8     libucrt:closeall.obj
 0002:00011118       __sehtable$??$?RV<lambda_123407a5e2ac06da108355a851863b7a>@@AAV<lambda_2fe9b910cf3cbf4a0ab98a02ba45b3ec>@@V<lambda_ae55bdf541ad94d75914d381c370e64d>@@@?$__crt_seh_guarded_call@H@@QAEH$$QAV<lambda_123407a5e2ac06da108355a851863b7a>@@AAV<lambda_2fe9b910cf3cbf4a0ab98a02ba45b3ec>@@$$QAV<lambda_ae55bdf541ad94d75914d381c370e64d>@@@Z 1004c118     libucrt:close.obj
 0002:00011138       __sehtable$??$?RV<lambda_61cee617f5178ae960314fd4d05640a0>@@AAV<lambda_6978c1fb23f02e42e1d9e99668cc68aa>@@V<lambda_9cd88cf8ad10232537feb2133f08c833>@@@?$__crt_seh_guarded_call@H@@QAEH$$QAV<lambda_61cee617f5178ae960314fd4d05640a0>@@AAV<lambda_6978c1fb23f02e42e1d9e99668cc68aa>@@$$QAV<lambda_9cd88cf8ad10232537feb2133f08c833>@@@Z 1004c138     libucrt:commit.obj
 0002:00011158       __sehtable$__write         1004c158     libucrt:write.obj
 0002:00011178       __sehtable$??$common_ftell@_J@@YA_JV__crt_stdio_stream@@@Z 1004c178     libucrt:ftell.obj
 0002:00011198       __sehtable$??$common_lseek@_J@@YA_JH_JH@Z 1004c198     libucrt:lseek.obj
 0002:000111b8       __sehtable$___acrt_update_thread_multibyte_data 1004c1b8     libucrt:mbctype.obj
 0002:000111d8       __sehtable$??$?RV<lambda_978dc153c237d78434369da87b74ff60>@@AAV<lambda_ad1ced32f4ac17aa236e5ef05d6b3b7c>@@V<lambda_4a8533e2866a575feecb8298ce776b0d>@@@?$__crt_seh_guarded_call@X@@QAEX$$QAV<lambda_978dc153c237d78434369da87b74ff60>@@AAV<lambda_ad1ced32f4ac17aa236e5ef05d6b3b7c>@@$$QAV<lambda_4a8533e2866a575feecb8298ce776b0d>@@@Z 1004c1d8     libucrt:mbctype.obj
 0002:000111f8       __sehtable$___acrt_update_thread_locale_data 1004c1f8     libucrt:locale_refcounting.obj
 0002:00011218       __sehtable$___acrt_lowio_ensure_fh_exists 1004c218     libucrt:osfinfo.obj
 0002:00011238       __sehtable$__read          1004c238     libucrt:read.obj
 0002:00011258       __sehtable$__IsNonwritableInCurrentImage 1004c258     LIBCMT:pesect.obj
 0002:00011ee0       .edata                     1004cee0     pandamat.exp
 0002:00011f08       rgpv                       1004cf08     pandamat.exp
 0002:00011f0c       rgszName                   1004cf0c     pandamat.exp
 0002:00011f10       rgwOrd                     1004cf10     pandamat.exp
 0002:00011f12       szName                     1004cf12     pandamat.exp
 0002:00011f20       $N00001                    1004cf20     pandamat.exp
 0002:000120c0       .idata$6                   1004d0c0     kernel32:KERNEL32.dll
 0003:00000000       ?init@std@@3JA             1004e000     libcpmt:xlock.obj
 0003:00000008       ?atcount_cdecl@@3IA        1004e008     libcpmt:iosptrs.obj
 0003:00000090       ?__vcrt_flsindex@@3KA      1004e090     libvcruntime:per_thread_data.obj
 0003:0000011c       _errno_no_memory           1004e11c     libucrt:errno.obj
 0003:00000120       _doserrno_no_memory        1004e120     libucrt:errno.obj
 0003:000001e0       ___acrt_flsindex           1004e1e0     libucrt:per_thread_data.obj
 0003:000001e4       __ctype_loc_style          1004e1e4     libucrt:wsetlocale.obj
 0003:000002f0       _tzstd_program             1004e2f0     libucrt:timeset.obj
 0003:00000330       _tzdst_program             1004e330     libucrt:timeset.obj
 0003:00000370       _tzname_states             1004e370     libucrt:timeset.obj
 0003:00000378       ___rgctypeflag             1004e378     libucrt:mbctype.obj
 0003:00000380       ___rgcode_page_info        1004e380     libucrt:mbctype.obj
 0003:000009b0       __module                   1004e9b0     addon.obj
 0003:00000fb0       ?initlocks@std@@3V_Init_locks@1@A 1004efb0     libcpmt:xlock.obj
 0003:00000fb8       ?mtx@std@@3PAU_RTL_CRITICAL_SECTION@@A 1004efb8     libcpmt:xlock.obj
 0003:00001078       ?initlocks@@3V_Init_locks@std@@A 1004f078     libcpmt:cout.obj
 0003:00001079       ?init_cout@std@@3U_Init_cout@1@A 1004f079     libcpmt:cout.obj
 0003:000010d0       ?fout@std@@3V?$basic_filebuf@DU?$char_traits@D@std@@@1@A 1004f0d0     libcpmt:cout.obj
 0003:0000113c       _global_locale             1004f13c     libcpmt:locale0.obj
 0003:00001140       ?_Fac_head@std@@3PAU_Fac_node@1@A 1004f140     libcpmt:locale0.obj
 0003:00001158       ?classic_locale@std@@3Vlocale@1@A 1004f158     libcpmt:locale0.obj
 0003:00001160       ?_Fac_tidy_reg@std@@3U_Fac_tidy_reg_t@1@B 1004f160     libcpmt:locale0.obj
 0003:00001161       ?registered@?1??_Setgloballocale@locale@std@@CAXPAX@Z@4_NA 1004f161     libcpmt:locale0.obj
 0003:00001168       ?stdstr@std@@3PAPAVios_base@1@A 1004f168     libcpmt:ios.obj
 0003:00001190       ?stdopens@std@@3PADA       1004f190     libcpmt:ios.obj
 0003:000011c0       ?atfuns_cdecl@@3PAP6AXXZA  1004f1c0     libcpmt:iosptrs.obj
 0003:000011e8       ?initlocks@std@@3V_Init_locks@1@A 1004f1e8     libcpmt:iosptrs.obj
 0003:000011e9       ?init_atexit@@3U_Init_atexit@@A 1004f1e9     libcpmt:iosptrs.obj
 0003:00001308       ?_Tss_mutex@@3U_RTL_CRITICAL_SECTION@@A 1004f308     LIBCMT:thread_safe_statics.obj
 0003:00001320       ?_Tss_cv@@3U_RTL_CONDITION_VARIABLE@@A 1004f320     LIBCMT:thread_safe_statics.obj
 0003:00001324       ?_Tss_event@@3PAXA         1004f324     LIBCMT:thread_safe_statics.obj
 0003:00001328       ?encoded_sleep_condition_variable_cs@@3P6GHPAU_RTL_CONDITION_VARIABLE@@PAU_RTL_CRITICAL_SECTION@@K@ZA 1004f328     LIBCMT:thread_safe_statics.obj
 0003:0000132c       ?encoded_wake_all_condition_variable@@3P6GXPAU_RTL_CONDITION_VARIABLE@@@ZA 1004f32c     LIBCMT:thread_safe_statics.obj
 0003:00001338       ?module_local_atexit_table@@3U_onexit_table_t@@A 1004f338     LIBCMT:utility.obj
 0003:00001344       ?module_local_at_quick_exit_table@@3U_onexit_table_t@@A 1004f344     LIBCMT:utility.obj
 0003:00001350       ?is_initialized_as_dll@@3_NA 1004f350     LIBCMT:utility.obj
 0003:00001354       ?__proc_attached@@3HA      1004f354     LIBCMT:dll_dllmain.obj
 0003:00001358       _GS_ExceptionRecord        1004f358     LIBCMT:gs_report.obj
 0003:000013a8       _GS_ContextRecord          1004f3a8     LIBCMT:gs_report.obj
 0003:0000169c       ?module_handles@@3PAPAUHINSTANCE__@@A 1004f69c     libvcruntime:winapi_downlevel.obj
 0003:000016ac       ?encoded_function_pointers@@3PAPAXA 1004f6ac     libvcruntime:winapi_downlevel.obj
 0003:000016d4       ?__vcrt_startup_thread_ptd@@3U__vcrt_ptd@@A 1004f6d4     libvcruntime:per_thread_data.obj
 0003:000016fc       ___vcrt_lock_table         1004f6fc     libvcruntime:locks.obj
 0003:00001714       ___vcrt_locks_initialized  1004f714     libvcruntime:locks.obj
 0003:00001740       ?heap@@3V_HeapManager@@A   1004f740     libvcruntime:undname.obj
 0003:00001754       ___acrt_invalid_parameter_handler 1004f754     libucrt:invalid_parameter.obj
 0003:00001760       ___acrt_lock_table         1004f760     libucrt:locks.obj
 0003:00001898       ___acrt_locks_initialized  1004f898     libucrt:locks.obj
 0003:000018a8       ___acrt_new_handler        1004f8a8     libucrt:new_handler.obj
 0003:000018ac       _c_termination_complete    1004f8ac     libucrt:exit.obj
 0003:000018b0       _thread_local_exit_callback_func 1004f8b0     libucrt:exit.obj
 0003:000018b4       ?c_exit_complete@?5??common_exit@@YAXHW4_crt_exit_cleanup_mode@@W4_crt_exit_return_mode@@@Z@4_NA 1004f8b4     libucrt:exit.obj
 0003:000018b8       ?program_name@?5???$common_configure_argv@D@@YAHW4_crt_argv_mode@@@Z@4PADA 1004f8b8     libucrt:argv_parsing.obj
 0003:000019e8       _ctrlc_action              1004f9e8     libucrt:signal.obj
 0003:000019ec       _ctrlbreak_action          1004f9ec     libucrt:signal.obj
 0003:000019f0       _abort_action              1004f9f0     libucrt:signal.obj
 0003:000019f4       _term_action               1004f9f4     libucrt:signal.obj
 0003:000019f8       _enable_percent_n          1004f9f8     libucrt:printf_count_output.obj
 0003:00001c14       ___acrt_app_type           1004fc14     libucrt:report_runtime_error.obj
 0003:00001c18       ___acrt_error_mode         1004fc18     libucrt:set_error_mode.obj
 0003:00001c20       _module_handles            1004fc20     libucrt:winapi_thunks.obj
 0003:00001c70       _encoded_function_pointers 1004fc70     libucrt:winapi_thunks.obj
 0003:00001cf0       ?static_enum_proc@?1??enum_system_locales_ex_nolock@@YAHQ6GHPA_WKJ@Z@Z@4P6GH0KJ@ZA 1004fcf0     libucrt:winapi_thunks.obj
 0003:00001cf4       ?state_cache@?1??__acrt_is_packaged_app@@9@4JA 1004fcf4     libucrt:winapi_thunks.obj
 0003:00001cf8       ___acrt_global_new_mode    1004fcf8     libucrt:new_mode.obj
 0003:00001d10       __tzname                   1004fd10     libucrt:timeset.obj
 0003:00001d18       _tz_api_used               1004fd18     libucrt:tzset.obj
 0003:00001d20       _tz_info                   1004fd20     libucrt:tzset.obj
 0003:00001de4       _fSystemSet                1004fde4     libucrt:mbctype.obj
 0003:00001de8       ?initialized@?1??__acrt_initialize_multibyte@@9@4_NA 1004fde8     libucrt:mbctype.obj
 0003:00001e04       _user_matherr              1004fe04     libucrt:matherr.obj
 0003:00001e08       __pmatherr_set             1004fe08     libucrt:libm_error.obj
 0003:00001e50       ?tril@solve_opts@arma@@3Uopts_tril@12@B 1004fe50     addon.obj
 0003:00001e54       ?triu@solve_opts@arma@@3Uopts_triu@12@B 1004fe54     addon.obj
 0003:00001e58       ?no_approx@solve_opts@arma@@3Uopts_no_approx@12@B 1004fe58     addon.obj
 0003:00001e5c       ?eye@fill@arma@@3U?$fill_class@Ufill_eye@fill@arma@@@12@B 1004fe5c     addon.obj
 0003:00001e5d       ?randu@fill@arma@@3U?$fill_class@Ufill_randu@fill@arma@@@12@B 1004fe5d     addon.obj
 0003:00001e5e       ?randn@fill@arma@@3U?$fill_class@Ufill_randn@fill@arma@@@12@B 1004fe5e     addon.obj
 0003:00001e5f       ?endr@arma@@3U?$injector_end_of_row@H@1@B 1004fe5f     addon.obj
 0003:00001e60       ?random_spread@arma@@3Ugmm_seed_random_spread@1@B 1004fe60     addon.obj
 0003:00001e64       ?keep_existing@arma@@3Ugmm_seed_keep_existing@1@B 1004fe64     addon.obj
 0003:00001e68       ?random_subset@arma@@3Ugmm_seed_random_subset@1@B 1004fe68     addon.obj
 0003:00001e6c       ?maha_dist@arma@@3Ugmm_dist_maha@1@B 1004fe6c     addon.obj
 0003:00001e70       ?static_spread@arma@@3Ugmm_seed_static_spread@1@B 1004fe70     addon.obj
 0003:00001e74       ?equilibrate@solve_opts@arma@@3Uopts_equilibrate@12@B 1004fe74     addon.obj
 0003:00001e78       ?none@fill@arma@@3U?$fill_class@Ufill_none@fill@arma@@@12@B 1004fe78     addon.obj
 0003:00001e79       ?zeros@fill@arma@@3U?$fill_class@Ufill_zeros@fill@arma@@@12@B 1004fe79     addon.obj
 0003:00001e7a       ?ones@fill@arma@@3U?$fill_class@Ufill_ones@fill@arma@@@12@B 1004fe7a     addon.obj
 0003:00001e7b       ?eye@fill@arma@@3U?$fill_class@Ufill_eye@fill@arma@@@12@B 1004fe7b     pandamat.obj
 0003:00001e7c       ?none@solve_opts@arma@@3Uopts_none@12@B 1004fe7c     addon.obj
 0003:00001e80       ?prob_dist@arma@@3Ugmm_dist_prob@1@B 1004fe80     addon.obj
 0003:00001e84       ?fast@solve_opts@arma@@3Uopts_fast@12@B 1004fe84     addon.obj
 0003:00001e88       ?eucl_dist@arma@@3Ugmm_dist_eucl@1@B 1004fe88     addon.obj
 0003:00001e8c       ?static_subset@arma@@3Ugmm_seed_static_subset@1@B 1004fe8c     addon.obj
 0003:00001e90       ?tril@solve_opts@arma@@3Uopts_tril@12@B 1004fe90     pandamat.obj
 0003:00001e94       ?triu@solve_opts@arma@@3Uopts_triu@12@B 1004fe94     pandamat.obj
 0003:00001e98       ?no_approx@solve_opts@arma@@3Uopts_no_approx@12@B 1004fe98     pandamat.obj
 0003:00001e9c       ?random_spread@arma@@3Ugmm_seed_random_spread@1@B 1004fe9c     pandamat.obj
 0003:00001ea0       ?randu@fill@arma@@3U?$fill_class@Ufill_randu@fill@arma@@@12@B 1004fea0     pandamat.obj
 0003:00001ea1       ?randn@fill@arma@@3U?$fill_class@Ufill_randn@fill@arma@@@12@B 1004fea1     pandamat.obj
 0003:00001ea2       ?endr@arma@@3U?$injector_end_of_row@H@1@B 1004fea2     pandamat.obj
 0003:00001ea3       ?none@fill@arma@@3U?$fill_class@Ufill_none@fill@arma@@@12@B 1004fea3     pandamat.obj
 0003:00001ea4       ?keep_existing@arma@@3Ugmm_seed_keep_existing@1@B 1004fea4     pandamat.obj
 0003:00001ea8       ?random_subset@arma@@3Ugmm_seed_random_subset@1@B 1004fea8     pandamat.obj
 0003:00001eac       ?maha_dist@arma@@3Ugmm_dist_maha@1@B 1004feac     pandamat.obj
 0003:00001eb0       ?static_spread@arma@@3Ugmm_seed_static_spread@1@B 1004feb0     pandamat.obj
 0003:00001eb8       ?equilibrate@solve_opts@arma@@3Uopts_equilibrate@12@B 1004feb8     pandamat.obj
 0003:00001ebc       ?none@solve_opts@arma@@3Uopts_none@12@B 1004febc     pandamat.obj
 0003:00001ec0       ?prob_dist@arma@@3Ugmm_dist_prob@1@B 1004fec0     pandamat.obj
 0003:00001ec4       ?fast@solve_opts@arma@@3Uopts_fast@12@B 1004fec4     pandamat.obj
 0003:00001ec8       ?eucl_dist@arma@@3Ugmm_dist_eucl@1@B 1004fec8     pandamat.obj
 0003:00001ecc       ?static_subset@arma@@3Ugmm_seed_static_subset@1@B 1004fecc     pandamat.obj
 0003:00001ed0       ?zeros@fill@arma@@3U?$fill_class@Ufill_zeros@fill@arma@@@12@B 1004fed0     pandamat.obj
 0003:00001ed1       ?ones@fill@arma@@3U?$fill_class@Ufill_ones@fill@arma@@@12@B 1004fed1     pandamat.obj
 0003:00001ed2       ?eye@fill@arma@@3U?$fill_class@Ufill_eye@fill@arma@@@12@B 1004fed2     pandapool.obj
 0003:00001ed3       ?randu@fill@arma@@3U?$fill_class@Ufill_randu@fill@arma@@@12@B 1004fed3     pandapool.obj
 0003:00001ed4       ?tril@solve_opts@arma@@3Uopts_tril@12@B 1004fed4     pandapool.obj
 0003:00001ed8       ?triu@solve_opts@arma@@3Uopts_triu@12@B 1004fed8     pandapool.obj
 0003:00001edc       ?no_approx@solve_opts@arma@@3Uopts_no_approx@12@B 1004fedc     pandapool.obj
 0003:00001ee0       ?random_spread@arma@@3Ugmm_seed_random_spread@1@B 1004fee0     pandapool.obj
 0003:00001ee4       ?keep_existing@arma@@3Ugmm_seed_keep_existing@1@B 1004fee4     pandapool.obj
 0003:00001ee8       ?randn@fill@arma@@3U?$fill_class@Ufill_randn@fill@arma@@@12@B 1004fee8     pandapool.obj
 0003:00001ee9       ?endr@arma@@3U?$injector_end_of_row@H@1@B 1004fee9     pandapool.obj
 0003:00001eea       ?none@fill@arma@@3U?$fill_class@Ufill_none@fill@arma@@@12@B 1004feea     pandapool.obj
 0003:00001eeb       ?zeros@fill@arma@@3U?$fill_class@Ufill_zeros@fill@arma@@@12@B 1004feeb     pandapool.obj
 0003:00001eec       ?random_subset@arma@@3Ugmm_seed_random_subset@1@B 1004feec     pandapool.obj
 0003:00001ef0       ?maha_dist@arma@@3Ugmm_dist_maha@1@B 1004fef0     pandapool.obj
 0003:00001ef4       ?static_spread@arma@@3Ugmm_seed_static_spread@1@B 1004fef4     pandapool.obj
 0003:00001ef8       ?equilibrate@solve_opts@arma@@3Uopts_equilibrate@12@B 1004fef8     pandapool.obj
 0003:00001efc       ?none@solve_opts@arma@@3Uopts_none@12@B 1004fefc     pandapool.obj
 0003:00001f00       ?prob_dist@arma@@3Ugmm_dist_prob@1@B 1004ff00     pandapool.obj
 0003:00001f04       ?fast@solve_opts@arma@@3Uopts_fast@12@B 1004ff04     pandapool.obj
 0003:00001f08       ?eucl_dist@arma@@3Ugmm_dist_eucl@1@B 1004ff08     pandapool.obj
 0003:00001f0c       ?static_subset@arma@@3Ugmm_seed_static_subset@1@B 1004ff0c     pandapool.obj
 0003:00001f10       ?ones@fill@arma@@3U?$fill_class@Ufill_ones@fill@arma@@@12@B 1004ff10     pandapool.obj
 0003:00001f11       ?eye@fill@arma@@3U?$fill_class@Ufill_eye@fill@arma@@@12@B 1004ff11     opercollection.obj
 0003:00001f12       ?randu@fill@arma@@3U?$fill_class@Ufill_randu@fill@arma@@@12@B 1004ff12     opercollection.obj
 0003:00001f13       ?randn@fill@arma@@3U?$fill_class@Ufill_randn@fill@arma@@@12@B 1004ff13     opercollection.obj
 0003:00001f14       ?tril@solve_opts@arma@@3Uopts_tril@12@B 1004ff14     opercollection.obj
 0003:00001f18       ?triu@solve_opts@arma@@3Uopts_triu@12@B 1004ff18     opercollection.obj
 0003:00001f1c       ?no_approx@solve_opts@arma@@3Uopts_no_approx@12@B 1004ff1c     opercollection.obj
 0003:00001f20       ?random_spread@arma@@3Ugmm_seed_random_spread@1@B 1004ff20     opercollection.obj
 0003:00001f24       ?keep_existing@arma@@3Ugmm_seed_keep_existing@1@B 1004ff24     opercollection.obj
 0003:00001f28       ?random_subset@arma@@3Ugmm_seed_random_subset@1@B 1004ff28     opercollection.obj
 0003:00001f2c       ?maha_dist@arma@@3Ugmm_dist_maha@1@B 1004ff2c     opercollection.obj
 0003:00001f30       ?static_spread@arma@@3Ugmm_seed_static_spread@1@B 1004ff30     opercollection.obj
 0003:00001f34       ?endr@arma@@3U?$injector_end_of_row@H@1@B 1004ff34     opercollection.obj
 0003:00001f35       ?none@fill@arma@@3U?$fill_class@Ufill_none@fill@arma@@@12@B 1004ff35     opercollection.obj
 0003:00001f36       ?zeros@fill@arma@@3U?$fill_class@Ufill_zeros@fill@arma@@@12@B 1004ff36     opercollection.obj
 0003:00001f37       ?ones@fill@arma@@3U?$fill_class@Ufill_ones@fill@arma@@@12@B 1004ff37     opercollection.obj
 0003:00001f38       ?equilibrate@solve_opts@arma@@3Uopts_equilibrate@12@B 1004ff38     opercollection.obj
 0003:00001f3c       ?none@solve_opts@arma@@3Uopts_none@12@B 1004ff3c     opercollection.obj
 0003:00001f40       ?prob_dist@arma@@3Ugmm_dist_prob@1@B 1004ff40     opercollection.obj
 0003:00001f44       ?fast@solve_opts@arma@@3Uopts_fast@12@B 1004ff44     opercollection.obj
 0003:00001f48       ?eucl_dist@arma@@3Ugmm_dist_eucl@1@B 1004ff48     opercollection.obj
 0003:00001f4c       ?static_subset@arma@@3Ugmm_seed_static_subset@1@B 1004ff4c     opercollection.obj
 0003:00001f50       ?tril@solve_opts@arma@@3Uopts_tril@12@B 1004ff50     operationdata.obj
 0003:00001f54       ?triu@solve_opts@arma@@3Uopts_triu@12@B 1004ff54     operationdata.obj
 0003:00001f58       ?no_approx@solve_opts@arma@@3Uopts_no_approx@12@B 1004ff58     operationdata.obj
 0003:00001f5c       ?eye@fill@arma@@3U?$fill_class@Ufill_eye@fill@arma@@@12@B 1004ff5c     operationdata.obj
 0003:00001f5d       ?randu@fill@arma@@3U?$fill_class@Ufill_randu@fill@arma@@@12@B 1004ff5d     operationdata.obj
 0003:00001f5e       ?randn@fill@arma@@3U?$fill_class@Ufill_randn@fill@arma@@@12@B 1004ff5e     operationdata.obj
 0003:00001f5f       ?endr@arma@@3U?$injector_end_of_row@H@1@B 1004ff5f     operationdata.obj
 0003:00001f60       ?random_spread@arma@@3Ugmm_seed_random_spread@1@B 1004ff60     operationdata.obj
 0003:00001f64       ?keep_existing@arma@@3Ugmm_seed_keep_existing@1@B 1004ff64     operationdata.obj
 0003:00001f68       ?random_subset@arma@@3Ugmm_seed_random_subset@1@B 1004ff68     operationdata.obj
 0003:00001f6c       ?maha_dist@arma@@3Ugmm_dist_maha@1@B 1004ff6c     operationdata.obj
 0003:00001f70       ?static_spread@arma@@3Ugmm_seed_static_spread@1@B 1004ff70     operationdata.obj
 0003:00001f74       ?equilibrate@solve_opts@arma@@3Uopts_equilibrate@12@B 1004ff74     operationdata.obj
 0003:00001f78       ?none@fill@arma@@3U?$fill_class@Ufill_none@fill@arma@@@12@B 1004ff78     operationdata.obj
 0003:00001f79       ?zeros@fill@arma@@3U?$fill_class@Ufill_zeros@fill@arma@@@12@B 1004ff79     operationdata.obj
 0003:00001f7a       ?ones@fill@arma@@3U?$fill_class@Ufill_ones@fill@arma@@@12@B 1004ff7a     operationdata.obj
 0003:00001f7b       ?eye@fill@arma@@3U?$fill_class@Ufill_eye@fill@arma@@@12@B 1004ff7b     operation.obj
 0003:00001f7c       ?none@solve_opts@arma@@3Uopts_none@12@B 1004ff7c     operationdata.obj
 0003:00001f80       ?prob_dist@arma@@3Ugmm_dist_prob@1@B 1004ff80     operationdata.obj
 0003:00001f84       ?fast@solve_opts@arma@@3Uopts_fast@12@B 1004ff84     operationdata.obj
 0003:00001f88       ?eucl_dist@arma@@3Ugmm_dist_eucl@1@B 1004ff88     operationdata.obj
 0003:00001f8c       ?static_subset@arma@@3Ugmm_seed_static_subset@1@B 1004ff8c     operationdata.obj
 0003:00001f90       ?tril@solve_opts@arma@@3Uopts_tril@12@B 1004ff90     operation.obj
 0003:00001f94       ?triu@solve_opts@arma@@3Uopts_triu@12@B 1004ff94     operation.obj
 0003:00001f98       ?no_approx@solve_opts@arma@@3Uopts_no_approx@12@B 1004ff98     operation.obj
 0003:00001f9c       ?random_spread@arma@@3Ugmm_seed_random_spread@1@B 1004ff9c     operation.obj
 0003:00001fa0       ?randu@fill@arma@@3U?$fill_class@Ufill_randu@fill@arma@@@12@B 1004ffa0     operation.obj
 0003:00001fa1       ?randn@fill@arma@@3U?$fill_class@Ufill_randn@fill@arma@@@12@B 1004ffa1     operation.obj
 0003:00001fa2       ?endr@arma@@3U?$injector_end_of_row@H@1@B 1004ffa2     operation.obj
 0003:00001fa3       ?none@fill@arma@@3U?$fill_class@Ufill_none@fill@arma@@@12@B 1004ffa3     operation.obj
 0003:00001fa4       ?keep_existing@arma@@3Ugmm_seed_keep_existing@1@B 1004ffa4     operation.obj
 0003:00001fa8       ?random_subset@arma@@3Ugmm_seed_random_subset@1@B 1004ffa8     operation.obj
 0003:00001fac       ?maha_dist@arma@@3Ugmm_dist_maha@1@B 1004ffac     operation.obj
 0003:00001fb0       ?static_spread@arma@@3Ugmm_seed_static_spread@1@B 1004ffb0     operation.obj
 0003:00001fb4       ?equilibrate@solve_opts@arma@@3Uopts_equilibrate@12@B 1004ffb4     operation.obj
 0003:00001fb8       ?none@solve_opts@arma@@3Uopts_none@12@B 1004ffb8     operation.obj
 0003:00001fbc       ?prob_dist@arma@@3Ugmm_dist_prob@1@B 1004ffbc     operation.obj
 0003:00001fc0       ?fast@solve_opts@arma@@3Uopts_fast@12@B 1004ffc0     operation.obj
 0003:00001fc4       ?eucl_dist@arma@@3Ugmm_dist_eucl@1@B 1004ffc4     operation.obj
 0003:00001fc8       ?static_subset@arma@@3Ugmm_seed_static_subset@1@B 1004ffc8     operation.obj
 0003:00001fcc       ?zeros@fill@arma@@3U?$fill_class@Ufill_zeros@fill@arma@@@12@B 1004ffcc     operation.obj
 0003:00001fcd       ?ones@fill@arma@@3U?$fill_class@Ufill_ones@fill@arma@@@12@B 1004ffcd     operation.obj
 0003:00001fce       ?eye@fill@arma@@3U?$fill_class@Ufill_eye@fill@arma@@@12@B 1004ffce     add.obj
 0003:00001fcf       ?randu@fill@arma@@3U?$fill_class@Ufill_randu@fill@arma@@@12@B 1004ffcf     add.obj
 0003:00001fd0       ?tril@solve_opts@arma@@3Uopts_tril@12@B 1004ffd0     add.obj
 0003:00001fd4       ?triu@solve_opts@arma@@3Uopts_triu@12@B 1004ffd4     add.obj
 0003:00001fd8       ?no_approx@solve_opts@arma@@3Uopts_no_approx@12@B 1004ffd8     add.obj
 0003:00001fdc       ?random_spread@arma@@3Ugmm_seed_random_spread@1@B 1004ffdc     add.obj
 0003:00001fe0       ?keep_existing@arma@@3Ugmm_seed_keep_existing@1@B 1004ffe0     add.obj
 0003:00001fe4       ?randn@fill@arma@@3U?$fill_class@Ufill_randn@fill@arma@@@12@B 1004ffe4     add.obj
 0003:00001fe5       ?endr@arma@@3U?$injector_end_of_row@H@1@B 1004ffe5     add.obj
 0003:00001fe6       ?none@fill@arma@@3U?$fill_class@Ufill_none@fill@arma@@@12@B 1004ffe6     add.obj
 0003:00001fe7       ?zeros@fill@arma@@3U?$fill_class@Ufill_zeros@fill@arma@@@12@B 1004ffe7     add.obj
 0003:00001fe8       ?random_subset@arma@@3Ugmm_seed_random_subset@1@B 1004ffe8     add.obj
 0003:00001fec       ?maha_dist@arma@@3Ugmm_dist_maha@1@B 1004ffec     add.obj
 0003:00001ff0       ?static_spread@arma@@3Ugmm_seed_static_spread@1@B 1004fff0     add.obj
 0003:00001ff4       ?equilibrate@solve_opts@arma@@3Uopts_equilibrate@12@B 1004fff4     add.obj
 0003:00001ff8       ?none@solve_opts@arma@@3Uopts_none@12@B 1004fff8     add.obj
 0003:00001ffc       ?prob_dist@arma@@3Ugmm_dist_prob@1@B 1004fffc     add.obj
 0003:00002000       ?fast@solve_opts@arma@@3Uopts_fast@12@B 10050000     add.obj
 0003:00002004       ?eucl_dist@arma@@3Ugmm_dist_eucl@1@B 10050004     add.obj
 0003:00002008       ?static_subset@arma@@3Ugmm_seed_static_subset@1@B 10050008     add.obj
 0003:0000200c       ?ones@fill@arma@@3U?$fill_class@Ufill_ones@fill@arma@@@12@B 1005000c     add.obj
 0003:0000200d       ?eye@fill@arma@@3U?$fill_class@Ufill_eye@fill@arma@@@12@B 1005000d     dot.obj
 0003:0000200e       ?randu@fill@arma@@3U?$fill_class@Ufill_randu@fill@arma@@@12@B 1005000e     dot.obj
 0003:0000200f       ?randn@fill@arma@@3U?$fill_class@Ufill_randn@fill@arma@@@12@B 1005000f     dot.obj
 0003:00002010       ?tril@solve_opts@arma@@3Uopts_tril@12@B 10050010     dot.obj
 0003:00002014       ?triu@solve_opts@arma@@3Uopts_triu@12@B 10050014     dot.obj
 0003:00002018       ?no_approx@solve_opts@arma@@3Uopts_no_approx@12@B 10050018     dot.obj
 0003:0000201c       ?random_spread@arma@@3Ugmm_seed_random_spread@1@B 1005001c     dot.obj
 0003:00002020       ?keep_existing@arma@@3Ugmm_seed_keep_existing@1@B 10050020     dot.obj
 0003:00002024       ?random_subset@arma@@3Ugmm_seed_random_subset@1@B 10050024     dot.obj
 0003:00002028       ?maha_dist@arma@@3Ugmm_dist_maha@1@B 10050028     dot.obj
 0003:0000202c       ?static_spread@arma@@3Ugmm_seed_static_spread@1@B 1005002c     dot.obj
 0003:00002030       ?endr@arma@@3U?$injector_end_of_row@H@1@B 10050030     dot.obj
 0003:00002031       ?none@fill@arma@@3U?$fill_class@Ufill_none@fill@arma@@@12@B 10050031     dot.obj
 0003:00002032       ?zeros@fill@arma@@3U?$fill_class@Ufill_zeros@fill@arma@@@12@B 10050032     dot.obj
 0003:00002033       ?ones@fill@arma@@3U?$fill_class@Ufill_ones@fill@arma@@@12@B 10050033     dot.obj
 0003:00002034       ?equilibrate@solve_opts@arma@@3Uopts_equilibrate@12@B 10050034     dot.obj
 0003:00002038       ?none@solve_opts@arma@@3Uopts_none@12@B 10050038     dot.obj
 0003:0000203c       ?prob_dist@arma@@3Ugmm_dist_prob@1@B 1005003c     dot.obj
 0003:00002040       ?fast@solve_opts@arma@@3Uopts_fast@12@B 10050040     dot.obj
 0003:00002044       ?eucl_dist@arma@@3Ugmm_dist_eucl@1@B 10050044     dot.obj
 0003:00002048       ?static_subset@arma@@3Ugmm_seed_static_subset@1@B 10050048     dot.obj
 0003:0000204c       ?tril@solve_opts@arma@@3Uopts_tril@12@B 1005004c     transpose.obj
 0003:00002050       ?triu@solve_opts@arma@@3Uopts_triu@12@B 10050050     transpose.obj
 0003:00002054       ?no_approx@solve_opts@arma@@3Uopts_no_approx@12@B 10050054     transpose.obj
 0003:00002058       ?eye@fill@arma@@3U?$fill_class@Ufill_eye@fill@arma@@@12@B 10050058     transpose.obj
 0003:00002059       ?randu@fill@arma@@3U?$fill_class@Ufill_randu@fill@arma@@@12@B 10050059     transpose.obj
 0003:0000205a       ?randn@fill@arma@@3U?$fill_class@Ufill_randn@fill@arma@@@12@B 1005005a     transpose.obj
 0003:0000205b       ?endr@arma@@3U?$injector_end_of_row@H@1@B 1005005b     transpose.obj
 0003:0000205c       ?random_spread@arma@@3Ugmm_seed_random_spread@1@B 1005005c     transpose.obj
 0003:00002060       ?keep_existing@arma@@3Ugmm_seed_keep_existing@1@B 10050060     transpose.obj
 0003:00002064       ?random_subset@arma@@3Ugmm_seed_random_subset@1@B 10050064     transpose.obj
 0003:00002068       ?maha_dist@arma@@3Ugmm_dist_maha@1@B 10050068     transpose.obj
 0003:0000206c       ?static_spread@arma@@3Ugmm_seed_static_spread@1@B 1005006c     transpose.obj
 0003:00002070       ?equilibrate@solve_opts@arma@@3Uopts_equilibrate@12@B 10050070     transpose.obj
 0003:00002074       ?none@fill@arma@@3U?$fill_class@Ufill_none@fill@arma@@@12@B 10050074     transpose.obj
 0003:00002075       ?zeros@fill@arma@@3U?$fill_class@Ufill_zeros@fill@arma@@@12@B 10050075     transpose.obj
 0003:00002076       ?ones@fill@arma@@3U?$fill_class@Ufill_ones@fill@arma@@@12@B 10050076     transpose.obj
 0003:00002077       ?eye@fill@arma@@3U?$fill_class@Ufill_eye@fill@arma@@@12@B 10050077     normalize.obj
 0003:00002078       ?none@solve_opts@arma@@3Uopts_none@12@B 10050078     transpose.obj
 0003:0000207c       ?prob_dist@arma@@3Ugmm_dist_prob@1@B 1005007c     transpose.obj
 0003:00002080       ?fast@solve_opts@arma@@3Uopts_fast@12@B 10050080     transpose.obj
 0003:00002084       ?eucl_dist@arma@@3Ugmm_dist_eucl@1@B 10050084     transpose.obj
 0003:00002088       ?static_subset@arma@@3Ugmm_seed_static_subset@1@B 10050088     transpose.obj
 0003:0000208c       ?tril@solve_opts@arma@@3Uopts_tril@12@B 1005008c     normalize.obj
 0003:00002090       ?triu@solve_opts@arma@@3Uopts_triu@12@B 10050090     normalize.obj
 0003:00002094       ?no_approx@solve_opts@arma@@3Uopts_no_approx@12@B 10050094     normalize.obj
 0003:00002098       ?random_spread@arma@@3Ugmm_seed_random_spread@1@B 10050098     normalize.obj
 0003:0000209c       ?randu@fill@arma@@3U?$fill_class@Ufill_randu@fill@arma@@@12@B 1005009c     normalize.obj
 0003:0000209d       ?randn@fill@arma@@3U?$fill_class@Ufill_randn@fill@arma@@@12@B 1005009d     normalize.obj
 0003:0000209e       ?endr@arma@@3U?$injector_end_of_row@H@1@B 1005009e     normalize.obj
 0003:0000209f       ?none@fill@arma@@3U?$fill_class@Ufill_none@fill@arma@@@12@B 1005009f     normalize.obj
 0003:000020a0       ?keep_existing@arma@@3Ugmm_seed_keep_existing@1@B 100500a0     normalize.obj
 0003:000020a4       ?random_subset@arma@@3Ugmm_seed_random_subset@1@B 100500a4     normalize.obj
 0003:000020a8       ?maha_dist@arma@@3Ugmm_dist_maha@1@B 100500a8     normalize.obj
 0003:000020ac       ?static_spread@arma@@3Ugmm_seed_static_spread@1@B 100500ac     normalize.obj
 0003:000020b0       ?equilibrate@solve_opts@arma@@3Uopts_equilibrate@12@B 100500b0     normalize.obj
 0003:000020b4       ?none@solve_opts@arma@@3Uopts_none@12@B 100500b4     normalize.obj
 0003:000020b8       ?prob_dist@arma@@3Ugmm_dist_prob@1@B 100500b8     normalize.obj
 0003:000020bc       ?fast@solve_opts@arma@@3Uopts_fast@12@B 100500bc     normalize.obj
 0003:000020c0       ?eucl_dist@arma@@3Ugmm_dist_eucl@1@B 100500c0     normalize.obj
 0003:000020c4       ?static_subset@arma@@3Ugmm_seed_static_subset@1@B 100500c4     normalize.obj
 0003:000020c8       ?zeros@fill@arma@@3U?$fill_class@Ufill_zeros@fill@arma@@@12@B 100500c8     normalize.obj
 0003:000020c9       ?ones@fill@arma@@3U?$fill_class@Ufill_ones@fill@arma@@@12@B 100500c9     normalize.obj
 0003:000020ca       ?eye@fill@arma@@3U?$fill_class@Ufill_eye@fill@arma@@@12@B 100500ca     sqrtdist.obj
 0003:000020cb       ?randu@fill@arma@@3U?$fill_class@Ufill_randu@fill@arma@@@12@B 100500cb     sqrtdist.obj
 0003:000020cc       ?tril@solve_opts@arma@@3Uopts_tril@12@B 100500cc     sqrtdist.obj
 0003:000020d0       ?triu@solve_opts@arma@@3Uopts_triu@12@B 100500d0     sqrtdist.obj
 0003:000020d4       ?no_approx@solve_opts@arma@@3Uopts_no_approx@12@B 100500d4     sqrtdist.obj
 0003:000020d8       ?random_spread@arma@@3Ugmm_seed_random_spread@1@B 100500d8     sqrtdist.obj
 0003:000020dc       ?keep_existing@arma@@3Ugmm_seed_keep_existing@1@B 100500dc     sqrtdist.obj
 0003:000020e0       ?randn@fill@arma@@3U?$fill_class@Ufill_randn@fill@arma@@@12@B 100500e0     sqrtdist.obj
 0003:000020e1       ?endr@arma@@3U?$injector_end_of_row@H@1@B 100500e1     sqrtdist.obj
 0003:000020e2       ?none@fill@arma@@3U?$fill_class@Ufill_none@fill@arma@@@12@B 100500e2     sqrtdist.obj
 0003:000020e3       ?zeros@fill@arma@@3U?$fill_class@Ufill_zeros@fill@arma@@@12@B 100500e3     sqrtdist.obj
 0003:000020e4       ?random_subset@arma@@3Ugmm_seed_random_subset@1@B 100500e4     sqrtdist.obj
 0003:000020e8       ?maha_dist@arma@@3Ugmm_dist_maha@1@B 100500e8     sqrtdist.obj
 0003:000020ec       ?static_spread@arma@@3Ugmm_seed_static_spread@1@B 100500ec     sqrtdist.obj
 0003:000020f0       ?equilibrate@solve_opts@arma@@3Uopts_equilibrate@12@B 100500f0     sqrtdist.obj
 0003:000020f4       ?none@solve_opts@arma@@3Uopts_none@12@B 100500f4     sqrtdist.obj
 0003:000020f8       ?prob_dist@arma@@3Ugmm_dist_prob@1@B 100500f8     sqrtdist.obj
 0003:000020fc       ?fast@solve_opts@arma@@3Uopts_fast@12@B 100500fc     sqrtdist.obj
 0003:00002100       ?eucl_dist@arma@@3Ugmm_dist_eucl@1@B 10050100     sqrtdist.obj
 0003:00002104       ?static_subset@arma@@3Ugmm_seed_static_subset@1@B 10050104     sqrtdist.obj
 0003:00002108       ?ones@fill@arma@@3U?$fill_class@Ufill_ones@fill@arma@@@12@B 10050108     sqrtdist.obj
 0004:00000000       __guard_fids____dcrt_uninitialize_environments_nolock 10051000     libucrt:environment_initialization.obj
 0004:00000008       __guard_fids__             10051008     libucrt:initialization.obj
 0004:00000068       __guard_fids____acrt_initialize_ptd 10051068     libucrt:per_thread_data.obj
 0004:0000006c       __guard_fids__             1005106c     libucrt:wsetlocale.obj
 0004:00000084       __guard_fids_??$common_show_message_box@_W@@YAHQB_W0I@Z 10051084     libucrt:crtmbox.obj
 0004:00000088       __guard_fids_??$?RV<lambda_9227be29367c048ad7fd93a717dcb1a1>@@AAV<lambda_a463b7b0560cfcaf9b17f27c6ef46564>@@V<lambda_ccea11b5727ccf69be64f5f5d9a08d9f>@@@?$__crt_seh_guarded_call@H@@QAEH$$QAV<lambda_9227be29367c048ad7fd93a717dcb1a1>@@AAV<lambda_a463b7b0560cfcaf9b17f27c6ef46564>@@$$QAV<lambda_ccea11b5727ccf69be64f5f5d9a08d9f>@@@Z 10051088     libucrt:winapi_thunks.obj
 0004:0000008c       __guard_fids__             1005108c     libucrt:stdio_initializer.obj
 0004:00000090       __guard_fids__             10051090     libucrt:stdio_initializer.obj
 0004:00000094       __guard_fids_??$expand_argument_wildcards@D@@YAHQAD0AAV?$argument_list@D@?A0xb0e4b824@@@Z 10051094     libucrt:argv_wildcards.obj
 0004:00000098       __guard_fids__             10051098     libucrt:locale_initializer.obj
 0004:0000009c       __guard_fids__GetLocaleNameFromLangCountry 1005109c     libucrt:get_qualified_locale.obj
 0004:000000a0       __guard_fids__GetLocaleNameFromLanguage 100510a0     libucrt:get_qualified_locale.obj
 0004:000000a4       __guard_fids__GetLcidFromLangCountry 100510a4     libucrt:getqloc_downlevel.obj
 0004:000000a8       __guard_fids__GetLcidFromLanguage 100510a8     libucrt:getqloc_downlevel.obj
 0004:000000ac       __guard_fids__GetLcidFromCountry 100510ac     libucrt:getqloc_downlevel.obj
 0004:000000b0       __guard_fids__             100510b0     libucrt:sse2_initializer.obj
 0004:000000b4       __guard_fids____libm_error_support 100510b4     libucrt:libm_error.obj
 0004:000000b8       __guard_fids__             100510b8     libucrt:timeset_initializer.obj
 0004:000000bc       __guard_fids__             100510bc     libucrt:multibyte_initializer.obj
 0004:000000c0       __guard_fids__             100510c0     libucrt:console_output_initializer.obj
 0004:000000c4       __guard_fids_??__Einitlocks@std@@YAXXZ 100510c4     libcpmt:xlock.obj
 0004:000000c8       __guard_fids__             100510c8     libcpmt:xlock.obj
 0004:000000cc       __guard_fids_??__Einitlocks@@YAXXZ 100510cc     libcpmt:cout.obj
 0004:000000d0       __guard_fids_??__Efout@std@@YAXXZ 100510d0     libcpmt:cout.obj
 0004:000000d4       __guard_fids_??__Ecout@std@@YAXXZ 100510d4     libcpmt:cout.obj
 0004:000000d8       __guard_fids__             100510d8     libcpmt:cout.obj
 0004:000000e0       __guard_fids__             100510e0     libcpmt:cout.obj
 0004:000000e8       __guard_fids__             100510e8     libcpmt:cout.obj
 0004:000000f0       __guard_fids__             100510f0     libcpmt:cout.obj
 0004:000000f4       __guard_fids__             100510f4     libcpmt:cout.obj
 0004:00000100       __guard_fids__             10051100     libcpmt:cout.obj
 0004:0000012c       __guard_fids__             1005112c     libcpmt:cout.obj
 0004:00000144       __guard_fids__             10051144     libcpmt:cout.obj
 0004:0000014c       __guard_fids__             1005114c     libcpmt:cout.obj
 0004:00000154       __guard_fids__             10051154     libcpmt:cout.obj
 0004:0000016c       __guard_fids__             1005116c     libcpmt:cout.obj
 0004:00000174       __guard_fids__             10051174     libcpmt:cout.obj
 0004:00000178       __guard_fids__             10051178     libcpmt:cout.obj
 0004:000001b4       __guard_fids__             100511b4     libcpmt:cout.obj
 0004:000001f0       __guard_fids__             100511f0     libcpmt:cout.obj
 0004:000001f4       __guard_fids__             100511f4     libcpmt:cout.obj
 0004:000001f8       __guard_fids__             100511f8     libcpmt:cout.obj
 0004:00000220       __guard_fids__             10051220     libcpmt:cout.obj
 0004:00000224       __guard_fids__             10051224     libcpmt:cout.obj
 0004:00000228       __guard_fids__             10051228     libcpmt:cout.obj
 0004:0000022c       __guard_fids__             1005122c     libcpmt:cout.obj
 0004:00000230       __guard_fids__             10051230     libcpmt:cout.obj
 0004:00000234       __guard_fids__             10051234     libcpmt:cout.obj
 0004:00000238       __guard_fids_??__E_Fac_tidy_reg@std@@YAXXZ 10051238     libcpmt:locale0.obj
 0004:0000023c       __guard_fids_?_Setgloballocale@locale@std@@CAXPAX@Z 1005123c     libcpmt:locale0.obj
 0004:00000240       __guard_fids_??__Eclassic_locale@std@@YAXXZ 10051240     libcpmt:locale0.obj
 0004:00000244       __guard_fids__             10051244     libcpmt:locale0.obj
 0004:00000250       __guard_fids__             10051250     libcpmt:locale0.obj
 0004:00000254       __guard_fids__             10051254     libcpmt:locale0.obj
 0004:00000258       __guard_fids__             10051258     libcpmt:xthrow.obj
 0004:00000260       __guard_fids__             10051260     libcpmt:xthrow.obj
 0004:00000268       __guard_fids__             10051268     libcpmt:xthrow.obj
 0004:00000270       __guard_fids__             10051270     libcpmt:xthrow.obj
 0004:00000278       __guard_fids__             10051278     libcpmt:xthrow.obj
 0004:0000027c       __guard_fids__             1005127c     libcpmt:xthrow.obj
 0004:00000280       __guard_fids__             10051280     libcpmt:xthrow.obj
 0004:00000284       __guard_fids__             10051284     libcpmt:xthrow.obj
 0004:00000288       __guard_fids__             10051288     libcpmt:xthrow.obj
 0004:0000028c       __guard_fids__             1005128c     libcpmt:xthrow.obj
 0004:00000290       __guard_fids__             10051290     libcpmt:xthrow.obj
 0004:00000294       __guard_fids_??__Einitlocks@std@@YAXXZ 10051294     libcpmt:iosptrs.obj
 0004:00000298       __guard_fids_??__Einit_atexit@@YAXXZ 10051298     libcpmt:iosptrs.obj
 0004:0000029c       __guard_fids__             1005129c     libcpmt:iosptrs.obj
 0004:000002a0       __guard_fids__             100512a0     libcpmt:iosptrs.obj
 0004:000002a4       __guard_fids__             100512a4     libcpmt:locale.obj
 0004:000002d0       __guard_fids__             100512d0     libcpmt:locale.obj
 0004:000002f0       __guard_fids__             100512f0     libcpmt:winapisupp.obj
 0004:000002f4       __guard_fids__             100512f4     LIBCMT:thread_safe_statics.obj
 0004:000002f8       __guard_fids_?__scrt_initialize_thread_safe_statics@@YAHXZ 100512f8     LIBCMT:thread_safe_statics.obj
 0004:000002fc       __guard_fids__             100512fc     LIBCMT:std_type_info_static.obj
 0004:00000300       __guard_fids_?dllmain_crt_process_attach@@YAHQAUHINSTANCE__@@QAX@Z 10051300     LIBCMT:dll_dllmain.obj
 0004:00000308       __guard_fids_?dllmain_dispatch@@YAHQAUHINSTANCE__@@KQAX@Z 10051308     LIBCMT:dll_dllmain.obj
 0004:0000030c       __guard_fids__             1005130c     LIBCMT:throw_bad_alloc.obj
 0004:00000314       __guard_fids__             10051314     LIBCMT:throw_bad_alloc.obj
 0004:00000318       __guard_fids__             10051318     LIBCMT:throw_bad_alloc.obj
 0004:0000031c       __guard_fids__             1005131c     LIBCMT:guard_support.obj
 0004:00000320       __guard_fids__             10051320     libvcruntime:frame.obj
 0004:00000324       __guard_fids__             10051324     libvcruntime:frame.obj
 0004:0000032c       __guard_fids__             1005132c     libvcruntime:frame.obj
 0004:00000330       __guard_fids__             10051330     libvcruntime:frame.obj
 0004:00000334       __guard_fids____vcrt_initialize_ptd 10051334     libvcruntime:per_thread_data.obj
 0006:00000060       $R000000                   10053060     * linker generated manifest res *

 Exports

  ordinal    name

        1    __register_pandamat_
               exported name: _register_pandamat_
